
/home/beebop/src/os_4/bin/os_4.bin:     file format elf32-i386


Disassembly of section .text:

00100000 <kernel_main>:
  100000:	55                   	push   ebp
  100001:	89 e5                	mov    ebp,esp
  100003:	57                   	push   edi
  100004:	56                   	push   esi
  100005:	53                   	push   ebx
  100006:	81 ec 8c 02 00 00    	sub    esp,0x28c
  10000c:	e8 76 24 00 00       	call   102487 <vbe_load_data>
  100011:	e8 d2 05 00 00       	call   1005e8 <init_vga>
  100016:	e8 0d 08 00 00       	call   100828 <init_vgatext>
  10001b:	e8 4b 25 00 00       	call   10256b <init_malloc>
  100020:	e8 4c 1b 00 00       	call   101b71 <setup_idt>
  100025:	e8 e9 63 00 00       	call   106413 <PIC_init>
  10002a:	e8 cf 2d 00 00       	call   102dfe <init_paging>
  10002f:	83 ec 0c             	sub    esp,0xc
  100032:	6a 0c                	push   0xc
  100034:	e8 40 26 00 00       	call   102679 <malloc>
  100039:	83 c4 10             	add    esp,0x10
  10003c:	a3 a0 f8 17 00       	mov    ds:0x17f8a0,eax
  100041:	c7 45 e4 00 00 00 00 	mov    DWORD PTR [ebp-0x1c],0x0
  100048:	eb 18                	jmp    100062 <kernel_main+0x62>
  10004a:	a1 a0 f8 17 00       	mov    eax,ds:0x17f8a0
  10004f:	83 ec 08             	sub    esp,0x8
  100052:	ff 75 e4             	push   DWORD PTR [ebp-0x1c]
  100055:	50                   	push   eax
  100056:	e8 d8 35 00 00       	call   103633 <id_page>
  10005b:	83 c4 10             	add    esp,0x10
  10005e:	83 45 e4 01          	add    DWORD PTR [ebp-0x1c],0x1
  100062:	81 7d e4 ff 1f 00 00 	cmp    DWORD PTR [ebp-0x1c],0x1fff
  100069:	76 df                	jbe    10004a <kernel_main+0x4a>
  10006b:	c7 45 e4 00 d0 0f 00 	mov    DWORD PTR [ebp-0x1c],0xfd000
  100072:	eb 18                	jmp    10008c <kernel_main+0x8c>
  100074:	a1 a0 f8 17 00       	mov    eax,ds:0x17f8a0
  100079:	83 ec 08             	sub    esp,0x8
  10007c:	ff 75 e4             	push   DWORD PTR [ebp-0x1c]
  10007f:	50                   	push   eax
  100080:	e8 ae 35 00 00       	call   103633 <id_page>
  100085:	83 c4 10             	add    esp,0x10
  100088:	83 45 e4 01          	add    DWORD PTR [ebp-0x1c],0x1
  10008c:	81 7d e4 fe ff 0f 00 	cmp    DWORD PTR [ebp-0x1c],0xffffe
  100093:	76 df                	jbe    100074 <kernel_main+0x74>
  100095:	8b 45 08             	mov    eax,DWORD PTR [ebp+0x8]
  100098:	83 c0 04             	add    eax,0x4
  10009b:	8b 00                	mov    eax,DWORD PTR [eax]
  10009d:	83 ec 0c             	sub    esp,0xc
  1000a0:	50                   	push   eax
  1000a1:	e8 8e 39 00 00       	call   103a34 <load_bios_gdt>
  1000a6:	83 c4 10             	add    esp,0x10
  1000a9:	e8 13 25 00 00       	call   1025c1 <page_all_allocations>
  1000ae:	e8 96 2f 00 00       	call   103049 <load_page_directory>
  1000b3:	83 ec 0c             	sub    esp,0xc
  1000b6:	6a 64                	push   0x64
  1000b8:	e8 c5 44 00 00       	call   104582 <timer_init>
  1000bd:	83 c4 10             	add    esp,0x10
  1000c0:	83 ec 08             	sub    esp,0x8
  1000c3:	6a 02                	push   0x2
  1000c5:	6a 06                	push   0x6
  1000c7:	e8 77 67 00 00       	call   106843 <_log>
  1000cc:	83 c4 10             	add    esp,0x10
  1000cf:	85 c0                	test   eax,eax
  1000d1:	74 15                	je     1000e8 <kernel_main+0xe8>
  1000d3:	83 ec 08             	sub    esp,0x8
  1000d6:	68 00 90 10 00       	push   0x109000
  1000db:	68 16 90 10 00       	push   0x109016
  1000e0:	e8 f1 14 00 00       	call   1015d6 <printf>
  1000e5:	83 c4 10             	add    esp,0x10
  1000e8:	e8 02 45 00 00       	call   1045ef <init_mt>
  1000ed:	83 ec 0c             	sub    esp,0xc
  1000f0:	8d 85 ca fd ff ff    	lea    eax,[ebp-0x236]
  1000f6:	50                   	push   eax
  1000f7:	e8 4d 53 00 00       	call   105449 <read_superblock>
  1000fc:	83 c4 10             	add    esp,0x10
  1000ff:	83 ec 08             	sub    esp,0x8
  100102:	6a 02                	push   0x2
  100104:	6a 06                	push   0x6
  100106:	e8 38 67 00 00       	call   106843 <_log>
  10010b:	83 c4 10             	add    esp,0x10
  10010e:	85 c0                	test   eax,eax
  100110:	74 10                	je     100122 <kernel_main+0x122>
  100112:	83 ec 0c             	sub    esp,0xc
  100115:	68 26 90 10 00       	push   0x109026
  10011a:	e8 b7 14 00 00       	call   1015d6 <printf>
  10011f:	83 c4 10             	add    esp,0x10
  100122:	83 ec 08             	sub    esp,0x8
  100125:	6a 02                	push   0x2
  100127:	6a 06                	push   0x6
  100129:	e8 15 67 00 00       	call   106843 <_log>
  10012e:	83 c4 10             	add    esp,0x10
  100131:	85 c0                	test   eax,eax
  100133:	74 46                	je     10017b <kernel_main+0x17b>
  100135:	8b 85 e2 fd ff ff    	mov    eax,DWORD PTR [ebp-0x21e]
  10013b:	d1 e8                	shr    eax,1
  10013d:	89 c7                	mov    edi,eax
  10013f:	8b b5 e2 fd ff ff    	mov    esi,DWORD PTR [ebp-0x21e]
  100145:	8b 9d ce fd ff ff    	mov    ebx,DWORD PTR [ebp-0x232]
  10014b:	0f b7 85 02 fe ff ff 	movzx  eax,WORD PTR [ebp-0x1fe]
  100152:	0f b7 c8             	movzx  ecx,ax
  100155:	0f b7 85 08 fe ff ff 	movzx  eax,WORD PTR [ebp-0x1f8]
  10015c:	0f b7 d0             	movzx  edx,ax
  10015f:	8b 85 16 fe ff ff    	mov    eax,DWORD PTR [ebp-0x1ea]
  100165:	83 ec 04             	sub    esp,0x4
  100168:	57                   	push   edi
  100169:	56                   	push   esi
  10016a:	53                   	push   ebx
  10016b:	51                   	push   ecx
  10016c:	52                   	push   edx
  10016d:	50                   	push   eax
  10016e:	68 3c 90 10 00       	push   0x10903c
  100173:	e8 5e 14 00 00       	call   1015d6 <printf>
  100178:	83 c4 20             	add    esp,0x20
  10017b:	83 ec 08             	sub    esp,0x8
  10017e:	6a 02                	push   0x2
  100180:	6a 06                	push   0x6
  100182:	e8 bc 66 00 00       	call   106843 <_log>
  100187:	83 c4 10             	add    esp,0x10
  10018a:	85 c0                	test   eax,eax
  10018c:	74 10                	je     10019e <kernel_main+0x19e>
  10018e:	83 ec 0c             	sub    esp,0xc
  100191:	68 7d 90 10 00       	push   0x10907d
  100196:	e8 3b 14 00 00       	call   1015d6 <printf>
  10019b:	83 c4 10             	add    esp,0x10
  10019e:	83 ec 04             	sub    esp,0x4
  1001a1:	6a 00                	push   0x0
  1001a3:	8d 45 b4             	lea    eax,[ebp-0x4c]
  1001a6:	50                   	push   eax
  1001a7:	8d 85 ca fd ff ff    	lea    eax,[ebp-0x236]
  1001ad:	50                   	push   eax
  1001ae:	e8 dc 52 00 00       	call   10548f <read_block_group>
  1001b3:	83 c4 10             	add    esp,0x10
  1001b6:	83 ec 08             	sub    esp,0x8
  1001b9:	6a 02                	push   0x2
  1001bb:	6a 06                	push   0x6
  1001bd:	e8 81 66 00 00       	call   106843 <_log>
  1001c2:	83 c4 10             	add    esp,0x10
  1001c5:	85 c0                	test   eax,eax
  1001c7:	74 14                	je     1001dd <kernel_main+0x1dd>
  1001c9:	8b 45 bc             	mov    eax,DWORD PTR [ebp-0x44]
  1001cc:	83 ec 08             	sub    esp,0x8
  1001cf:	50                   	push   eax
  1001d0:	68 97 90 10 00       	push   0x109097
  1001d5:	e8 fc 13 00 00       	call   1015d6 <printf>
  1001da:	83 c4 10             	add    esp,0x10
  1001dd:	83 ec 08             	sub    esp,0x8
  1001e0:	6a 02                	push   0x2
  1001e2:	6a 06                	push   0x6
  1001e4:	e8 5a 66 00 00       	call   106843 <_log>
  1001e9:	83 c4 10             	add    esp,0x10
  1001ec:	85 c0                	test   eax,eax
  1001ee:	74 10                	je     100200 <kernel_main+0x200>
  1001f0:	83 ec 0c             	sub    esp,0xc
  1001f3:	68 a5 90 10 00       	push   0x1090a5
  1001f8:	e8 d9 13 00 00       	call   1015d6 <printf>
  1001fd:	83 c4 10             	add    esp,0x10
  100200:	83 ec 04             	sub    esp,0x4
  100203:	6a 02                	push   0x2
  100205:	8d 85 34 ff ff ff    	lea    eax,[ebp-0xcc]
  10020b:	50                   	push   eax
  10020c:	8d 85 ca fd ff ff    	lea    eax,[ebp-0x236]
  100212:	50                   	push   eax
  100213:	e8 ff 52 00 00       	call   105517 <read_inode>
  100218:	83 c4 10             	add    esp,0x10
  10021b:	0f b7 85 34 ff ff ff 	movzx  eax,WORD PTR [ebp-0xcc]
  100222:	0f b7 c0             	movzx  eax,ax
  100225:	83 ec 08             	sub    esp,0x8
  100228:	8d 95 bf fd ff ff    	lea    edx,[ebp-0x241]
  10022e:	52                   	push   edx
  10022f:	50                   	push   eax
  100230:	e8 59 59 00 00       	call   105b8e <parse_inode_type>
  100235:	83 c4 10             	add    esp,0x10
  100238:	83 ec 08             	sub    esp,0x8
  10023b:	6a 02                	push   0x2
  10023d:	6a 06                	push   0x6
  10023f:	e8 ff 65 00 00       	call   106843 <_log>
  100244:	83 c4 10             	add    esp,0x10
  100247:	85 c0                	test   eax,eax
  100249:	74 22                	je     10026d <kernel_main+0x26d>
  10024b:	8b 95 50 ff ff ff    	mov    edx,DWORD PTR [ebp-0xb0]
  100251:	8b 85 3c ff ff ff    	mov    eax,DWORD PTR [ebp-0xc4]
  100257:	52                   	push   edx
  100258:	50                   	push   eax
  100259:	8d 85 bf fd ff ff    	lea    eax,[ebp-0x241]
  10025f:	50                   	push   eax
  100260:	68 c4 90 10 00       	push   0x1090c4
  100265:	e8 6c 13 00 00       	call   1015d6 <printf>
  10026a:	83 c4 10             	add    esp,0x10
  10026d:	83 ec 08             	sub    esp,0x8
  100270:	6a 02                	push   0x2
  100272:	6a 06                	push   0x6
  100274:	e8 ca 65 00 00       	call   106843 <_log>
  100279:	83 c4 10             	add    esp,0x10
  10027c:	85 c0                	test   eax,eax
  10027e:	74 10                	je     100290 <kernel_main+0x290>
  100280:	83 ec 0c             	sub    esp,0xc
  100283:	68 e4 90 10 00       	push   0x1090e4
  100288:	e8 49 13 00 00       	call   1015d6 <printf>
  10028d:	83 c4 10             	add    esp,0x10
  100290:	83 ec 08             	sub    esp,0x8
  100293:	68 fa 90 10 00       	push   0x1090fa
  100298:	8d 85 ca fd ff ff    	lea    eax,[ebp-0x236]
  10029e:	50                   	push   eax
  10029f:	e8 a9 5c 00 00       	call   105f4d <get_path_inode>
  1002a4:	83 c4 10             	add    esp,0x10
  1002a7:	89 45 dc             	mov    DWORD PTR [ebp-0x24],eax
  1002aa:	83 ec 04             	sub    esp,0x4
  1002ad:	ff 75 dc             	push   DWORD PTR [ebp-0x24]
  1002b0:	8d 85 b4 fe ff ff    	lea    eax,[ebp-0x14c]
  1002b6:	50                   	push   eax
  1002b7:	8d 85 ca fd ff ff    	lea    eax,[ebp-0x236]
  1002bd:	50                   	push   eax
  1002be:	e8 54 52 00 00       	call   105517 <read_inode>
  1002c3:	83 c4 10             	add    esp,0x10
  1002c6:	83 ec 08             	sub    esp,0x8
  1002c9:	6a 02                	push   0x2
  1002cb:	6a 06                	push   0x6
  1002cd:	e8 71 65 00 00       	call   106843 <_log>
  1002d2:	83 c4 10             	add    esp,0x10
  1002d5:	85 c0                	test   eax,eax
  1002d7:	74 13                	je     1002ec <kernel_main+0x2ec>
  1002d9:	83 ec 08             	sub    esp,0x8
  1002dc:	ff 75 dc             	push   DWORD PTR [ebp-0x24]
  1002df:	68 08 91 10 00       	push   0x109108
  1002e4:	e8 ed 12 00 00       	call   1015d6 <printf>
  1002e9:	83 c4 10             	add    esp,0x10
  1002ec:	83 ec 0c             	sub    esp,0xc
  1002ef:	6a 00                	push   0x0
  1002f1:	e8 6a 43 00 00       	call   104660 <new_process>
  1002f6:	83 c4 10             	add    esp,0x10
  1002f9:	89 45 d8             	mov    DWORD PTR [ebp-0x28],eax
  1002fc:	83 ec 08             	sub    esp,0x8
  1002ff:	6a 02                	push   0x2
  100301:	6a 06                	push   0x6
  100303:	e8 3b 65 00 00       	call   106843 <_log>
  100308:	83 c4 10             	add    esp,0x10
  10030b:	85 c0                	test   eax,eax
  10030d:	74 17                	je     100326 <kernel_main+0x326>
  10030f:	8b 85 b8 fe ff ff    	mov    eax,DWORD PTR [ebp-0x148]
  100315:	83 ec 08             	sub    esp,0x8
  100318:	50                   	push   eax
  100319:	68 15 91 10 00       	push   0x109115
  10031e:	e8 b3 12 00 00       	call   1015d6 <printf>
  100323:	83 c4 10             	add    esp,0x10
  100326:	8b 85 d0 fe ff ff    	mov    eax,DWORD PTR [ebp-0x130]
  10032c:	c1 e0 09             	shl    eax,0x9
  10032f:	83 ec 0c             	sub    esp,0xc
  100332:	50                   	push   eax
  100333:	e8 41 23 00 00       	call   102679 <malloc>
  100338:	83 c4 10             	add    esp,0x10
  10033b:	89 45 d4             	mov    DWORD PTR [ebp-0x2c],eax
  10033e:	83 ec 08             	sub    esp,0x8
  100341:	6a 02                	push   0x2
  100343:	6a 06                	push   0x6
  100345:	e8 f9 64 00 00       	call   106843 <_log>
  10034a:	83 c4 10             	add    esp,0x10
  10034d:	85 c0                	test   eax,eax
  10034f:	74 10                	je     100361 <kernel_main+0x361>
  100351:	83 ec 0c             	sub    esp,0xc
  100354:	68 24 91 10 00       	push   0x109124
  100359:	e8 78 12 00 00       	call   1015d6 <printf>
  10035e:	83 c4 10             	add    esp,0x10
  100361:	c7 45 e4 00 00 00 00 	mov    DWORD PTR [ebp-0x1c],0x0
  100368:	eb 29                	jmp    100393 <kernel_main+0x393>
  10036a:	8b 55 d4             	mov    edx,DWORD PTR [ebp-0x2c]
  10036d:	8b 45 e4             	mov    eax,DWORD PTR [ebp-0x1c]
  100370:	01 d0                	add    eax,edx
  100372:	8b 55 e4             	mov    edx,DWORD PTR [ebp-0x1c]
  100375:	c1 ea 0a             	shr    edx,0xa
  100378:	83 ec 04             	sub    esp,0x4
  10037b:	50                   	push   eax
  10037c:	52                   	push   edx
  10037d:	8d 85 b4 fe ff ff    	lea    eax,[ebp-0x14c]
  100383:	50                   	push   eax
  100384:	e8 92 52 00 00       	call   10561b <get_block>
  100389:	83 c4 10             	add    esp,0x10
  10038c:	81 45 e4 00 04 00 00 	add    DWORD PTR [ebp-0x1c],0x400
  100393:	8b 85 b8 fe ff ff    	mov    eax,DWORD PTR [ebp-0x148]
  100399:	3b 45 e4             	cmp    eax,DWORD PTR [ebp-0x1c]
  10039c:	77 cc                	ja     10036a <kernel_main+0x36a>
  10039e:	83 ec 04             	sub    esp,0x4
  1003a1:	6a 34                	push   0x34
  1003a3:	ff 75 d4             	push   DWORD PTR [ebp-0x2c]
  1003a6:	8d 85 8b fd ff ff    	lea    eax,[ebp-0x275]
  1003ac:	50                   	push   eax
  1003ad:	e8 cc 4f 00 00       	call   10537e <memcpy>
  1003b2:	83 c4 10             	add    esp,0x10
  1003b5:	83 ec 08             	sub    esp,0x8
  1003b8:	6a 02                	push   0x2
  1003ba:	6a 06                	push   0x6
  1003bc:	e8 82 64 00 00       	call   106843 <_log>
  1003c1:	83 c4 10             	add    esp,0x10
  1003c4:	85 c0                	test   eax,eax
  1003c6:	74 10                	je     1003d8 <kernel_main+0x3d8>
  1003c8:	83 ec 0c             	sub    esp,0xc
  1003cb:	68 3b 91 10 00       	push   0x10913b
  1003d0:	e8 01 12 00 00       	call   1015d6 <printf>
  1003d5:	83 c4 10             	add    esp,0x10
  1003d8:	c7 45 e4 00 00 00 00 	mov    DWORD PTR [ebp-0x1c],0x0
  1003df:	e9 2c 01 00 00       	jmp    100510 <kernel_main+0x510>
  1003e4:	0f b7 85 b5 fd ff ff 	movzx  eax,WORD PTR [ebp-0x24b]
  1003eb:	0f b7 c0             	movzx  eax,ax
  1003ee:	8b 8d a7 fd ff ff    	mov    ecx,DWORD PTR [ebp-0x259]
  1003f4:	0f b7 95 b5 fd ff ff 	movzx  edx,WORD PTR [ebp-0x24b]
  1003fb:	0f b7 d2             	movzx  edx,dx
  1003fe:	0f af 55 e4          	imul   edx,DWORD PTR [ebp-0x1c]
  100402:	01 d1                	add    ecx,edx
  100404:	8b 55 d4             	mov    edx,DWORD PTR [ebp-0x2c]
  100407:	01 ca                	add    edx,ecx
  100409:	83 ec 04             	sub    esp,0x4
  10040c:	50                   	push   eax
  10040d:	52                   	push   edx
  10040e:	8d 85 6b fd ff ff    	lea    eax,[ebp-0x295]
  100414:	50                   	push   eax
  100415:	e8 64 4f 00 00       	call   10537e <memcpy>
  10041a:	83 c4 10             	add    esp,0x10
  10041d:	83 ec 08             	sub    esp,0x8
  100420:	6a 02                	push   0x2
  100422:	6a 06                	push   0x6
  100424:	e8 1a 64 00 00       	call   106843 <_log>
  100429:	83 c4 10             	add    esp,0x10
  10042c:	85 c0                	test   eax,eax
  10042e:	74 28                	je     100458 <kernel_main+0x458>
  100430:	8b 8d 73 fd ff ff    	mov    ecx,DWORD PTR [ebp-0x28d]
  100436:	8b 95 7f fd ff ff    	mov    edx,DWORD PTR [ebp-0x281]
  10043c:	8b 85 6b fd ff ff    	mov    eax,DWORD PTR [ebp-0x295]
  100442:	83 ec 0c             	sub    esp,0xc
  100445:	51                   	push   ecx
  100446:	52                   	push   edx
  100447:	50                   	push   eax
  100448:	ff 75 e4             	push   DWORD PTR [ebp-0x1c]
  10044b:	68 54 91 10 00       	push   0x109154
  100450:	e8 81 11 00 00       	call   1015d6 <printf>
  100455:	83 c4 20             	add    esp,0x20
  100458:	c7 45 e0 00 00 00 00 	mov    DWORD PTR [ebp-0x20],0x0
  10045f:	eb 77                	jmp    1004d8 <kernel_main+0x4d8>
  100461:	8b 95 73 fd ff ff    	mov    edx,DWORD PTR [ebp-0x28d]
  100467:	8b 45 e0             	mov    eax,DWORD PTR [ebp-0x20]
  10046a:	01 d0                	add    eax,edx
  10046c:	c1 e8 0c             	shr    eax,0xc
  10046f:	89 c3                	mov    ebx,eax
  100471:	83 ec 0c             	sub    esp,0xc
  100474:	ff 75 d8             	push   DWORD PTR [ebp-0x28]
  100477:	e8 00 45 00 00       	call   10497c <get_process_pt>
  10047c:	83 c4 10             	add    esp,0x10
  10047f:	83 ec 04             	sub    esp,0x4
  100482:	6a 01                	push   0x1
  100484:	53                   	push   ebx
  100485:	50                   	push   eax
  100486:	e8 c4 2f 00 00       	call   10344f <nonid_page>
  10048b:	83 c4 10             	add    esp,0x10
  10048e:	83 ec 08             	sub    esp,0x8
  100491:	6a 02                	push   0x2
  100493:	6a 06                	push   0x6
  100495:	e8 a9 63 00 00       	call   106843 <_log>
  10049a:	83 c4 10             	add    esp,0x10
  10049d:	85 c0                	test   eax,eax
  10049f:	74 30                	je     1004d1 <kernel_main+0x4d1>
  1004a1:	8b 95 73 fd ff ff    	mov    edx,DWORD PTR [ebp-0x28d]
  1004a7:	8b 45 e0             	mov    eax,DWORD PTR [ebp-0x20]
  1004aa:	01 d0                	add    eax,edx
  1004ac:	c1 e8 16             	shr    eax,0x16
  1004af:	89 c2                	mov    edx,eax
  1004b1:	8b 8d 73 fd ff ff    	mov    ecx,DWORD PTR [ebp-0x28d]
  1004b7:	8b 45 e0             	mov    eax,DWORD PTR [ebp-0x20]
  1004ba:	01 c8                	add    eax,ecx
  1004bc:	c1 e8 0c             	shr    eax,0xc
  1004bf:	83 ec 04             	sub    esp,0x4
  1004c2:	52                   	push   edx
  1004c3:	50                   	push   eax
  1004c4:	68 83 91 10 00       	push   0x109183
  1004c9:	e8 08 11 00 00       	call   1015d6 <printf>
  1004ce:	83 c4 10             	add    esp,0x10
  1004d1:	81 45 e0 00 10 00 00 	add    DWORD PTR [ebp-0x20],0x1000
  1004d8:	8b 85 7f fd ff ff    	mov    eax,DWORD PTR [ebp-0x281]
  1004de:	3b 45 e0             	cmp    eax,DWORD PTR [ebp-0x20]
  1004e1:	0f 87 7a ff ff ff    	ja     100461 <kernel_main+0x461>
  1004e7:	8b 85 7b fd ff ff    	mov    eax,DWORD PTR [ebp-0x285]
  1004ed:	8b 8d 6f fd ff ff    	mov    ecx,DWORD PTR [ebp-0x291]
  1004f3:	8b 55 d4             	mov    edx,DWORD PTR [ebp-0x2c]
  1004f6:	01 ca                	add    edx,ecx
  1004f8:	8b 8d 73 fd ff ff    	mov    ecx,DWORD PTR [ebp-0x28d]
  1004fe:	83 ec 04             	sub    esp,0x4
  100501:	50                   	push   eax
  100502:	52                   	push   edx
  100503:	51                   	push   ecx
  100504:	e8 75 4e 00 00       	call   10537e <memcpy>
  100509:	83 c4 10             	add    esp,0x10
  10050c:	83 45 e4 01          	add    DWORD PTR [ebp-0x1c],0x1
  100510:	0f b7 85 b7 fd ff ff 	movzx  eax,WORD PTR [ebp-0x249]
  100517:	0f b7 c0             	movzx  eax,ax
  10051a:	3b 45 e4             	cmp    eax,DWORD PTR [ebp-0x1c]
  10051d:	0f 87 c1 fe ff ff    	ja     1003e4 <kernel_main+0x3e4>
  100523:	8b 85 a3 fd ff ff    	mov    eax,DWORD PTR [ebp-0x25d]
  100529:	83 ec 08             	sub    esp,0x8
  10052c:	50                   	push   eax
  10052d:	ff 75 d8             	push   DWORD PTR [ebp-0x28]
  100530:	e8 21 47 00 00       	call   104c56 <set_process_entry>
  100535:	83 c4 10             	add    esp,0x10
  100538:	83 ec 08             	sub    esp,0x8
  10053b:	6a 02                	push   0x2
  10053d:	6a 06                	push   0x6
  10053f:	e8 ff 62 00 00       	call   106843 <_log>
  100544:	83 c4 10             	add    esp,0x10
  100547:	85 c0                	test   eax,eax
  100549:	74 17                	je     100562 <kernel_main+0x562>
  10054b:	8b 85 a3 fd ff ff    	mov    eax,DWORD PTR [ebp-0x25d]
  100551:	83 ec 08             	sub    esp,0x8
  100554:	50                   	push   eax
  100555:	68 9f 91 10 00       	push   0x10919f
  10055a:	e8 77 10 00 00       	call   1015d6 <printf>
  10055f:	83 c4 10             	add    esp,0x10
  100562:	e8 c5 04 00 00       	call   100a2c <vga_clear_text>
  100567:	e8 24 5c 00 00       	call   106190 <setup_keyboard>
  10056c:	83 ec 08             	sub    esp,0x8
  10056f:	6a 02                	push   0x2
  100571:	6a 06                	push   0x6
  100573:	e8 cb 62 00 00       	call   106843 <_log>
  100578:	83 c4 10             	add    esp,0x10
  10057b:	85 c0                	test   eax,eax
  10057d:	74 10                	je     10058f <kernel_main+0x58f>
  10057f:	83 ec 0c             	sub    esp,0xc
  100582:	68 ac 91 10 00       	push   0x1091ac
  100587:	e8 4a 10 00 00       	call   1015d6 <printf>
  10058c:	83 c4 10             	add    esp,0x10
  10058f:	e8 fe 3e 00 00       	call   104492 <init_syscall>
  100594:	83 ec 08             	sub    esp,0x8
  100597:	6a 02                	push   0x2
  100599:	6a 06                	push   0x6
  10059b:	e8 a3 62 00 00       	call   106843 <_log>
  1005a0:	83 c4 10             	add    esp,0x10
  1005a3:	85 c0                	test   eax,eax
  1005a5:	74 10                	je     1005b7 <kernel_main+0x5b7>
  1005a7:	83 ec 0c             	sub    esp,0xc
  1005aa:	68 ce 91 10 00       	push   0x1091ce
  1005af:	e8 22 10 00 00       	call   1015d6 <printf>
  1005b4:	83 c4 10             	add    esp,0x10
  1005b7:	e8 4e 63 00 00       	call   10690a <fs_init>
  1005bc:	83 ec 08             	sub    esp,0x8
  1005bf:	6a 02                	push   0x2
  1005c1:	6a 06                	push   0x6
  1005c3:	e8 7b 62 00 00       	call   106843 <_log>
  1005c8:	83 c4 10             	add    esp,0x10
  1005cb:	85 c0                	test   eax,eax
  1005cd:	74 10                	je     1005df <kernel_main+0x5df>
  1005cf:	83 ec 0c             	sub    esp,0xc
  1005d2:	68 e7 91 10 00       	push   0x1091e7
  1005d7:	e8 fa 0f 00 00       	call   1015d6 <printf>
  1005dc:	83 c4 10             	add    esp,0x10
  1005df:	e8 53 40 00 00       	call   104637 <enable_mt>
  1005e4:	f4                   	hlt    
  1005e5:	fa                   	cli    
  1005e6:	eb fc                	jmp    1005e4 <kernel_main+0x5e4>

001005e8 <init_vga>:
  1005e8:	55                   	push   ebp
  1005e9:	89 e5                	mov    ebp,esp
  1005eb:	83 ec 10             	sub    esp,0x10
  1005ee:	c7 45 f8 00 00 00 00 	mov    DWORD PTR [ebp-0x8],0x0
  1005f5:	eb 3b                	jmp    100632 <init_vga+0x4a>
  1005f7:	c7 45 fc 00 00 00 00 	mov    DWORD PTR [ebp-0x4],0x0
  1005fe:	eb 25                	jmp    100625 <init_vga+0x3d>
  100600:	8b 0d 00 c0 10 00    	mov    ecx,DWORD PTR ds:0x10c000
  100606:	8b 45 f8             	mov    eax,DWORD PTR [ebp-0x8]
  100609:	c1 e0 0a             	shl    eax,0xa
  10060c:	89 c2                	mov    edx,eax
  10060e:	8b 45 fc             	mov    eax,DWORD PTR [ebp-0x4]
  100611:	01 c2                	add    edx,eax
  100613:	89 d0                	mov    eax,edx
  100615:	01 c0                	add    eax,eax
  100617:	01 d0                	add    eax,edx
  100619:	01 c8                	add    eax,ecx
  10061b:	c7 00 00 00 00 00    	mov    DWORD PTR [eax],0x0
  100621:	83 45 fc 01          	add    DWORD PTR [ebp-0x4],0x1
  100625:	81 7d fc ff 03 00 00 	cmp    DWORD PTR [ebp-0x4],0x3ff
  10062c:	7e d2                	jle    100600 <init_vga+0x18>
  10062e:	83 45 f8 01          	add    DWORD PTR [ebp-0x8],0x1
  100632:	81 7d f8 ff 02 00 00 	cmp    DWORD PTR [ebp-0x8],0x2ff
  100639:	7e bc                	jle    1005f7 <init_vga+0xf>
  10063b:	90                   	nop
  10063c:	c9                   	leave  
  10063d:	c3                   	ret    

0010063e <vga_clear>:
  10063e:	55                   	push   ebp
  10063f:	89 e5                	mov    ebp,esp
  100641:	83 ec 10             	sub    esp,0x10
  100644:	c7 45 f8 00 00 00 00 	mov    DWORD PTR [ebp-0x8],0x0
  10064b:	eb 3b                	jmp    100688 <vga_clear+0x4a>
  10064d:	c7 45 fc 00 00 00 00 	mov    DWORD PTR [ebp-0x4],0x0
  100654:	eb 25                	jmp    10067b <vga_clear+0x3d>
  100656:	8b 0d 00 c0 10 00    	mov    ecx,DWORD PTR ds:0x10c000
  10065c:	8b 45 f8             	mov    eax,DWORD PTR [ebp-0x8]
  10065f:	c1 e0 0a             	shl    eax,0xa
  100662:	89 c2                	mov    edx,eax
  100664:	8b 45 fc             	mov    eax,DWORD PTR [ebp-0x4]
  100667:	01 c2                	add    edx,eax
  100669:	89 d0                	mov    eax,edx
  10066b:	01 c0                	add    eax,eax
  10066d:	01 d0                	add    eax,edx
  10066f:	01 c8                	add    eax,ecx
  100671:	c7 00 00 00 00 00    	mov    DWORD PTR [eax],0x0
  100677:	83 45 fc 01          	add    DWORD PTR [ebp-0x4],0x1
  10067b:	81 7d fc ff 03 00 00 	cmp    DWORD PTR [ebp-0x4],0x3ff
  100682:	7e d2                	jle    100656 <vga_clear+0x18>
  100684:	83 45 f8 01          	add    DWORD PTR [ebp-0x8],0x1
  100688:	81 7d f8 ff 02 00 00 	cmp    DWORD PTR [ebp-0x8],0x2ff
  10068f:	7e bc                	jle    10064d <vga_clear+0xf>
  100691:	c9                   	leave  
  100692:	c3                   	ret    

00100693 <vga_write_pix>:
  100693:	55                   	push   ebp
  100694:	89 e5                	mov    ebp,esp
  100696:	83 ec 10             	sub    esp,0x10
  100699:	8b 0d 00 c0 10 00    	mov    ecx,DWORD PTR ds:0x10c000
  10069f:	8b 45 0c             	mov    eax,DWORD PTR [ebp+0xc]
  1006a2:	c1 e0 0a             	shl    eax,0xa
  1006a5:	89 c2                	mov    edx,eax
  1006a7:	8b 45 08             	mov    eax,DWORD PTR [ebp+0x8]
  1006aa:	01 c2                	add    edx,eax
  1006ac:	89 d0                	mov    eax,edx
  1006ae:	01 c0                	add    eax,eax
  1006b0:	01 d0                	add    eax,edx
  1006b2:	01 c8                	add    eax,ecx
  1006b4:	89 45 fc             	mov    DWORD PTR [ebp-0x4],eax
  1006b7:	8b 45 fc             	mov    eax,DWORD PTR [ebp-0x4]
  1006ba:	8b 00                	mov    eax,DWORD PTR [eax]
  1006bc:	25 00 00 00 ff       	and    eax,0xff000000
  1006c1:	89 c2                	mov    edx,eax
  1006c3:	8b 45 fc             	mov    eax,DWORD PTR [ebp-0x4]
  1006c6:	89 10                	mov    DWORD PTR [eax],edx
  1006c8:	8b 45 fc             	mov    eax,DWORD PTR [ebp-0x4]
  1006cb:	8b 10                	mov    edx,DWORD PTR [eax]
  1006cd:	8b 45 10             	mov    eax,DWORD PTR [ebp+0x10]
  1006d0:	09 c2                	or     edx,eax
  1006d2:	8b 45 fc             	mov    eax,DWORD PTR [ebp-0x4]
  1006d5:	89 10                	mov    DWORD PTR [eax],edx
  1006d7:	c9                   	leave  
  1006d8:	c3                   	ret    

001006d9 <vga_get_pix>:
  1006d9:	55                   	push   ebp
  1006da:	89 e5                	mov    ebp,esp
  1006dc:	83 ec 10             	sub    esp,0x10
  1006df:	8b 0d 00 c0 10 00    	mov    ecx,DWORD PTR ds:0x10c000
  1006e5:	8b 45 0c             	mov    eax,DWORD PTR [ebp+0xc]
  1006e8:	c1 e0 0a             	shl    eax,0xa
  1006eb:	89 c2                	mov    edx,eax
  1006ed:	8b 45 08             	mov    eax,DWORD PTR [ebp+0x8]
  1006f0:	01 c2                	add    edx,eax
  1006f2:	89 d0                	mov    eax,edx
  1006f4:	01 c0                	add    eax,eax
  1006f6:	01 d0                	add    eax,edx
  1006f8:	01 c8                	add    eax,ecx
  1006fa:	89 45 fc             	mov    DWORD PTR [ebp-0x4],eax
  1006fd:	8b 45 fc             	mov    eax,DWORD PTR [ebp-0x4]
  100700:	83 c0 01             	add    eax,0x1
  100703:	89 45 f8             	mov    DWORD PTR [ebp-0x8],eax
  100706:	8b 45 fc             	mov    eax,DWORD PTR [ebp-0x4]
  100709:	83 c0 02             	add    eax,0x2
  10070c:	89 45 f4             	mov    DWORD PTR [ebp-0xc],eax
  10070f:	8b 45 fc             	mov    eax,DWORD PTR [ebp-0x4]
  100712:	0f b6 00             	movzx  eax,BYTE PTR [eax]
  100715:	0f b6 c0             	movzx  eax,al
  100718:	89 45 f0             	mov    DWORD PTR [ebp-0x10],eax
  10071b:	8b 45 f8             	mov    eax,DWORD PTR [ebp-0x8]
  10071e:	0f b6 00             	movzx  eax,BYTE PTR [eax]
  100721:	0f b6 c0             	movzx  eax,al
  100724:	c1 e0 08             	shl    eax,0x8
  100727:	09 45 f0             	or     DWORD PTR [ebp-0x10],eax
  10072a:	8b 45 f4             	mov    eax,DWORD PTR [ebp-0xc]
  10072d:	0f b6 00             	movzx  eax,BYTE PTR [eax]
  100730:	0f b6 c0             	movzx  eax,al
  100733:	c1 e0 10             	shl    eax,0x10
  100736:	09 45 f0             	or     DWORD PTR [ebp-0x10],eax
  100739:	8b 45 f0             	mov    eax,DWORD PTR [ebp-0x10]
  10073c:	c9                   	leave  
  10073d:	c3                   	ret    

0010073e <vga_set_palette>:
  10073e:	55                   	push   ebp
  10073f:	89 e5                	mov    ebp,esp
  100741:	83 ec 18             	sub    esp,0x18
  100744:	8b 4d 0c             	mov    ecx,DWORD PTR [ebp+0xc]
  100747:	8b 55 10             	mov    edx,DWORD PTR [ebp+0x10]
  10074a:	8b 45 14             	mov    eax,DWORD PTR [ebp+0x14]
  10074d:	88 4d f4             	mov    BYTE PTR [ebp-0xc],cl
  100750:	88 55 f0             	mov    BYTE PTR [ebp-0x10],dl
  100753:	88 45 ec             	mov    BYTE PTR [ebp-0x14],al
  100756:	8b 45 08             	mov    eax,DWORD PTR [ebp+0x8]
  100759:	0f b6 c0             	movzx  eax,al
  10075c:	83 ec 08             	sub    esp,0x8
  10075f:	50                   	push   eax
  100760:	68 c8 03 00 00       	push   0x3c8
  100765:	e8 44 00 00 00       	call   1007ae <outb>
  10076a:	83 c4 10             	add    esp,0x10
  10076d:	0f b6 45 f4          	movzx  eax,BYTE PTR [ebp-0xc]
  100771:	83 ec 08             	sub    esp,0x8
  100774:	50                   	push   eax
  100775:	68 c9 03 00 00       	push   0x3c9
  10077a:	e8 2f 00 00 00       	call   1007ae <outb>
  10077f:	83 c4 10             	add    esp,0x10
  100782:	0f b6 45 f0          	movzx  eax,BYTE PTR [ebp-0x10]
  100786:	83 ec 08             	sub    esp,0x8
  100789:	50                   	push   eax
  10078a:	68 c9 03 00 00       	push   0x3c9
  10078f:	e8 1a 00 00 00       	call   1007ae <outb>
  100794:	83 c4 10             	add    esp,0x10
  100797:	0f b6 45 ec          	movzx  eax,BYTE PTR [ebp-0x14]
  10079b:	83 ec 08             	sub    esp,0x8
  10079e:	50                   	push   eax
  10079f:	68 c9 03 00 00       	push   0x3c9
  1007a4:	e8 05 00 00 00       	call   1007ae <outb>
  1007a9:	83 c4 10             	add    esp,0x10
  1007ac:	c9                   	leave  
  1007ad:	c3                   	ret    

001007ae <outb>:
  1007ae:	55                   	push   ebp
  1007af:	89 e5                	mov    ebp,esp
  1007b1:	83 ec 08             	sub    esp,0x8
  1007b4:	8b 55 08             	mov    edx,DWORD PTR [ebp+0x8]
  1007b7:	8b 45 0c             	mov    eax,DWORD PTR [ebp+0xc]
  1007ba:	66 89 55 fc          	mov    WORD PTR [ebp-0x4],dx
  1007be:	88 45 f8             	mov    BYTE PTR [ebp-0x8],al
  1007c1:	0f b6 45 f8          	movzx  eax,BYTE PTR [ebp-0x8]
  1007c5:	0f b7 55 fc          	movzx  edx,WORD PTR [ebp-0x4]
  1007c9:	ee                   	out    dx,al
  1007ca:	c9                   	leave  
  1007cb:	c3                   	ret    

001007cc <inb>:
  1007cc:	55                   	push   ebp
  1007cd:	89 e5                	mov    ebp,esp
  1007cf:	83 ec 14             	sub    esp,0x14
  1007d2:	8b 45 08             	mov    eax,DWORD PTR [ebp+0x8]
  1007d5:	66 89 45 ec          	mov    WORD PTR [ebp-0x14],ax
  1007d9:	0f b7 45 ec          	movzx  eax,WORD PTR [ebp-0x14]
  1007dd:	89 c2                	mov    edx,eax
  1007df:	ec                   	in     al,dx
  1007e0:	88 45 ff             	mov    BYTE PTR [ebp-0x1],al
  1007e3:	0f b6 45 ff          	movzx  eax,BYTE PTR [ebp-0x1]
  1007e7:	c9                   	leave  
  1007e8:	c3                   	ret    

001007e9 <outw>:
  1007e9:	55                   	push   ebp
  1007ea:	89 e5                	mov    ebp,esp
  1007ec:	83 ec 08             	sub    esp,0x8
  1007ef:	8b 55 08             	mov    edx,DWORD PTR [ebp+0x8]
  1007f2:	8b 45 0c             	mov    eax,DWORD PTR [ebp+0xc]
  1007f5:	66 89 55 fc          	mov    WORD PTR [ebp-0x4],dx
  1007f9:	66 89 45 f8          	mov    WORD PTR [ebp-0x8],ax
  1007fd:	0f b7 45 f8          	movzx  eax,WORD PTR [ebp-0x8]
  100801:	0f b7 55 fc          	movzx  edx,WORD PTR [ebp-0x4]
  100805:	66 ef                	out    dx,ax
  100807:	c9                   	leave  
  100808:	c3                   	ret    

00100809 <inw>:
  100809:	55                   	push   ebp
  10080a:	89 e5                	mov    ebp,esp
  10080c:	83 ec 14             	sub    esp,0x14
  10080f:	8b 45 08             	mov    eax,DWORD PTR [ebp+0x8]
  100812:	66 89 45 ec          	mov    WORD PTR [ebp-0x14],ax
  100816:	0f b7 45 ec          	movzx  eax,WORD PTR [ebp-0x14]
  10081a:	89 c2                	mov    edx,eax
  10081c:	66 ed                	in     ax,dx
  10081e:	66 89 45 fe          	mov    WORD PTR [ebp-0x2],ax
  100822:	0f b7 45 fe          	movzx  eax,WORD PTR [ebp-0x2]
  100826:	c9                   	leave  
  100827:	c3                   	ret    

00100828 <init_vgatext>:
  100828:	55                   	push   ebp
  100829:	89 e5                	mov    ebp,esp
  10082b:	53                   	push   ebx
  10082c:	83 ec 04             	sub    esp,0x4
  10082f:	83 ec 04             	sub    esp,0x4
  100832:	68 c0 e0 10 12       	push   0x1210e0c0
  100837:	68 c0 e0 10 00       	push   0x10e0c0
  10083c:	68 40 92 10 00       	push   0x109240
  100841:	e8 90 0d 00 00       	call   1015d6 <printf>
  100846:	83 c4 10             	add    esp,0x10
  100849:	c7 05 0c e0 10 00 00 	mov    DWORD PTR ds:0x10e00c,0x0
  100850:	00 00 00 
  100853:	e9 ca 00 00 00       	jmp    100922 <init_vgatext+0xfa>
  100858:	c7 05 04 e0 10 00 00 	mov    DWORD PTR ds:0x10e004,0x0
  10085f:	00 00 00 
  100862:	e9 a0 00 00 00       	jmp    100907 <init_vgatext+0xdf>
  100867:	8b 15 0c e0 10 00    	mov    edx,DWORD PTR ds:0x10e00c
  10086d:	8b 0d 04 e0 10 00    	mov    ecx,DWORD PTR ds:0x10e004
  100873:	89 d0                	mov    eax,edx
  100875:	01 c0                	add    eax,eax
  100877:	01 d0                	add    eax,edx
  100879:	c1 e0 05             	shl    eax,0x5
  10087c:	01 c8                	add    eax,ecx
  10087e:	c1 e0 04             	shl    eax,0x4
  100881:	05 c0 e0 10 00       	add    eax,0x10e0c0
  100886:	c6 00 20             	mov    BYTE PTR [eax],0x20
  100889:	8b 15 0c e0 10 00    	mov    edx,DWORD PTR ds:0x10e00c
  10088f:	8b 0d 04 e0 10 00    	mov    ecx,DWORD PTR ds:0x10e004
  100895:	bb a1 a1 93 00       	mov    ebx,0x93a1a1
  10089a:	89 d0                	mov    eax,edx
  10089c:	01 c0                	add    eax,eax
  10089e:	01 d0                	add    eax,edx
  1008a0:	c1 e0 05             	shl    eax,0x5
  1008a3:	01 c8                	add    eax,ecx
  1008a5:	c1 e0 04             	shl    eax,0x4
  1008a8:	05 c0 e0 10 00       	add    eax,0x10e0c0
  1008ad:	89 58 04             	mov    DWORD PTR [eax+0x4],ebx
  1008b0:	8b 15 0c e0 10 00    	mov    edx,DWORD PTR ds:0x10e00c
  1008b6:	8b 0d 04 e0 10 00    	mov    ecx,DWORD PTR ds:0x10e004
  1008bc:	bb 42 36 07 00       	mov    ebx,0x73642
  1008c1:	89 d0                	mov    eax,edx
  1008c3:	01 c0                	add    eax,eax
  1008c5:	01 d0                	add    eax,edx
  1008c7:	c1 e0 05             	shl    eax,0x5
  1008ca:	01 c8                	add    eax,ecx
  1008cc:	c1 e0 04             	shl    eax,0x4
  1008cf:	05 c0 e0 10 00       	add    eax,0x10e0c0
  1008d4:	89 58 08             	mov    DWORD PTR [eax+0x8],ebx
  1008d7:	8b 15 0c e0 10 00    	mov    edx,DWORD PTR ds:0x10e00c
  1008dd:	8b 0d 04 e0 10 00    	mov    ecx,DWORD PTR ds:0x10e004
  1008e3:	89 d0                	mov    eax,edx
  1008e5:	01 c0                	add    eax,eax
  1008e7:	01 d0                	add    eax,edx
  1008e9:	c1 e0 05             	shl    eax,0x5
  1008ec:	01 c8                	add    eax,ecx
  1008ee:	c1 e0 04             	shl    eax,0x4
  1008f1:	05 c0 e0 10 00       	add    eax,0x10e0c0
  1008f6:	c6 40 0c 01          	mov    BYTE PTR [eax+0xc],0x1
  1008fa:	a1 04 e0 10 00       	mov    eax,ds:0x10e004
  1008ff:	83 c0 01             	add    eax,0x1
  100902:	a3 04 e0 10 00       	mov    ds:0x10e004,eax
  100907:	a1 04 e0 10 00       	mov    eax,ds:0x10e004
  10090c:	83 f8 5f             	cmp    eax,0x5f
  10090f:	0f 86 52 ff ff ff    	jbe    100867 <init_vgatext+0x3f>
  100915:	a1 0c e0 10 00       	mov    eax,ds:0x10e00c
  10091a:	83 c0 01             	add    eax,0x1
  10091d:	a3 0c e0 10 00       	mov    ds:0x10e00c,eax
  100922:	a1 0c e0 10 00       	mov    eax,ds:0x10e00c
  100927:	83 f8 7f             	cmp    eax,0x7f
  10092a:	0f 86 28 ff ff ff    	jbe    100858 <init_vgatext+0x30>
  100930:	c7 05 c4 e0 13 00 80 	mov    DWORD PTR ds:0x13e0c4,0x80
  100937:	00 00 00 
  10093a:	c7 05 88 e0 10 00 5f 	mov    DWORD PTR ds:0x10e088,0x5f
  100941:	00 00 00 
  100944:	c7 05 c0 e0 13 00 00 	mov    DWORD PTR ds:0x13e0c0,0x0
  10094b:	00 00 00 
  10094e:	a1 c0 e0 13 00       	mov    eax,ds:0x13e0c0
  100953:	a3 80 e0 10 00       	mov    ds:0x10e080,eax
  100958:	c7 05 04 e0 10 00 00 	mov    DWORD PTR ds:0x10e004,0x0
  10095f:	00 00 00 
  100962:	a1 04 e0 10 00       	mov    eax,ds:0x10e004
  100967:	a3 0c e0 10 00       	mov    ds:0x10e00c,eax
  10096c:	b8 a1 a1 93 00       	mov    eax,0x93a1a1
  100971:	a3 8c e0 10 00       	mov    ds:0x10e08c,eax
  100976:	b8 42 36 07 00       	mov    eax,0x73642
  10097b:	a3 00 e0 10 00       	mov    ds:0x10e000,eax
  100980:	c7 05 a4 f8 17 00 00 	mov    DWORD PTR ds:0x17f8a4,0x0
  100987:	00 00 00 
  10098a:	8b 5d fc             	mov    ebx,DWORD PTR [ebp-0x4]
  10098d:	c9                   	leave  
  10098e:	c3                   	ret    

0010098f <vga_addch>:
  10098f:	55                   	push   ebp
  100990:	89 e5                	mov    ebp,esp
  100992:	8b 45 10             	mov    eax,DWORD PTR [ebp+0x10]
  100995:	89 c1                	mov    ecx,eax
  100997:	8b 55 08             	mov    edx,DWORD PTR [ebp+0x8]
  10099a:	89 d0                	mov    eax,edx
  10099c:	01 c0                	add    eax,eax
  10099e:	01 d0                	add    eax,edx
  1009a0:	c1 e0 05             	shl    eax,0x5
  1009a3:	8b 55 0c             	mov    edx,DWORD PTR [ebp+0xc]
  1009a6:	01 d0                	add    eax,edx
  1009a8:	c1 e0 04             	shl    eax,0x4
  1009ab:	05 c0 e0 10 00       	add    eax,0x10e0c0
  1009b0:	88 08                	mov    BYTE PTR [eax],cl
  1009b2:	a1 8c e0 10 00       	mov    eax,ds:0x10e08c
  1009b7:	89 c1                	mov    ecx,eax
  1009b9:	8b 55 08             	mov    edx,DWORD PTR [ebp+0x8]
  1009bc:	89 d0                	mov    eax,edx
  1009be:	01 c0                	add    eax,eax
  1009c0:	01 d0                	add    eax,edx
  1009c2:	c1 e0 05             	shl    eax,0x5
  1009c5:	8b 55 0c             	mov    edx,DWORD PTR [ebp+0xc]
  1009c8:	01 d0                	add    eax,edx
  1009ca:	c1 e0 04             	shl    eax,0x4
  1009cd:	05 c0 e0 10 00       	add    eax,0x10e0c0
  1009d2:	89 48 04             	mov    DWORD PTR [eax+0x4],ecx
  1009d5:	a1 00 e0 10 00       	mov    eax,ds:0x10e000
  1009da:	89 c1                	mov    ecx,eax
  1009dc:	8b 55 08             	mov    edx,DWORD PTR [ebp+0x8]
  1009df:	89 d0                	mov    eax,edx
  1009e1:	01 c0                	add    eax,eax
  1009e3:	01 d0                	add    eax,edx
  1009e5:	c1 e0 05             	shl    eax,0x5
  1009e8:	8b 55 0c             	mov    edx,DWORD PTR [ebp+0xc]
  1009eb:	01 d0                	add    eax,edx
  1009ed:	c1 e0 04             	shl    eax,0x4
  1009f0:	05 c0 e0 10 00       	add    eax,0x10e0c0
  1009f5:	89 48 08             	mov    DWORD PTR [eax+0x8],ecx
  1009f8:	8b 55 08             	mov    edx,DWORD PTR [ebp+0x8]
  1009fb:	89 d0                	mov    eax,edx
  1009fd:	01 c0                	add    eax,eax
  1009ff:	01 d0                	add    eax,edx
  100a01:	c1 e0 05             	shl    eax,0x5
  100a04:	8b 55 0c             	mov    edx,DWORD PTR [ebp+0xc]
  100a07:	01 d0                	add    eax,edx
  100a09:	c1 e0 04             	shl    eax,0x4
  100a0c:	05 c0 e0 10 00       	add    eax,0x10e0c0
  100a11:	c6 40 0c 01          	mov    BYTE PTR [eax+0xc],0x1
  100a15:	5d                   	pop    ebp
  100a16:	c3                   	ret    

00100a17 <vga_set_color>:
  100a17:	55                   	push   ebp
  100a18:	89 e5                	mov    ebp,esp
  100a1a:	8b 45 08             	mov    eax,DWORD PTR [ebp+0x8]
  100a1d:	a3 8c e0 10 00       	mov    ds:0x10e08c,eax
  100a22:	8b 45 0c             	mov    eax,DWORD PTR [ebp+0xc]
  100a25:	a3 00 e0 10 00       	mov    ds:0x10e000,eax
  100a2a:	5d                   	pop    ebp
  100a2b:	c3                   	ret    

00100a2c <vga_clear_text>:
  100a2c:	55                   	push   ebp
  100a2d:	89 e5                	mov    ebp,esp
  100a2f:	53                   	push   ebx
  100a30:	83 ec 04             	sub    esp,0x4
  100a33:	c7 05 0c e0 10 00 00 	mov    DWORD PTR ds:0x10e00c,0x0
  100a3a:	00 00 00 
  100a3d:	e9 ce 00 00 00       	jmp    100b10 <vga_clear_text+0xe4>
  100a42:	c7 05 04 e0 10 00 00 	mov    DWORD PTR ds:0x10e004,0x0
  100a49:	00 00 00 
  100a4c:	e9 a4 00 00 00       	jmp    100af5 <vga_clear_text+0xc9>
  100a51:	8b 15 0c e0 10 00    	mov    edx,DWORD PTR ds:0x10e00c
  100a57:	8b 0d 04 e0 10 00    	mov    ecx,DWORD PTR ds:0x10e004
  100a5d:	89 d0                	mov    eax,edx
  100a5f:	01 c0                	add    eax,eax
  100a61:	01 d0                	add    eax,edx
  100a63:	c1 e0 05             	shl    eax,0x5
  100a66:	01 c8                	add    eax,ecx
  100a68:	c1 e0 04             	shl    eax,0x4
  100a6b:	05 c0 e0 10 00       	add    eax,0x10e0c0
  100a70:	c6 00 20             	mov    BYTE PTR [eax],0x20
  100a73:	8b 15 0c e0 10 00    	mov    edx,DWORD PTR ds:0x10e00c
  100a79:	8b 0d 04 e0 10 00    	mov    ecx,DWORD PTR ds:0x10e004
  100a7f:	a1 8c e0 10 00       	mov    eax,ds:0x10e08c
  100a84:	89 c3                	mov    ebx,eax
  100a86:	89 d0                	mov    eax,edx
  100a88:	01 c0                	add    eax,eax
  100a8a:	01 d0                	add    eax,edx
  100a8c:	c1 e0 05             	shl    eax,0x5
  100a8f:	01 c8                	add    eax,ecx
  100a91:	c1 e0 04             	shl    eax,0x4
  100a94:	05 c0 e0 10 00       	add    eax,0x10e0c0
  100a99:	89 58 04             	mov    DWORD PTR [eax+0x4],ebx
  100a9c:	8b 15 0c e0 10 00    	mov    edx,DWORD PTR ds:0x10e00c
  100aa2:	8b 0d 04 e0 10 00    	mov    ecx,DWORD PTR ds:0x10e004
  100aa8:	a1 00 e0 10 00       	mov    eax,ds:0x10e000
  100aad:	89 c3                	mov    ebx,eax
  100aaf:	89 d0                	mov    eax,edx
  100ab1:	01 c0                	add    eax,eax
  100ab3:	01 d0                	add    eax,edx
  100ab5:	c1 e0 05             	shl    eax,0x5
  100ab8:	01 c8                	add    eax,ecx
  100aba:	c1 e0 04             	shl    eax,0x4
  100abd:	05 c0 e0 10 00       	add    eax,0x10e0c0
  100ac2:	89 58 08             	mov    DWORD PTR [eax+0x8],ebx
  100ac5:	8b 15 0c e0 10 00    	mov    edx,DWORD PTR ds:0x10e00c
  100acb:	8b 0d 04 e0 10 00    	mov    ecx,DWORD PTR ds:0x10e004
  100ad1:	89 d0                	mov    eax,edx
  100ad3:	01 c0                	add    eax,eax
  100ad5:	01 d0                	add    eax,edx
  100ad7:	c1 e0 05             	shl    eax,0x5
  100ada:	01 c8                	add    eax,ecx
  100adc:	c1 e0 04             	shl    eax,0x4
  100adf:	05 c0 e0 10 00       	add    eax,0x10e0c0
  100ae4:	c6 40 0c 01          	mov    BYTE PTR [eax+0xc],0x1
  100ae8:	a1 04 e0 10 00       	mov    eax,ds:0x10e004
  100aed:	83 c0 01             	add    eax,0x1
  100af0:	a3 04 e0 10 00       	mov    ds:0x10e004,eax
  100af5:	a1 04 e0 10 00       	mov    eax,ds:0x10e004
  100afa:	83 f8 5f             	cmp    eax,0x5f
  100afd:	0f 86 4e ff ff ff    	jbe    100a51 <vga_clear_text+0x25>
  100b03:	a1 0c e0 10 00       	mov    eax,ds:0x10e00c
  100b08:	83 c0 01             	add    eax,0x1
  100b0b:	a3 0c e0 10 00       	mov    ds:0x10e00c,eax
  100b10:	a1 0c e0 10 00       	mov    eax,ds:0x10e00c
  100b15:	83 f8 7f             	cmp    eax,0x7f
  100b18:	0f 86 24 ff ff ff    	jbe    100a42 <vga_clear_text+0x16>
  100b1e:	c7 05 04 e0 10 00 00 	mov    DWORD PTR ds:0x10e004,0x0
  100b25:	00 00 00 
  100b28:	a1 04 e0 10 00       	mov    eax,ds:0x10e004
  100b2d:	a3 0c e0 10 00       	mov    ds:0x10e00c,eax
  100b32:	e8 2b 00 00 00       	call   100b62 <vga_redraw>
  100b37:	83 c4 04             	add    esp,0x4
  100b3a:	5b                   	pop    ebx
  100b3b:	5d                   	pop    ebp
  100b3c:	c3                   	ret    

00100b3d <vga_setwin>:
  100b3d:	55                   	push   ebp
  100b3e:	89 e5                	mov    ebp,esp
  100b40:	8b 45 08             	mov    eax,DWORD PTR [ebp+0x8]
  100b43:	a3 c4 e0 13 00       	mov    ds:0x13e0c4,eax
  100b48:	8b 45 0c             	mov    eax,DWORD PTR [ebp+0xc]
  100b4b:	a3 88 e0 10 00       	mov    ds:0x10e088,eax
  100b50:	8b 45 10             	mov    eax,DWORD PTR [ebp+0x10]
  100b53:	a3 80 e0 10 00       	mov    ds:0x10e080,eax
  100b58:	8b 45 14             	mov    eax,DWORD PTR [ebp+0x14]
  100b5b:	a3 c0 e0 13 00       	mov    ds:0x13e0c0,eax
  100b60:	5d                   	pop    ebp
  100b61:	c3                   	ret    

00100b62 <vga_redraw>:
  100b62:	55                   	push   ebp
  100b63:	89 e5                	mov    ebp,esp
  100b65:	53                   	push   ebx
  100b66:	83 ec 14             	sub    esp,0x14
  100b69:	b8 c0 e0 10 00       	mov    eax,0x10e0c0
  100b6e:	3d 00 00 00 01       	cmp    eax,0x1000000
  100b73:	7e 15                	jle    100b8a <vga_redraw+0x28>
  100b75:	83 ec 08             	sub    esp,0x8
  100b78:	68 c0 e0 10 00       	push   0x10e0c0
  100b7d:	68 51 92 10 00       	push   0x109251
  100b82:	e8 4f 0a 00 00       	call   1015d6 <printf>
  100b87:	83 c4 10             	add    esp,0x10
  100b8a:	e8 06 05 00 00       	call   101095 <vga_update_curs>
  100b8f:	c7 45 f4 00 00 00 00 	mov    DWORD PTR [ebp-0xc],0x0
  100b96:	e9 58 01 00 00       	jmp    100cf3 <vga_redraw+0x191>
  100b9b:	c7 45 f0 00 00 00 00 	mov    DWORD PTR [ebp-0x10],0x0
  100ba2:	e9 3a 01 00 00       	jmp    100ce1 <vga_redraw+0x17f>
  100ba7:	8b 55 f4             	mov    edx,DWORD PTR [ebp-0xc]
  100baa:	89 d0                	mov    eax,edx
  100bac:	01 c0                	add    eax,eax
  100bae:	01 d0                	add    eax,edx
  100bb0:	c1 e0 05             	shl    eax,0x5
  100bb3:	8b 55 f0             	mov    edx,DWORD PTR [ebp-0x10]
  100bb6:	01 d0                	add    eax,edx
  100bb8:	c1 e0 04             	shl    eax,0x4
  100bbb:	05 c0 e0 10 00       	add    eax,0x10e0c0
  100bc0:	0f b6 40 0c          	movzx  eax,BYTE PTR [eax+0xc]
  100bc4:	84 c0                	test   al,al
  100bc6:	0f 84 11 01 00 00    	je     100cdd <vga_redraw+0x17b>
  100bcc:	c7 45 e8 00 00 00 00 	mov    DWORD PTR [ebp-0x18],0x0
  100bd3:	e9 de 00 00 00       	jmp    100cb6 <vga_redraw+0x154>
  100bd8:	c7 45 ec 00 00 00 00 	mov    DWORD PTR [ebp-0x14],0x0
  100bdf:	e9 c4 00 00 00       	jmp    100ca8 <vga_redraw+0x146>
  100be4:	8b 55 f4             	mov    edx,DWORD PTR [ebp-0xc]
  100be7:	89 d0                	mov    eax,edx
  100be9:	01 c0                	add    eax,eax
  100beb:	01 d0                	add    eax,edx
  100bed:	c1 e0 05             	shl    eax,0x5
  100bf0:	8b 55 f0             	mov    edx,DWORD PTR [ebp-0x10]
  100bf3:	01 d0                	add    eax,edx
  100bf5:	c1 e0 04             	shl    eax,0x4
  100bf8:	05 c0 e0 10 00       	add    eax,0x10e0c0
  100bfd:	0f b6 00             	movzx  eax,BYTE PTR [eax]
  100c00:	0f b6 c0             	movzx  eax,al
  100c03:	8d 14 c5 00 00 00 00 	lea    edx,[eax*8+0x0]
  100c0a:	8b 45 e8             	mov    eax,DWORD PTR [ebp-0x18]
  100c0d:	01 d0                	add    eax,edx
  100c0f:	05 40 cf 10 00       	add    eax,0x10cf40
  100c14:	0f b6 00             	movzx  eax,BYTE PTR [eax]
  100c17:	0f b6 d0             	movzx  edx,al
  100c1a:	8b 45 ec             	mov    eax,DWORD PTR [ebp-0x14]
  100c1d:	89 c1                	mov    ecx,eax
  100c1f:	d3 fa                	sar    edx,cl
  100c21:	89 d0                	mov    eax,edx
  100c23:	83 e0 01             	and    eax,0x1
  100c26:	85 c0                	test   eax,eax
  100c28:	74 20                	je     100c4a <vga_redraw+0xe8>
  100c2a:	8b 55 f4             	mov    edx,DWORD PTR [ebp-0xc]
  100c2d:	89 d0                	mov    eax,edx
  100c2f:	01 c0                	add    eax,eax
  100c31:	01 d0                	add    eax,edx
  100c33:	c1 e0 05             	shl    eax,0x5
  100c36:	8b 55 f0             	mov    edx,DWORD PTR [ebp-0x10]
  100c39:	01 d0                	add    eax,edx
  100c3b:	c1 e0 04             	shl    eax,0x4
  100c3e:	05 c0 e0 10 00       	add    eax,0x10e0c0
  100c43:	8b 40 04             	mov    eax,DWORD PTR [eax+0x4]
  100c46:	89 c2                	mov    edx,eax
  100c48:	eb 1e                	jmp    100c68 <vga_redraw+0x106>
  100c4a:	8b 55 f4             	mov    edx,DWORD PTR [ebp-0xc]
  100c4d:	89 d0                	mov    eax,edx
  100c4f:	01 c0                	add    eax,eax
  100c51:	01 d0                	add    eax,edx
  100c53:	c1 e0 05             	shl    eax,0x5
  100c56:	8b 55 f0             	mov    edx,DWORD PTR [ebp-0x10]
  100c59:	01 d0                	add    eax,edx
  100c5b:	c1 e0 04             	shl    eax,0x4
  100c5e:	05 c0 e0 10 00       	add    eax,0x10e0c0
  100c63:	8b 40 08             	mov    eax,DWORD PTR [eax+0x8]
  100c66:	89 c2                	mov    edx,eax
  100c68:	8b 45 f0             	mov    eax,DWORD PTR [ebp-0x10]
  100c6b:	8d 0c c5 00 00 00 00 	lea    ecx,[eax*8+0x0]
  100c72:	8b 45 e8             	mov    eax,DWORD PTR [ebp-0x18]
  100c75:	01 c1                	add    ecx,eax
  100c77:	a1 c0 e0 13 00       	mov    eax,ds:0x13e0c0
  100c7c:	01 c8                	add    eax,ecx
  100c7e:	89 c3                	mov    ebx,eax
  100c80:	8b 45 f4             	mov    eax,DWORD PTR [ebp-0xc]
  100c83:	8d 0c c5 00 00 00 00 	lea    ecx,[eax*8+0x0]
  100c8a:	8b 45 ec             	mov    eax,DWORD PTR [ebp-0x14]
  100c8d:	01 c1                	add    ecx,eax
  100c8f:	a1 80 e0 10 00       	mov    eax,ds:0x10e080
  100c94:	01 c8                	add    eax,ecx
  100c96:	83 ec 04             	sub    esp,0x4
  100c99:	52                   	push   edx
  100c9a:	53                   	push   ebx
  100c9b:	50                   	push   eax
  100c9c:	e8 f2 f9 ff ff       	call   100693 <vga_write_pix>
  100ca1:	83 c4 10             	add    esp,0x10
  100ca4:	83 45 ec 01          	add    DWORD PTR [ebp-0x14],0x1
  100ca8:	83 7d ec 07          	cmp    DWORD PTR [ebp-0x14],0x7
  100cac:	0f 86 32 ff ff ff    	jbe    100be4 <vga_redraw+0x82>
  100cb2:	83 45 e8 01          	add    DWORD PTR [ebp-0x18],0x1
  100cb6:	83 7d e8 07          	cmp    DWORD PTR [ebp-0x18],0x7
  100cba:	0f 86 18 ff ff ff    	jbe    100bd8 <vga_redraw+0x76>
  100cc0:	8b 55 f4             	mov    edx,DWORD PTR [ebp-0xc]
  100cc3:	89 d0                	mov    eax,edx
  100cc5:	01 c0                	add    eax,eax
  100cc7:	01 d0                	add    eax,edx
  100cc9:	c1 e0 05             	shl    eax,0x5
  100ccc:	8b 55 f0             	mov    edx,DWORD PTR [ebp-0x10]
  100ccf:	01 d0                	add    eax,edx
  100cd1:	c1 e0 04             	shl    eax,0x4
  100cd4:	05 c0 e0 10 00       	add    eax,0x10e0c0
  100cd9:	c6 40 0c 00          	mov    BYTE PTR [eax+0xc],0x0
  100cdd:	83 45 f0 01          	add    DWORD PTR [ebp-0x10],0x1
  100ce1:	a1 88 e0 10 00       	mov    eax,ds:0x10e088
  100ce6:	39 45 f0             	cmp    DWORD PTR [ebp-0x10],eax
  100ce9:	0f 82 b8 fe ff ff    	jb     100ba7 <vga_redraw+0x45>
  100cef:	83 45 f4 01          	add    DWORD PTR [ebp-0xc],0x1
  100cf3:	a1 c4 e0 13 00       	mov    eax,ds:0x13e0c4
  100cf8:	39 45 f4             	cmp    DWORD PTR [ebp-0xc],eax
  100cfb:	0f 82 9a fe ff ff    	jb     100b9b <vga_redraw+0x39>
  100d01:	8b 5d fc             	mov    ebx,DWORD PTR [ebp-0x4]
  100d04:	c9                   	leave  
  100d05:	c3                   	ret    

00100d06 <vga_statchar>:
  100d06:	55                   	push   ebp
  100d07:	89 e5                	mov    ebp,esp
  100d09:	53                   	push   ebx
  100d0a:	83 ec 14             	sub    esp,0x14
  100d0d:	c7 45 f4 00 00 00 00 	mov    DWORD PTR [ebp-0xc],0x0
  100d14:	eb 73                	jmp    100d89 <vga_statchar+0x83>
  100d16:	c7 45 f0 00 00 00 00 	mov    DWORD PTR [ebp-0x10],0x0
  100d1d:	eb 60                	jmp    100d7f <vga_statchar+0x79>
  100d1f:	8b 45 08             	mov    eax,DWORD PTR [ebp+0x8]
  100d22:	8d 14 c5 00 00 00 00 	lea    edx,[eax*8+0x0]
  100d29:	8b 45 f4             	mov    eax,DWORD PTR [ebp-0xc]
  100d2c:	01 d0                	add    eax,edx
  100d2e:	05 40 cf 10 00       	add    eax,0x10cf40
  100d33:	0f b6 00             	movzx  eax,BYTE PTR [eax]
  100d36:	0f b6 d0             	movzx  edx,al
  100d39:	8b 45 f0             	mov    eax,DWORD PTR [ebp-0x10]
  100d3c:	89 c1                	mov    ecx,eax
  100d3e:	d3 fa                	sar    edx,cl
  100d40:	89 d0                	mov    eax,edx
  100d42:	83 e0 01             	and    eax,0x1
  100d45:	85 c0                	test   eax,eax
  100d47:	74 07                	je     100d50 <vga_statchar+0x4a>
  100d49:	b9 00 ff 00 00       	mov    ecx,0xff00
  100d4e:	eb 05                	jmp    100d55 <vga_statchar+0x4f>
  100d50:	b9 00 00 00 00       	mov    ecx,0x0
  100d55:	8b 45 f4             	mov    eax,DWORD PTR [ebp-0xc]
  100d58:	8d 90 f8 02 00 00    	lea    edx,[eax+0x2f8]
  100d5e:	8b 45 0c             	mov    eax,DWORD PTR [ebp+0xc]
  100d61:	8d 1c c5 00 00 00 00 	lea    ebx,[eax*8+0x0]
  100d68:	8b 45 f0             	mov    eax,DWORD PTR [ebp-0x10]
  100d6b:	01 d8                	add    eax,ebx
  100d6d:	83 ec 04             	sub    esp,0x4
  100d70:	51                   	push   ecx
  100d71:	52                   	push   edx
  100d72:	50                   	push   eax
  100d73:	e8 1b f9 ff ff       	call   100693 <vga_write_pix>
  100d78:	83 c4 10             	add    esp,0x10
  100d7b:	83 45 f0 01          	add    DWORD PTR [ebp-0x10],0x1
  100d7f:	83 7d f0 07          	cmp    DWORD PTR [ebp-0x10],0x7
  100d83:	7e 9a                	jle    100d1f <vga_statchar+0x19>
  100d85:	83 45 f4 01          	add    DWORD PTR [ebp-0xc],0x1
  100d89:	83 7d f4 07          	cmp    DWORD PTR [ebp-0xc],0x7
  100d8d:	7e 87                	jle    100d16 <vga_statchar+0x10>
  100d8f:	8b 5d fc             	mov    ebx,DWORD PTR [ebp-0x4]
  100d92:	c9                   	leave  
  100d93:	c3                   	ret    

00100d94 <vga_scroll>:
  100d94:	55                   	push   ebp
  100d95:	89 e5                	mov    ebp,esp
  100d97:	53                   	push   ebx
  100d98:	83 ec 14             	sub    esp,0x14
  100d9b:	c7 45 f4 00 00 00 00 	mov    DWORD PTR [ebp-0xc],0x0
  100da2:	e9 32 02 00 00       	jmp    100fd9 <vga_scroll+0x245>
  100da7:	c7 45 f0 00 00 00 00 	mov    DWORD PTR [ebp-0x10],0x0
  100dae:	e9 11 02 00 00       	jmp    100fc4 <vga_scroll+0x230>
  100db3:	8b 55 f4             	mov    edx,DWORD PTR [ebp-0xc]
  100db6:	89 d0                	mov    eax,edx
  100db8:	01 c0                	add    eax,eax
  100dba:	01 d0                	add    eax,edx
  100dbc:	c1 e0 05             	shl    eax,0x5
  100dbf:	8b 55 f0             	mov    edx,DWORD PTR [ebp-0x10]
  100dc2:	01 d0                	add    eax,edx
  100dc4:	c1 e0 04             	shl    eax,0x4
  100dc7:	05 c0 e0 10 00       	add    eax,0x10e0c0
  100dcc:	0f b6 08             	movzx  ecx,BYTE PTR [eax]
  100dcf:	8b 45 f0             	mov    eax,DWORD PTR [ebp-0x10]
  100dd2:	8d 58 01             	lea    ebx,[eax+0x1]
  100dd5:	8b 55 f4             	mov    edx,DWORD PTR [ebp-0xc]
  100dd8:	89 d0                	mov    eax,edx
  100dda:	01 c0                	add    eax,eax
  100ddc:	01 d0                	add    eax,edx
  100dde:	c1 e0 05             	shl    eax,0x5
  100de1:	01 d8                	add    eax,ebx
  100de3:	c1 e0 04             	shl    eax,0x4
  100de6:	05 c0 e0 10 00       	add    eax,0x10e0c0
  100deb:	0f b6 00             	movzx  eax,BYTE PTR [eax]
  100dee:	38 c1                	cmp    cl,al
  100df0:	0f 84 fd 00 00 00    	je     100ef3 <vga_scroll+0x15f>
  100df6:	c7 45 ec 00 00 00 00 	mov    DWORD PTR [ebp-0x14],0x0
  100dfd:	e9 e7 00 00 00       	jmp    100ee9 <vga_scroll+0x155>
  100e02:	c7 45 e8 00 00 00 00 	mov    DWORD PTR [ebp-0x18],0x0
  100e09:	e9 cd 00 00 00       	jmp    100edb <vga_scroll+0x147>
  100e0e:	8b 45 f0             	mov    eax,DWORD PTR [ebp-0x10]
  100e11:	8d 48 01             	lea    ecx,[eax+0x1]
  100e14:	8b 55 f4             	mov    edx,DWORD PTR [ebp-0xc]
  100e17:	89 d0                	mov    eax,edx
  100e19:	01 c0                	add    eax,eax
  100e1b:	01 d0                	add    eax,edx
  100e1d:	c1 e0 05             	shl    eax,0x5
  100e20:	01 c8                	add    eax,ecx
  100e22:	c1 e0 04             	shl    eax,0x4
  100e25:	05 c0 e0 10 00       	add    eax,0x10e0c0
  100e2a:	0f b6 00             	movzx  eax,BYTE PTR [eax]
  100e2d:	0f b6 c0             	movzx  eax,al
  100e30:	8d 14 c5 00 00 00 00 	lea    edx,[eax*8+0x0]
  100e37:	8b 45 e8             	mov    eax,DWORD PTR [ebp-0x18]
  100e3a:	01 d0                	add    eax,edx
  100e3c:	05 40 cf 10 00       	add    eax,0x10cf40
  100e41:	0f b6 00             	movzx  eax,BYTE PTR [eax]
  100e44:	0f b6 d0             	movzx  edx,al
  100e47:	8b 45 ec             	mov    eax,DWORD PTR [ebp-0x14]
  100e4a:	89 c1                	mov    ecx,eax
  100e4c:	d3 fa                	sar    edx,cl
  100e4e:	89 d0                	mov    eax,edx
  100e50:	83 e0 01             	and    eax,0x1
  100e53:	85 c0                	test   eax,eax
  100e55:	74 23                	je     100e7a <vga_scroll+0xe6>
  100e57:	8b 45 f0             	mov    eax,DWORD PTR [ebp-0x10]
  100e5a:	8d 48 01             	lea    ecx,[eax+0x1]
  100e5d:	8b 55 f4             	mov    edx,DWORD PTR [ebp-0xc]
  100e60:	89 d0                	mov    eax,edx
  100e62:	01 c0                	add    eax,eax
  100e64:	01 d0                	add    eax,edx
  100e66:	c1 e0 05             	shl    eax,0x5
  100e69:	01 c8                	add    eax,ecx
  100e6b:	c1 e0 04             	shl    eax,0x4
  100e6e:	05 c0 e0 10 00       	add    eax,0x10e0c0
  100e73:	8b 40 04             	mov    eax,DWORD PTR [eax+0x4]
  100e76:	89 c2                	mov    edx,eax
  100e78:	eb 21                	jmp    100e9b <vga_scroll+0x107>
  100e7a:	8b 45 f0             	mov    eax,DWORD PTR [ebp-0x10]
  100e7d:	8d 48 01             	lea    ecx,[eax+0x1]
  100e80:	8b 55 f4             	mov    edx,DWORD PTR [ebp-0xc]
  100e83:	89 d0                	mov    eax,edx
  100e85:	01 c0                	add    eax,eax
  100e87:	01 d0                	add    eax,edx
  100e89:	c1 e0 05             	shl    eax,0x5
  100e8c:	01 c8                	add    eax,ecx
  100e8e:	c1 e0 04             	shl    eax,0x4
  100e91:	05 c0 e0 10 00       	add    eax,0x10e0c0
  100e96:	8b 40 08             	mov    eax,DWORD PTR [eax+0x8]
  100e99:	89 c2                	mov    edx,eax
  100e9b:	8b 45 f0             	mov    eax,DWORD PTR [ebp-0x10]
  100e9e:	8d 0c c5 00 00 00 00 	lea    ecx,[eax*8+0x0]
  100ea5:	8b 45 e8             	mov    eax,DWORD PTR [ebp-0x18]
  100ea8:	01 c1                	add    ecx,eax
  100eaa:	a1 c0 e0 13 00       	mov    eax,ds:0x13e0c0
  100eaf:	01 c8                	add    eax,ecx
  100eb1:	89 c3                	mov    ebx,eax
  100eb3:	8b 45 f4             	mov    eax,DWORD PTR [ebp-0xc]
  100eb6:	8d 0c c5 00 00 00 00 	lea    ecx,[eax*8+0x0]
  100ebd:	8b 45 ec             	mov    eax,DWORD PTR [ebp-0x14]
  100ec0:	01 c1                	add    ecx,eax
  100ec2:	a1 80 e0 10 00       	mov    eax,ds:0x10e080
  100ec7:	01 c8                	add    eax,ecx
  100ec9:	83 ec 04             	sub    esp,0x4
  100ecc:	52                   	push   edx
  100ecd:	53                   	push   ebx
  100ece:	50                   	push   eax
  100ecf:	e8 bf f7 ff ff       	call   100693 <vga_write_pix>
  100ed4:	83 c4 10             	add    esp,0x10
  100ed7:	83 45 e8 01          	add    DWORD PTR [ebp-0x18],0x1
  100edb:	83 7d e8 07          	cmp    DWORD PTR [ebp-0x18],0x7
  100edf:	0f 86 29 ff ff ff    	jbe    100e0e <vga_scroll+0x7a>
  100ee5:	83 45 ec 01          	add    DWORD PTR [ebp-0x14],0x1
  100ee9:	83 7d ec 07          	cmp    DWORD PTR [ebp-0x14],0x7
  100eed:	0f 86 0f ff ff ff    	jbe    100e02 <vga_scroll+0x6e>
  100ef3:	8b 45 f0             	mov    eax,DWORD PTR [ebp-0x10]
  100ef6:	8d 48 01             	lea    ecx,[eax+0x1]
  100ef9:	8b 55 f4             	mov    edx,DWORD PTR [ebp-0xc]
  100efc:	89 d0                	mov    eax,edx
  100efe:	01 c0                	add    eax,eax
  100f00:	01 d0                	add    eax,edx
  100f02:	c1 e0 05             	shl    eax,0x5
  100f05:	01 c8                	add    eax,ecx
  100f07:	c1 e0 04             	shl    eax,0x4
  100f0a:	05 c0 e0 10 00       	add    eax,0x10e0c0
  100f0f:	0f b6 08             	movzx  ecx,BYTE PTR [eax]
  100f12:	8b 55 f4             	mov    edx,DWORD PTR [ebp-0xc]
  100f15:	89 d0                	mov    eax,edx
  100f17:	01 c0                	add    eax,eax
  100f19:	01 d0                	add    eax,edx
  100f1b:	c1 e0 05             	shl    eax,0x5
  100f1e:	8b 55 f0             	mov    edx,DWORD PTR [ebp-0x10]
  100f21:	01 d0                	add    eax,edx
  100f23:	c1 e0 04             	shl    eax,0x4
  100f26:	05 c0 e0 10 00       	add    eax,0x10e0c0
  100f2b:	88 08                	mov    BYTE PTR [eax],cl
  100f2d:	8b 45 f0             	mov    eax,DWORD PTR [ebp-0x10]
  100f30:	8d 48 01             	lea    ecx,[eax+0x1]
  100f33:	8b 55 f4             	mov    edx,DWORD PTR [ebp-0xc]
  100f36:	89 d0                	mov    eax,edx
  100f38:	01 c0                	add    eax,eax
  100f3a:	01 d0                	add    eax,edx
  100f3c:	c1 e0 05             	shl    eax,0x5
  100f3f:	01 c8                	add    eax,ecx
  100f41:	c1 e0 04             	shl    eax,0x4
  100f44:	05 c0 e0 10 00       	add    eax,0x10e0c0
  100f49:	8b 48 04             	mov    ecx,DWORD PTR [eax+0x4]
  100f4c:	8b 55 f4             	mov    edx,DWORD PTR [ebp-0xc]
  100f4f:	89 d0                	mov    eax,edx
  100f51:	01 c0                	add    eax,eax
  100f53:	01 d0                	add    eax,edx
  100f55:	c1 e0 05             	shl    eax,0x5
  100f58:	8b 55 f0             	mov    edx,DWORD PTR [ebp-0x10]
  100f5b:	01 d0                	add    eax,edx
  100f5d:	c1 e0 04             	shl    eax,0x4
  100f60:	05 c0 e0 10 00       	add    eax,0x10e0c0
  100f65:	89 48 04             	mov    DWORD PTR [eax+0x4],ecx
  100f68:	8b 45 f0             	mov    eax,DWORD PTR [ebp-0x10]
  100f6b:	8d 48 01             	lea    ecx,[eax+0x1]
  100f6e:	8b 55 f4             	mov    edx,DWORD PTR [ebp-0xc]
  100f71:	89 d0                	mov    eax,edx
  100f73:	01 c0                	add    eax,eax
  100f75:	01 d0                	add    eax,edx
  100f77:	c1 e0 05             	shl    eax,0x5
  100f7a:	01 c8                	add    eax,ecx
  100f7c:	c1 e0 04             	shl    eax,0x4
  100f7f:	05 c0 e0 10 00       	add    eax,0x10e0c0
  100f84:	8b 48 08             	mov    ecx,DWORD PTR [eax+0x8]
  100f87:	8b 55 f4             	mov    edx,DWORD PTR [ebp-0xc]
  100f8a:	89 d0                	mov    eax,edx
  100f8c:	01 c0                	add    eax,eax
  100f8e:	01 d0                	add    eax,edx
  100f90:	c1 e0 05             	shl    eax,0x5
  100f93:	8b 55 f0             	mov    edx,DWORD PTR [ebp-0x10]
  100f96:	01 d0                	add    eax,edx
  100f98:	c1 e0 04             	shl    eax,0x4
  100f9b:	05 c0 e0 10 00       	add    eax,0x10e0c0
  100fa0:	89 48 08             	mov    DWORD PTR [eax+0x8],ecx
  100fa3:	8b 55 f4             	mov    edx,DWORD PTR [ebp-0xc]
  100fa6:	89 d0                	mov    eax,edx
  100fa8:	01 c0                	add    eax,eax
  100faa:	01 d0                	add    eax,edx
  100fac:	c1 e0 05             	shl    eax,0x5
  100faf:	8b 55 f0             	mov    edx,DWORD PTR [ebp-0x10]
  100fb2:	01 d0                	add    eax,edx
  100fb4:	c1 e0 04             	shl    eax,0x4
  100fb7:	05 c0 e0 10 00       	add    eax,0x10e0c0
  100fbc:	c6 40 0c 00          	mov    BYTE PTR [eax+0xc],0x0
  100fc0:	83 45 f0 01          	add    DWORD PTR [ebp-0x10],0x1
  100fc4:	a1 88 e0 10 00       	mov    eax,ds:0x10e088
  100fc9:	83 e8 01             	sub    eax,0x1
  100fcc:	3b 45 f0             	cmp    eax,DWORD PTR [ebp-0x10]
  100fcf:	0f 87 de fd ff ff    	ja     100db3 <vga_scroll+0x1f>
  100fd5:	83 45 f4 01          	add    DWORD PTR [ebp-0xc],0x1
  100fd9:	a1 c4 e0 13 00       	mov    eax,ds:0x13e0c4
  100fde:	39 45 f4             	cmp    DWORD PTR [ebp-0xc],eax
  100fe1:	0f 82 c0 fd ff ff    	jb     100da7 <vga_scroll+0x13>
  100fe7:	a1 88 e0 10 00       	mov    eax,ds:0x10e088
  100fec:	83 e8 01             	sub    eax,0x1
  100fef:	89 45 f0             	mov    DWORD PTR [ebp-0x10],eax
  100ff2:	c7 45 f4 00 00 00 00 	mov    DWORD PTR [ebp-0xc],0x0
  100ff9:	e9 84 00 00 00       	jmp    101082 <vga_scroll+0x2ee>
  100ffe:	c7 45 ec 00 00 00 00 	mov    DWORD PTR [ebp-0x14],0x0
  101005:	eb 71                	jmp    101078 <vga_scroll+0x2e4>
  101007:	c7 45 e8 00 00 00 00 	mov    DWORD PTR [ebp-0x18],0x0
  10100e:	eb 5e                	jmp    10106e <vga_scroll+0x2da>
  101010:	8b 55 f4             	mov    edx,DWORD PTR [ebp-0xc]
  101013:	89 d0                	mov    eax,edx
  101015:	01 c0                	add    eax,eax
  101017:	01 d0                	add    eax,edx
  101019:	c1 e0 05             	shl    eax,0x5
  10101c:	8b 55 f0             	mov    edx,DWORD PTR [ebp-0x10]
  10101f:	01 d0                	add    eax,edx
  101021:	c1 e0 04             	shl    eax,0x4
  101024:	05 c0 e0 10 00       	add    eax,0x10e0c0
  101029:	8b 40 08             	mov    eax,DWORD PTR [eax+0x8]
  10102c:	89 c3                	mov    ebx,eax
  10102e:	8b 45 f0             	mov    eax,DWORD PTR [ebp-0x10]
  101031:	8d 14 c5 00 00 00 00 	lea    edx,[eax*8+0x0]
  101038:	8b 45 e8             	mov    eax,DWORD PTR [ebp-0x18]
  10103b:	01 c2                	add    edx,eax
  10103d:	a1 c0 e0 13 00       	mov    eax,ds:0x13e0c0
  101042:	01 d0                	add    eax,edx
  101044:	89 c1                	mov    ecx,eax
  101046:	8b 45 f4             	mov    eax,DWORD PTR [ebp-0xc]
  101049:	8d 14 c5 00 00 00 00 	lea    edx,[eax*8+0x0]
  101050:	8b 45 ec             	mov    eax,DWORD PTR [ebp-0x14]
  101053:	01 c2                	add    edx,eax
  101055:	a1 80 e0 10 00       	mov    eax,ds:0x10e080
  10105a:	01 d0                	add    eax,edx
  10105c:	83 ec 04             	sub    esp,0x4
  10105f:	53                   	push   ebx
  101060:	51                   	push   ecx
  101061:	50                   	push   eax
  101062:	e8 2c f6 ff ff       	call   100693 <vga_write_pix>
  101067:	83 c4 10             	add    esp,0x10
  10106a:	83 45 e8 01          	add    DWORD PTR [ebp-0x18],0x1
  10106e:	83 7d e8 07          	cmp    DWORD PTR [ebp-0x18],0x7
  101072:	76 9c                	jbe    101010 <vga_scroll+0x27c>
  101074:	83 45 ec 01          	add    DWORD PTR [ebp-0x14],0x1
  101078:	83 7d ec 07          	cmp    DWORD PTR [ebp-0x14],0x7
  10107c:	76 89                	jbe    101007 <vga_scroll+0x273>
  10107e:	83 45 f4 01          	add    DWORD PTR [ebp-0xc],0x1
  101082:	a1 c4 e0 13 00       	mov    eax,ds:0x13e0c4
  101087:	39 45 f4             	cmp    DWORD PTR [ebp-0xc],eax
  10108a:	0f 82 6e ff ff ff    	jb     100ffe <vga_scroll+0x26a>
  101090:	8b 5d fc             	mov    ebx,DWORD PTR [ebp-0x4]
  101093:	c9                   	leave  
  101094:	c3                   	ret    

00101095 <vga_update_curs>:
  101095:	55                   	push   ebp
  101096:	89 e5                	mov    ebp,esp
  101098:	a1 08 e0 10 00       	mov    eax,ds:0x10e008
  10109d:	85 c0                	test   eax,eax
  10109f:	74 24                	je     1010c5 <vga_update_curs+0x30>
  1010a1:	8b 15 0c e0 10 00    	mov    edx,DWORD PTR ds:0x10e00c
  1010a7:	8b 0d 04 e0 10 00    	mov    ecx,DWORD PTR ds:0x10e004
  1010ad:	89 d0                	mov    eax,edx
  1010af:	01 c0                	add    eax,eax
  1010b1:	01 d0                	add    eax,edx
  1010b3:	c1 e0 05             	shl    eax,0x5
  1010b6:	01 c8                	add    eax,ecx
  1010b8:	c1 e0 04             	shl    eax,0x4
  1010bb:	05 c0 e0 10 00       	add    eax,0x10e0c0
  1010c0:	c6 00 5f             	mov    BYTE PTR [eax],0x5f
  1010c3:	eb 22                	jmp    1010e7 <vga_update_curs+0x52>
  1010c5:	8b 15 0c e0 10 00    	mov    edx,DWORD PTR ds:0x10e00c
  1010cb:	8b 0d 04 e0 10 00    	mov    ecx,DWORD PTR ds:0x10e004
  1010d1:	89 d0                	mov    eax,edx
  1010d3:	01 c0                	add    eax,eax
  1010d5:	01 d0                	add    eax,edx
  1010d7:	c1 e0 05             	shl    eax,0x5
  1010da:	01 c8                	add    eax,ecx
  1010dc:	c1 e0 04             	shl    eax,0x4
  1010df:	05 c0 e0 10 00       	add    eax,0x10e0c0
  1010e4:	c6 00 20             	mov    BYTE PTR [eax],0x20
  1010e7:	8b 15 0c e0 10 00    	mov    edx,DWORD PTR ds:0x10e00c
  1010ed:	8b 0d 04 e0 10 00    	mov    ecx,DWORD PTR ds:0x10e004
  1010f3:	89 d0                	mov    eax,edx
  1010f5:	01 c0                	add    eax,eax
  1010f7:	01 d0                	add    eax,edx
  1010f9:	c1 e0 05             	shl    eax,0x5
  1010fc:	01 c8                	add    eax,ecx
  1010fe:	c1 e0 04             	shl    eax,0x4
  101101:	05 c0 e0 10 00       	add    eax,0x10e0c0
  101106:	c6 40 0c 01          	mov    BYTE PTR [eax+0xc],0x1
  10110a:	5d                   	pop    ebp
  10110b:	c3                   	ret    

0010110c <vga_writechar>:
  10110c:	55                   	push   ebp
  10110d:	89 e5                	mov    ebp,esp
  10110f:	53                   	push   ebx
  101110:	83 ec 04             	sub    esp,0x4
  101113:	8b 45 08             	mov    eax,DWORD PTR [ebp+0x8]
  101116:	83 f8 08             	cmp    eax,0x8
  101119:	0f 84 8d 00 00 00    	je     1011ac <vga_writechar+0xa0>
  10111f:	83 f8 0a             	cmp    eax,0xa
  101122:	0f 85 f8 00 00 00    	jne    101220 <vga_writechar+0x114>
  101128:	eb 52                	jmp    10117c <vga_writechar+0x70>
  10112a:	8b 15 0c e0 10 00    	mov    edx,DWORD PTR ds:0x10e00c
  101130:	8b 0d 04 e0 10 00    	mov    ecx,DWORD PTR ds:0x10e004
  101136:	89 d0                	mov    eax,edx
  101138:	01 c0                	add    eax,eax
  10113a:	01 d0                	add    eax,edx
  10113c:	c1 e0 05             	shl    eax,0x5
  10113f:	01 c8                	add    eax,ecx
  101141:	c1 e0 04             	shl    eax,0x4
  101144:	05 c0 e0 10 00       	add    eax,0x10e0c0
  101149:	c6 00 20             	mov    BYTE PTR [eax],0x20
  10114c:	8b 15 0c e0 10 00    	mov    edx,DWORD PTR ds:0x10e00c
  101152:	8b 0d 04 e0 10 00    	mov    ecx,DWORD PTR ds:0x10e004
  101158:	89 d0                	mov    eax,edx
  10115a:	01 c0                	add    eax,eax
  10115c:	01 d0                	add    eax,edx
  10115e:	c1 e0 05             	shl    eax,0x5
  101161:	01 c8                	add    eax,ecx
  101163:	c1 e0 04             	shl    eax,0x4
  101166:	05 c0 e0 10 00       	add    eax,0x10e0c0
  10116b:	c6 40 0c 01          	mov    BYTE PTR [eax+0xc],0x1
  10116f:	a1 0c e0 10 00       	mov    eax,ds:0x10e00c
  101174:	83 c0 01             	add    eax,0x1
  101177:	a3 0c e0 10 00       	mov    ds:0x10e00c,eax
  10117c:	8b 15 0c e0 10 00    	mov    edx,DWORD PTR ds:0x10e00c
  101182:	a1 c4 e0 13 00       	mov    eax,ds:0x13e0c4
  101187:	39 c2                	cmp    edx,eax
  101189:	72 9f                	jb     10112a <vga_writechar+0x1e>
  10118b:	c7 05 0c e0 10 00 00 	mov    DWORD PTR ds:0x10e00c,0x0
  101192:	00 00 00 
  101195:	a1 04 e0 10 00       	mov    eax,ds:0x10e004
  10119a:	83 c0 01             	add    eax,0x1
  10119d:	a3 04 e0 10 00       	mov    ds:0x10e004,eax
  1011a2:	e8 bb f9 ff ff       	call   100b62 <vga_redraw>
  1011a7:	e9 18 01 00 00       	jmp    1012c4 <vga_writechar+0x1b8>
  1011ac:	a1 0c e0 10 00       	mov    eax,ds:0x10e00c
  1011b1:	83 e8 01             	sub    eax,0x1
  1011b4:	a3 0c e0 10 00       	mov    ds:0x10e00c,eax
  1011b9:	a1 0c e0 10 00       	mov    eax,ds:0x10e00c
  1011be:	83 f8 ff             	cmp    eax,0xffffffff
  1011c1:	75 0f                	jne    1011d2 <vga_writechar+0xc6>
  1011c3:	c7 05 0c e0 10 00 00 	mov    DWORD PTR ds:0x10e00c,0x0
  1011ca:	00 00 00 
  1011cd:	e9 f2 00 00 00       	jmp    1012c4 <vga_writechar+0x1b8>
  1011d2:	a1 0c e0 10 00       	mov    eax,ds:0x10e00c
  1011d7:	8d 50 01             	lea    edx,[eax+0x1]
  1011da:	8b 0d 04 e0 10 00    	mov    ecx,DWORD PTR ds:0x10e004
  1011e0:	89 d0                	mov    eax,edx
  1011e2:	01 c0                	add    eax,eax
  1011e4:	01 d0                	add    eax,edx
  1011e6:	c1 e0 05             	shl    eax,0x5
  1011e9:	01 c8                	add    eax,ecx
  1011eb:	c1 e0 04             	shl    eax,0x4
  1011ee:	05 c0 e0 10 00       	add    eax,0x10e0c0
  1011f3:	c6 00 20             	mov    BYTE PTR [eax],0x20
  1011f6:	a1 0c e0 10 00       	mov    eax,ds:0x10e00c
  1011fb:	8d 50 01             	lea    edx,[eax+0x1]
  1011fe:	8b 0d 04 e0 10 00    	mov    ecx,DWORD PTR ds:0x10e004
  101204:	89 d0                	mov    eax,edx
  101206:	01 c0                	add    eax,eax
  101208:	01 d0                	add    eax,edx
  10120a:	c1 e0 05             	shl    eax,0x5
  10120d:	01 c8                	add    eax,ecx
  10120f:	c1 e0 04             	shl    eax,0x4
  101212:	05 c0 e0 10 00       	add    eax,0x10e0c0
  101217:	c6 40 0c 01          	mov    BYTE PTR [eax+0xc],0x1
  10121b:	e9 a4 00 00 00       	jmp    1012c4 <vga_writechar+0x1b8>
  101220:	8b 15 0c e0 10 00    	mov    edx,DWORD PTR ds:0x10e00c
  101226:	8b 0d 04 e0 10 00    	mov    ecx,DWORD PTR ds:0x10e004
  10122c:	89 d0                	mov    eax,edx
  10122e:	01 c0                	add    eax,eax
  101230:	01 d0                	add    eax,edx
  101232:	c1 e0 05             	shl    eax,0x5
  101235:	01 c8                	add    eax,ecx
  101237:	c1 e0 04             	shl    eax,0x4
  10123a:	05 c0 e0 10 00       	add    eax,0x10e0c0
  10123f:	c6 40 0c 01          	mov    BYTE PTR [eax+0xc],0x1
  101243:	8b 15 0c e0 10 00    	mov    edx,DWORD PTR ds:0x10e00c
  101249:	8b 0d 04 e0 10 00    	mov    ecx,DWORD PTR ds:0x10e004
  10124f:	8b 45 08             	mov    eax,DWORD PTR [ebp+0x8]
  101252:	89 c3                	mov    ebx,eax
  101254:	89 d0                	mov    eax,edx
  101256:	01 c0                	add    eax,eax
  101258:	01 d0                	add    eax,edx
  10125a:	c1 e0 05             	shl    eax,0x5
  10125d:	01 c8                	add    eax,ecx
  10125f:	c1 e0 04             	shl    eax,0x4
  101262:	05 c0 e0 10 00       	add    eax,0x10e0c0
  101267:	88 18                	mov    BYTE PTR [eax],bl
  101269:	8b 15 0c e0 10 00    	mov    edx,DWORD PTR ds:0x10e00c
  10126f:	8b 0d 04 e0 10 00    	mov    ecx,DWORD PTR ds:0x10e004
  101275:	a1 8c e0 10 00       	mov    eax,ds:0x10e08c
  10127a:	89 c3                	mov    ebx,eax
  10127c:	89 d0                	mov    eax,edx
  10127e:	01 c0                	add    eax,eax
  101280:	01 d0                	add    eax,edx
  101282:	c1 e0 05             	shl    eax,0x5
  101285:	01 c8                	add    eax,ecx
  101287:	c1 e0 04             	shl    eax,0x4
  10128a:	05 c0 e0 10 00       	add    eax,0x10e0c0
  10128f:	89 58 04             	mov    DWORD PTR [eax+0x4],ebx
  101292:	8b 15 0c e0 10 00    	mov    edx,DWORD PTR ds:0x10e00c
  101298:	8d 42 01             	lea    eax,[edx+0x1]
  10129b:	a3 0c e0 10 00       	mov    ds:0x10e00c,eax
  1012a0:	8b 0d 04 e0 10 00    	mov    ecx,DWORD PTR ds:0x10e004
  1012a6:	a1 00 e0 10 00       	mov    eax,ds:0x10e000
  1012ab:	89 c3                	mov    ebx,eax
  1012ad:	89 d0                	mov    eax,edx
  1012af:	01 c0                	add    eax,eax
  1012b1:	01 d0                	add    eax,edx
  1012b3:	c1 e0 05             	shl    eax,0x5
  1012b6:	01 c8                	add    eax,ecx
  1012b8:	c1 e0 04             	shl    eax,0x4
  1012bb:	05 c0 e0 10 00       	add    eax,0x10e0c0
  1012c0:	89 58 08             	mov    DWORD PTR [eax+0x8],ebx
  1012c3:	90                   	nop
  1012c4:	a1 c4 e0 13 00       	mov    eax,ds:0x13e0c4
  1012c9:	8d 50 ff             	lea    edx,[eax-0x1]
  1012cc:	a1 0c e0 10 00       	mov    eax,ds:0x10e00c
  1012d1:	39 c2                	cmp    edx,eax
  1012d3:	73 17                	jae    1012ec <vga_writechar+0x1e0>
  1012d5:	c7 05 0c e0 10 00 00 	mov    DWORD PTR ds:0x10e00c,0x0
  1012dc:	00 00 00 
  1012df:	a1 04 e0 10 00       	mov    eax,ds:0x10e004
  1012e4:	83 c0 01             	add    eax,0x1
  1012e7:	a3 04 e0 10 00       	mov    ds:0x10e004,eax
  1012ec:	a1 88 e0 10 00       	mov    eax,ds:0x10e088
  1012f1:	8d 50 ff             	lea    edx,[eax-0x1]
  1012f4:	a1 04 e0 10 00       	mov    eax,ds:0x10e004
  1012f9:	39 c2                	cmp    edx,eax
  1012fb:	73 12                	jae    10130f <vga_writechar+0x203>
  1012fd:	a1 88 e0 10 00       	mov    eax,ds:0x10e088
  101302:	83 e8 01             	sub    eax,0x1
  101305:	a3 04 e0 10 00       	mov    ds:0x10e004,eax
  10130a:	e8 85 fa ff ff       	call   100d94 <vga_scroll>
  10130f:	8b 45 08             	mov    eax,DWORD PTR [ebp+0x8]
  101312:	0f b6 c0             	movzx  eax,al
  101315:	83 ec 08             	sub    esp,0x8
  101318:	50                   	push   eax
  101319:	68 f8 03 00 00       	push   0x3f8
  10131e:	e8 8b f4 ff ff       	call   1007ae <outb>
  101323:	83 c4 10             	add    esp,0x10
  101326:	e8 6a fd ff ff       	call   101095 <vga_update_curs>
  10132b:	8b 5d fc             	mov    ebx,DWORD PTR [ebp-0x4]
  10132e:	c9                   	leave  
  10132f:	c3                   	ret    

00101330 <vga_csi_dispatch>:
  101330:	55                   	push   ebp
  101331:	89 e5                	mov    ebp,esp
  101333:	83 ec 10             	sub    esp,0x10
  101336:	8b 45 08             	mov    eax,DWORD PTR [ebp+0x8]
  101339:	83 f8 6d             	cmp    eax,0x6d
  10133c:	0f 85 b4 00 00 00    	jne    1013f6 <vga_csi_dispatch+0xc6>
  101342:	c7 45 fc 00 00 00 00 	mov    DWORD PTR [ebp-0x4],0x0
  101349:	e9 99 00 00 00       	jmp    1013e7 <vga_csi_dispatch+0xb7>
  10134e:	8b 45 fc             	mov    eax,DWORD PTR [ebp-0x4]
  101351:	8b 04 85 40 e0 10 00 	mov    eax,DWORD PTR [eax*4+0x10e040]
  101358:	85 c0                	test   eax,eax
  10135a:	75 1d                	jne    101379 <vga_csi_dispatch+0x49>
  10135c:	b8 a1 a1 93 00       	mov    eax,0x93a1a1
  101361:	a3 8c e0 10 00       	mov    ds:0x10e08c,eax
  101366:	b8 42 36 07 00       	mov    eax,0x73642
  10136b:	a3 00 e0 10 00       	mov    ds:0x10e000,eax
  101370:	c6 05 84 e0 10 00 00 	mov    BYTE PTR ds:0x10e084,0x0
  101377:	eb 6a                	jmp    1013e3 <vga_csi_dispatch+0xb3>
  101379:	8b 45 fc             	mov    eax,DWORD PTR [ebp-0x4]
  10137c:	8b 04 85 40 e0 10 00 	mov    eax,DWORD PTR [eax*4+0x10e040]
  101383:	83 f8 01             	cmp    eax,0x1
  101386:	75 09                	jne    101391 <vga_csi_dispatch+0x61>
  101388:	c6 05 84 e0 10 00 01 	mov    BYTE PTR ds:0x10e084,0x1
  10138f:	eb 52                	jmp    1013e3 <vga_csi_dispatch+0xb3>
  101391:	8b 45 fc             	mov    eax,DWORD PTR [ebp-0x4]
  101394:	8b 04 85 40 e0 10 00 	mov    eax,DWORD PTR [eax*4+0x10e040]
  10139b:	83 f8 27             	cmp    eax,0x27
  10139e:	7f 2a                	jg     1013ca <vga_csi_dispatch+0x9a>
  1013a0:	8b 45 fc             	mov    eax,DWORD PTR [ebp-0x4]
  1013a3:	8b 04 85 40 e0 10 00 	mov    eax,DWORD PTR [eax*4+0x10e040]
  1013aa:	8d 50 e2             	lea    edx,[eax-0x1e]
  1013ad:	0f b6 05 84 e0 10 00 	movzx  eax,BYTE PTR ds:0x10e084
  1013b4:	0f be c0             	movsx  eax,al
  1013b7:	c1 e0 03             	shl    eax,0x3
  1013ba:	01 d0                	add    eax,edx
  1013bc:	8b 04 85 00 92 10 00 	mov    eax,DWORD PTR [eax*4+0x109200]
  1013c3:	a3 8c e0 10 00       	mov    ds:0x10e08c,eax
  1013c8:	eb 19                	jmp    1013e3 <vga_csi_dispatch+0xb3>
  1013ca:	8b 45 fc             	mov    eax,DWORD PTR [ebp-0x4]
  1013cd:	8b 04 85 40 e0 10 00 	mov    eax,DWORD PTR [eax*4+0x10e040]
  1013d4:	83 e8 28             	sub    eax,0x28
  1013d7:	8b 04 85 00 92 10 00 	mov    eax,DWORD PTR [eax*4+0x109200]
  1013de:	a3 00 e0 10 00       	mov    ds:0x10e000,eax
  1013e3:	83 45 fc 01          	add    DWORD PTR [ebp-0x4],0x1
  1013e7:	a1 a8 f8 17 00       	mov    eax,ds:0x17f8a8
  1013ec:	39 45 fc             	cmp    DWORD PTR [ebp-0x4],eax
  1013ef:	0f 8e 59 ff ff ff    	jle    10134e <vga_csi_dispatch+0x1e>
  1013f5:	90                   	nop
  1013f6:	c9                   	leave  
  1013f7:	c3                   	ret    

001013f8 <vga_putchar>:
  1013f8:	55                   	push   ebp
  1013f9:	89 e5                	mov    ebp,esp
  1013fb:	83 ec 18             	sub    esp,0x18
  1013fe:	8b 45 08             	mov    eax,DWORD PTR [ebp+0x8]
  101401:	0f b6 c0             	movzx  eax,al
  101404:	89 45 08             	mov    DWORD PTR [ebp+0x8],eax
  101407:	8b 15 a4 f8 17 00    	mov    edx,DWORD PTR ds:0x17f8a4
  10140d:	8b 45 08             	mov    eax,DWORD PTR [ebp+0x8]
  101410:	c1 e2 08             	shl    edx,0x8
  101413:	01 d0                	add    eax,edx
  101415:	05 40 c0 10 00       	add    eax,0x10c040
  10141a:	0f b6 00             	movzx  eax,BYTE PTR [eax]
  10141d:	0f b6 c0             	movzx  eax,al
  101420:	89 45 f0             	mov    DWORD PTR [ebp-0x10],eax
  101423:	8b 45 f0             	mov    eax,DWORD PTR [ebp-0x10]
  101426:	25 f0 00 00 00       	and    eax,0xf0
  10142b:	c1 f8 04             	sar    eax,0x4
  10142e:	89 45 ec             	mov    DWORD PTR [ebp-0x14],eax
  101431:	8b 45 f0             	mov    eax,DWORD PTR [ebp-0x10]
  101434:	83 e0 0f             	and    eax,0xf
  101437:	89 45 e8             	mov    DWORD PTR [ebp-0x18],eax
  10143a:	83 7d ec 07          	cmp    DWORD PTR [ebp-0x14],0x7
  10143e:	0f 87 dc 00 00 00    	ja     101520 <vga_putchar+0x128>
  101444:	8b 45 ec             	mov    eax,DWORD PTR [ebp-0x14]
  101447:	c1 e0 02             	shl    eax,0x2
  10144a:	05 5c 92 10 00       	add    eax,0x10925c
  10144f:	8b 00                	mov    eax,DWORD PTR [eax]
  101451:	ff e0                	jmp    eax
  101453:	83 ec 0c             	sub    esp,0xc
  101456:	ff 75 08             	push   DWORD PTR [ebp+0x8]
  101459:	e8 ae fc ff ff       	call   10110c <vga_writechar>
  10145e:	83 c4 10             	add    esp,0x10
  101461:	e9 bb 00 00 00       	jmp    101521 <vga_putchar+0x129>
  101466:	83 ec 0c             	sub    esp,0xc
  101469:	ff 75 08             	push   DWORD PTR [ebp+0x8]
  10146c:	e8 9b fc ff ff       	call   10110c <vga_writechar>
  101471:	83 c4 10             	add    esp,0x10
  101474:	e9 a8 00 00 00       	jmp    101521 <vga_putchar+0x129>
  101479:	c7 05 a8 f8 17 00 00 	mov    DWORD PTR ds:0x17f8a8,0x0
  101480:	00 00 00 
  101483:	e9 99 00 00 00       	jmp    101521 <vga_putchar+0x129>
  101488:	83 7d 08 3b          	cmp    DWORD PTR [ebp+0x8],0x3b
  10148c:	75 12                	jne    1014a0 <vga_putchar+0xa8>
  10148e:	a1 a8 f8 17 00       	mov    eax,ds:0x17f8a8
  101493:	83 c0 01             	add    eax,0x1
  101496:	a3 a8 f8 17 00       	mov    ds:0x17f8a8,eax
  10149b:	e9 81 00 00 00       	jmp    101521 <vga_putchar+0x129>
  1014a0:	8b 0d a8 f8 17 00    	mov    ecx,DWORD PTR ds:0x17f8a8
  1014a6:	a1 a8 f8 17 00       	mov    eax,ds:0x17f8a8
  1014ab:	8b 14 85 40 e0 10 00 	mov    edx,DWORD PTR [eax*4+0x10e040]
  1014b2:	89 d0                	mov    eax,edx
  1014b4:	c1 e0 02             	shl    eax,0x2
  1014b7:	01 d0                	add    eax,edx
  1014b9:	01 c0                	add    eax,eax
  1014bb:	89 04 8d 40 e0 10 00 	mov    DWORD PTR [ecx*4+0x10e040],eax
  1014c2:	a1 a8 f8 17 00       	mov    eax,ds:0x17f8a8
  1014c7:	8b 15 a8 f8 17 00    	mov    edx,DWORD PTR ds:0x17f8a8
  1014cd:	8b 14 95 40 e0 10 00 	mov    edx,DWORD PTR [edx*4+0x10e040]
  1014d4:	8b 4d 08             	mov    ecx,DWORD PTR [ebp+0x8]
  1014d7:	83 e9 30             	sub    ecx,0x30
  1014da:	01 ca                	add    edx,ecx
  1014dc:	89 14 85 40 e0 10 00 	mov    DWORD PTR [eax*4+0x10e040],edx
  1014e3:	eb 3c                	jmp    101521 <vga_putchar+0x129>
  1014e5:	83 ec 0c             	sub    esp,0xc
  1014e8:	ff 75 08             	push   DWORD PTR [ebp+0x8]
  1014eb:	e8 40 fe ff ff       	call   101330 <vga_csi_dispatch>
  1014f0:	83 c4 10             	add    esp,0x10
  1014f3:	c7 45 f4 00 00 00 00 	mov    DWORD PTR [ebp-0xc],0x0
  1014fa:	eb 12                	jmp    10150e <vga_putchar+0x116>
  1014fc:	8b 45 f4             	mov    eax,DWORD PTR [ebp-0xc]
  1014ff:	c7 04 85 40 e0 10 00 	mov    DWORD PTR [eax*4+0x10e040],0x0
  101506:	00 00 00 00 
  10150a:	83 45 f4 01          	add    DWORD PTR [ebp-0xc],0x1
  10150e:	83 7d f4 0f          	cmp    DWORD PTR [ebp-0xc],0xf
  101512:	7e e8                	jle    1014fc <vga_putchar+0x104>
  101514:	c7 05 a8 f8 17 00 00 	mov    DWORD PTR ds:0x17f8a8,0x0
  10151b:	00 00 00 
  10151e:	eb 01                	jmp    101521 <vga_putchar+0x129>
  101520:	90                   	nop
  101521:	8b 45 e8             	mov    eax,DWORD PTR [ebp-0x18]
  101524:	a3 a4 f8 17 00       	mov    ds:0x17f8a4,eax
  101529:	c9                   	leave  
  10152a:	c3                   	ret    

0010152b <vga_puts>:
  10152b:	55                   	push   ebp
  10152c:	89 e5                	mov    ebp,esp
  10152e:	83 ec 08             	sub    esp,0x8
  101531:	eb 19                	jmp    10154c <vga_puts+0x21>
  101533:	8b 45 08             	mov    eax,DWORD PTR [ebp+0x8]
  101536:	0f b6 00             	movzx  eax,BYTE PTR [eax]
  101539:	0f be c0             	movsx  eax,al
  10153c:	83 ec 0c             	sub    esp,0xc
  10153f:	50                   	push   eax
  101540:	e8 b3 fe ff ff       	call   1013f8 <vga_putchar>
  101545:	83 c4 10             	add    esp,0x10
  101548:	83 45 08 01          	add    DWORD PTR [ebp+0x8],0x1
  10154c:	8b 45 08             	mov    eax,DWORD PTR [ebp+0x8]
  10154f:	0f b6 00             	movzx  eax,BYTE PTR [eax]
  101552:	84 c0                	test   al,al
  101554:	75 dd                	jne    101533 <vga_puts+0x8>
  101556:	c9                   	leave  
  101557:	c3                   	ret    

00101558 <vga_itoa_u>:
  101558:	55                   	push   ebp
  101559:	89 e5                	mov    ebp,esp
  10155b:	83 ec 08             	sub    esp,0x8
  10155e:	8b 45 08             	mov    eax,DWORD PTR [ebp+0x8]
  101561:	3b 45 0c             	cmp    eax,DWORD PTR [ebp+0xc]
  101564:	72 1a                	jb     101580 <vga_itoa_u+0x28>
  101566:	8b 45 08             	mov    eax,DWORD PTR [ebp+0x8]
  101569:	ba 00 00 00 00       	mov    edx,0x0
  10156e:	f7 75 0c             	div    DWORD PTR [ebp+0xc]
  101571:	83 ec 08             	sub    esp,0x8
  101574:	ff 75 0c             	push   DWORD PTR [ebp+0xc]
  101577:	50                   	push   eax
  101578:	e8 db ff ff ff       	call   101558 <vga_itoa_u>
  10157d:	83 c4 10             	add    esp,0x10
  101580:	8b 45 08             	mov    eax,DWORD PTR [ebp+0x8]
  101583:	ba 00 00 00 00       	mov    edx,0x0
  101588:	f7 75 0c             	div    DWORD PTR [ebp+0xc]
  10158b:	89 d0                	mov    eax,edx
  10158d:	0f b6 80 7c 92 10 00 	movzx  eax,BYTE PTR [eax+0x10927c]
  101594:	0f be c0             	movsx  eax,al
  101597:	83 ec 0c             	sub    esp,0xc
  10159a:	50                   	push   eax
  10159b:	e8 58 fe ff ff       	call   1013f8 <vga_putchar>
  1015a0:	83 c4 10             	add    esp,0x10
  1015a3:	c9                   	leave  
  1015a4:	c3                   	ret    

001015a5 <vga_itoa_s>:
  1015a5:	55                   	push   ebp
  1015a6:	89 e5                	mov    ebp,esp
  1015a8:	83 ec 08             	sub    esp,0x8
  1015ab:	83 7d 08 00          	cmp    DWORD PTR [ebp+0x8],0x0
  1015af:	79 10                	jns    1015c1 <vga_itoa_s+0x1c>
  1015b1:	f7 5d 08             	neg    DWORD PTR [ebp+0x8]
  1015b4:	83 ec 0c             	sub    esp,0xc
  1015b7:	6a 2d                	push   0x2d
  1015b9:	e8 3a fe ff ff       	call   1013f8 <vga_putchar>
  1015be:	83 c4 10             	add    esp,0x10
  1015c1:	8b 55 0c             	mov    edx,DWORD PTR [ebp+0xc]
  1015c4:	8b 45 08             	mov    eax,DWORD PTR [ebp+0x8]
  1015c7:	83 ec 08             	sub    esp,0x8
  1015ca:	52                   	push   edx
  1015cb:	50                   	push   eax
  1015cc:	e8 87 ff ff ff       	call   101558 <vga_itoa_u>
  1015d1:	83 c4 10             	add    esp,0x10
  1015d4:	c9                   	leave  
  1015d5:	c3                   	ret    

001015d6 <printf>:
  1015d6:	55                   	push   ebp
  1015d7:	89 e5                	mov    ebp,esp
  1015d9:	83 ec 18             	sub    esp,0x18
  1015dc:	8d 45 0c             	lea    eax,[ebp+0xc]
  1015df:	89 45 f4             	mov    DWORD PTR [ebp-0xc],eax
  1015e2:	8b 45 f4             	mov    eax,DWORD PTR [ebp-0xc]
  1015e5:	83 ec 08             	sub    esp,0x8
  1015e8:	50                   	push   eax
  1015e9:	ff 75 08             	push   DWORD PTR [ebp+0x8]
  1015ec:	e8 05 00 00 00       	call   1015f6 <vprintf>
  1015f1:	83 c4 10             	add    esp,0x10
  1015f4:	c9                   	leave  
  1015f5:	c3                   	ret    

001015f6 <vprintf>:
  1015f6:	55                   	push   ebp
  1015f7:	89 e5                	mov    ebp,esp
  1015f9:	83 ec 18             	sub    esp,0x18
  1015fc:	c7 45 f4 ff ff ff ff 	mov    DWORD PTR [ebp-0xc],0xffffffff
  101603:	e9 fe 01 00 00       	jmp    101806 <vprintf+0x210>
  101608:	8b 45 08             	mov    eax,DWORD PTR [ebp+0x8]
  10160b:	0f b6 00             	movzx  eax,BYTE PTR [eax]
  10160e:	3c 25                	cmp    al,0x25
  101610:	0f 85 d5 01 00 00    	jne    1017eb <vprintf+0x1f5>
  101616:	83 45 08 01          	add    DWORD PTR [ebp+0x8],0x1
  10161a:	8b 45 08             	mov    eax,DWORD PTR [ebp+0x8]
  10161d:	8d 50 01             	lea    edx,[eax+0x1]
  101620:	89 55 08             	mov    DWORD PTR [ebp+0x8],edx
  101623:	0f b6 00             	movzx  eax,BYTE PTR [eax]
  101626:	88 45 f3             	mov    BYTE PTR [ebp-0xd],al
  101629:	0f be 45 f3          	movsx  eax,BYTE PTR [ebp-0xd]
  10162d:	83 e8 25             	sub    eax,0x25
  101630:	83 f8 53             	cmp    eax,0x53
  101633:	0f 87 cd 01 00 00    	ja     101806 <vprintf+0x210>
  101639:	8b 04 85 90 92 10 00 	mov    eax,DWORD PTR [eax*4+0x109290]
  101640:	ff e0                	jmp    eax
  101642:	8b 45 08             	mov    eax,DWORD PTR [ebp+0x8]
  101645:	8d 50 01             	lea    edx,[eax+0x1]
  101648:	89 55 08             	mov    DWORD PTR [ebp+0x8],edx
  10164b:	0f b6 00             	movzx  eax,BYTE PTR [eax]
  10164e:	88 45 f3             	mov    BYTE PTR [ebp-0xd],al
  101651:	80 7d f3 68          	cmp    BYTE PTR [ebp-0xd],0x68
  101655:	75 0c                	jne    101663 <vprintf+0x6d>
  101657:	c7 45 f4 00 00 00 00 	mov    DWORD PTR [ebp-0xc],0x0
  10165e:	e9 86 01 00 00       	jmp    1017e9 <vprintf+0x1f3>
  101663:	c7 45 f4 01 00 00 00 	mov    DWORD PTR [ebp-0xc],0x1
  10166a:	83 6d 08 01          	sub    DWORD PTR [ebp+0x8],0x1
  10166e:	e9 76 01 00 00       	jmp    1017e9 <vprintf+0x1f3>
  101673:	8b 45 08             	mov    eax,DWORD PTR [ebp+0x8]
  101676:	8d 50 01             	lea    edx,[eax+0x1]
  101679:	89 55 08             	mov    DWORD PTR [ebp+0x8],edx
  10167c:	0f b6 00             	movzx  eax,BYTE PTR [eax]
  10167f:	88 45 f3             	mov    BYTE PTR [ebp-0xd],al
  101682:	80 7d f3 6c          	cmp    BYTE PTR [ebp-0xd],0x6c
  101686:	75 0c                	jne    101694 <vprintf+0x9e>
  101688:	c7 45 f4 03 00 00 00 	mov    DWORD PTR [ebp-0xc],0x3
  10168f:	e9 55 01 00 00       	jmp    1017e9 <vprintf+0x1f3>
  101694:	c7 45 f4 02 00 00 00 	mov    DWORD PTR [ebp-0xc],0x2
  10169b:	83 6d 08 01          	sub    DWORD PTR [ebp+0x8],0x1
  10169f:	e9 45 01 00 00       	jmp    1017e9 <vprintf+0x1f3>
  1016a4:	8b 45 f4             	mov    eax,DWORD PTR [ebp-0xc]
  1016a7:	83 f8 03             	cmp    eax,0x3
  1016aa:	75 1e                	jne    1016ca <vprintf+0xd4>
  1016ac:	8b 45 0c             	mov    eax,DWORD PTR [ebp+0xc]
  1016af:	8d 50 08             	lea    edx,[eax+0x8]
  1016b2:	89 55 0c             	mov    DWORD PTR [ebp+0xc],edx
  1016b5:	8b 50 04             	mov    edx,DWORD PTR [eax+0x4]
  1016b8:	8b 00                	mov    eax,DWORD PTR [eax]
  1016ba:	83 ec 08             	sub    esp,0x8
  1016bd:	6a 0a                	push   0xa
  1016bf:	50                   	push   eax
  1016c0:	e8 e0 fe ff ff       	call   1015a5 <vga_itoa_s>
  1016c5:	83 c4 10             	add    esp,0x10
  1016c8:	eb 1a                	jmp    1016e4 <vprintf+0xee>
  1016ca:	8b 45 0c             	mov    eax,DWORD PTR [ebp+0xc]
  1016cd:	8d 50 04             	lea    edx,[eax+0x4]
  1016d0:	89 55 0c             	mov    DWORD PTR [ebp+0xc],edx
  1016d3:	8b 00                	mov    eax,DWORD PTR [eax]
  1016d5:	83 ec 08             	sub    esp,0x8
  1016d8:	6a 0a                	push   0xa
  1016da:	50                   	push   eax
  1016db:	e8 c5 fe ff ff       	call   1015a5 <vga_itoa_s>
  1016e0:	83 c4 10             	add    esp,0x10
  1016e3:	90                   	nop
  1016e4:	e9 00 01 00 00       	jmp    1017e9 <vprintf+0x1f3>
  1016e9:	8b 45 f4             	mov    eax,DWORD PTR [ebp-0xc]
  1016ec:	83 f8 03             	cmp    eax,0x3
  1016ef:	75 1b                	jne    10170c <vprintf+0x116>
  1016f1:	8b 45 0c             	mov    eax,DWORD PTR [ebp+0xc]
  1016f4:	8d 50 04             	lea    edx,[eax+0x4]
  1016f7:	89 55 0c             	mov    DWORD PTR [ebp+0xc],edx
  1016fa:	8b 00                	mov    eax,DWORD PTR [eax]
  1016fc:	83 ec 08             	sub    esp,0x8
  1016ff:	6a 0a                	push   0xa
  101701:	50                   	push   eax
  101702:	e8 51 fe ff ff       	call   101558 <vga_itoa_u>
  101707:	83 c4 10             	add    esp,0x10
  10170a:	eb 1a                	jmp    101726 <vprintf+0x130>
  10170c:	8b 45 0c             	mov    eax,DWORD PTR [ebp+0xc]
  10170f:	8d 50 04             	lea    edx,[eax+0x4]
  101712:	89 55 0c             	mov    DWORD PTR [ebp+0xc],edx
  101715:	8b 00                	mov    eax,DWORD PTR [eax]
  101717:	83 ec 08             	sub    esp,0x8
  10171a:	6a 0a                	push   0xa
  10171c:	50                   	push   eax
  10171d:	e8 36 fe ff ff       	call   101558 <vga_itoa_u>
  101722:	83 c4 10             	add    esp,0x10
  101725:	90                   	nop
  101726:	e9 be 00 00 00       	jmp    1017e9 <vprintf+0x1f3>
  10172b:	8b 45 f4             	mov    eax,DWORD PTR [ebp-0xc]
  10172e:	83 f8 03             	cmp    eax,0x3
  101731:	75 1b                	jne    10174e <vprintf+0x158>
  101733:	8b 45 0c             	mov    eax,DWORD PTR [ebp+0xc]
  101736:	8d 50 04             	lea    edx,[eax+0x4]
  101739:	89 55 0c             	mov    DWORD PTR [ebp+0xc],edx
  10173c:	8b 00                	mov    eax,DWORD PTR [eax]
  10173e:	83 ec 08             	sub    esp,0x8
  101741:	6a 08                	push   0x8
  101743:	50                   	push   eax
  101744:	e8 0f fe ff ff       	call   101558 <vga_itoa_u>
  101749:	83 c4 10             	add    esp,0x10
  10174c:	eb 1a                	jmp    101768 <vprintf+0x172>
  10174e:	8b 45 0c             	mov    eax,DWORD PTR [ebp+0xc]
  101751:	8d 50 04             	lea    edx,[eax+0x4]
  101754:	89 55 0c             	mov    DWORD PTR [ebp+0xc],edx
  101757:	8b 00                	mov    eax,DWORD PTR [eax]
  101759:	83 ec 08             	sub    esp,0x8
  10175c:	6a 08                	push   0x8
  10175e:	50                   	push   eax
  10175f:	e8 f4 fd ff ff       	call   101558 <vga_itoa_u>
  101764:	83 c4 10             	add    esp,0x10
  101767:	90                   	nop
  101768:	eb 7f                	jmp    1017e9 <vprintf+0x1f3>
  10176a:	8b 45 f4             	mov    eax,DWORD PTR [ebp-0xc]
  10176d:	83 f8 03             	cmp    eax,0x3
  101770:	75 1b                	jne    10178d <vprintf+0x197>
  101772:	8b 45 0c             	mov    eax,DWORD PTR [ebp+0xc]
  101775:	8d 50 04             	lea    edx,[eax+0x4]
  101778:	89 55 0c             	mov    DWORD PTR [ebp+0xc],edx
  10177b:	8b 00                	mov    eax,DWORD PTR [eax]
  10177d:	83 ec 08             	sub    esp,0x8
  101780:	6a 10                	push   0x10
  101782:	50                   	push   eax
  101783:	e8 d0 fd ff ff       	call   101558 <vga_itoa_u>
  101788:	83 c4 10             	add    esp,0x10
  10178b:	eb 1a                	jmp    1017a7 <vprintf+0x1b1>
  10178d:	8b 45 0c             	mov    eax,DWORD PTR [ebp+0xc]
  101790:	8d 50 04             	lea    edx,[eax+0x4]
  101793:	89 55 0c             	mov    DWORD PTR [ebp+0xc],edx
  101796:	8b 00                	mov    eax,DWORD PTR [eax]
  101798:	83 ec 08             	sub    esp,0x8
  10179b:	6a 10                	push   0x10
  10179d:	50                   	push   eax
  10179e:	e8 b5 fd ff ff       	call   101558 <vga_itoa_u>
  1017a3:	83 c4 10             	add    esp,0x10
  1017a6:	90                   	nop
  1017a7:	eb 40                	jmp    1017e9 <vprintf+0x1f3>
  1017a9:	8b 45 0c             	mov    eax,DWORD PTR [ebp+0xc]
  1017ac:	8d 50 04             	lea    edx,[eax+0x4]
  1017af:	89 55 0c             	mov    DWORD PTR [ebp+0xc],edx
  1017b2:	8b 00                	mov    eax,DWORD PTR [eax]
  1017b4:	83 ec 0c             	sub    esp,0xc
  1017b7:	50                   	push   eax
  1017b8:	e8 3b fc ff ff       	call   1013f8 <vga_putchar>
  1017bd:	83 c4 10             	add    esp,0x10
  1017c0:	eb 27                	jmp    1017e9 <vprintf+0x1f3>
  1017c2:	8b 45 0c             	mov    eax,DWORD PTR [ebp+0xc]
  1017c5:	8d 50 04             	lea    edx,[eax+0x4]
  1017c8:	89 55 0c             	mov    DWORD PTR [ebp+0xc],edx
  1017cb:	8b 00                	mov    eax,DWORD PTR [eax]
  1017cd:	83 ec 0c             	sub    esp,0xc
  1017d0:	50                   	push   eax
  1017d1:	e8 55 fd ff ff       	call   10152b <vga_puts>
  1017d6:	83 c4 10             	add    esp,0x10
  1017d9:	eb 0e                	jmp    1017e9 <vprintf+0x1f3>
  1017db:	83 ec 0c             	sub    esp,0xc
  1017de:	6a 25                	push   0x25
  1017e0:	e8 13 fc ff ff       	call   1013f8 <vga_putchar>
  1017e5:	83 c4 10             	add    esp,0x10
  1017e8:	90                   	nop
  1017e9:	eb 1b                	jmp    101806 <vprintf+0x210>
  1017eb:	8b 45 08             	mov    eax,DWORD PTR [ebp+0x8]
  1017ee:	8d 50 01             	lea    edx,[eax+0x1]
  1017f1:	89 55 08             	mov    DWORD PTR [ebp+0x8],edx
  1017f4:	0f b6 00             	movzx  eax,BYTE PTR [eax]
  1017f7:	0f be c0             	movsx  eax,al
  1017fa:	83 ec 0c             	sub    esp,0xc
  1017fd:	50                   	push   eax
  1017fe:	e8 f5 fb ff ff       	call   1013f8 <vga_putchar>
  101803:	83 c4 10             	add    esp,0x10
  101806:	8b 45 08             	mov    eax,DWORD PTR [ebp+0x8]
  101809:	0f b6 00             	movzx  eax,BYTE PTR [eax]
  10180c:	84 c0                	test   al,al
  10180e:	0f 85 f4 fd ff ff    	jne    101608 <vprintf+0x12>
  101814:	c9                   	leave  
  101815:	c3                   	ret    

00101816 <bsod>:
  101816:	55                   	push   ebp
  101817:	89 e5                	mov    ebp,esp
  101819:	56                   	push   esi
  10181a:	53                   	push   ebx
  10181b:	83 ec 10             	sub    esp,0x10
  10181e:	a1 ac f8 17 00       	mov    eax,ds:0x17f8ac
  101823:	8d 50 01             	lea    edx,[eax+0x1]
  101826:	89 15 ac f8 17 00    	mov    DWORD PTR ds:0x17f8ac,edx
  10182c:	85 c0                	test   eax,eax
  10182e:	74 38                	je     101868 <bsod+0x52>
  101830:	83 ec 0c             	sub    esp,0xc
  101833:	68 20 95 10 00       	push   0x109520
  101838:	e8 99 fd ff ff       	call   1015d6 <printf>
  10183d:	83 c4 10             	add    esp,0x10
  101840:	83 ec 08             	sub    esp,0x8
  101843:	6a 00                	push   0x0
  101845:	6a 00                	push   0x0
  101847:	e8 f7 4f 00 00       	call   106843 <_log>
  10184c:	83 c4 10             	add    esp,0x10
  10184f:	85 c0                	test   eax,eax
  101851:	74 10                	je     101863 <bsod+0x4d>
  101853:	83 ec 0c             	sub    esp,0xc
  101856:	68 24 95 10 00       	push   0x109524
  10185b:	e8 76 fd ff ff       	call   1015d6 <printf>
  101860:	83 c4 10             	add    esp,0x10
  101863:	e9 67 02 00 00       	jmp    101acf <bsod+0x2b9>
  101868:	fa                   	cli    
  101869:	bc 00 00 80 01       	mov    esp,0x1800000
  10186e:	6a 1e                	push   0x1e
  101870:	6a 1e                	push   0x1e
  101872:	6a 46                	push   0x46
  101874:	6a 5a                	push   0x5a
  101876:	e8 c2 f2 ff ff       	call   100b3d <vga_setwin>
  10187b:	83 c4 10             	add    esp,0x10
  10187e:	83 ec 0c             	sub    esp,0xc
  101881:	6a 00                	push   0x0
  101883:	e8 df 14 00 00       	call   102d67 <vga_clearcolor>
  101888:	83 c4 10             	add    esp,0x10
  10188b:	83 ec 08             	sub    esp,0x8
  10188e:	6a 00                	push   0x0
  101890:	68 00 00 ff 00       	push   0xff0000
  101895:	e8 7d f1 ff ff       	call   100a17 <vga_set_color>
  10189a:	83 c4 10             	add    esp,0x10
  10189d:	e8 8a f1 ff ff       	call   100a2c <vga_clear_text>
  1018a2:	83 ec 08             	sub    esp,0x8
  1018a5:	6a 00                	push   0x0
  1018a7:	6a 00                	push   0x0
  1018a9:	e8 95 4f 00 00       	call   106843 <_log>
  1018ae:	83 c4 10             	add    esp,0x10
  1018b1:	85 c0                	test   eax,eax
  1018b3:	74 25                	je     1018da <bsod+0xc4>
  1018b5:	8b 45 08             	mov    eax,DWORD PTR [ebp+0x8]
  1018b8:	8b 40 28             	mov    eax,DWORD PTR [eax+0x28]
  1018bb:	8b 14 85 40 d7 10 00 	mov    edx,DWORD PTR [eax*4+0x10d740]
  1018c2:	8b 45 08             	mov    eax,DWORD PTR [ebp+0x8]
  1018c5:	8b 40 28             	mov    eax,DWORD PTR [eax+0x28]
  1018c8:	83 ec 04             	sub    esp,0x4
  1018cb:	52                   	push   edx
  1018cc:	50                   	push   eax
  1018cd:	68 51 95 10 00       	push   0x109551
  1018d2:	e8 ff fc ff ff       	call   1015d6 <printf>
  1018d7:	83 c4 10             	add    esp,0x10
  1018da:	83 ec 08             	sub    esp,0x8
  1018dd:	6a 00                	push   0x0
  1018df:	6a 00                	push   0x0
  1018e1:	e8 5d 4f 00 00       	call   106843 <_log>
  1018e6:	83 c4 10             	add    esp,0x10
  1018e9:	85 c0                	test   eax,eax
  1018eb:	74 16                	je     101903 <bsod+0xed>
  1018ed:	a1 80 ed 17 00       	mov    eax,ds:0x17ed80
  1018f2:	83 ec 08             	sub    esp,0x8
  1018f5:	50                   	push   eax
  1018f6:	68 6e 95 10 00       	push   0x10956e
  1018fb:	e8 d6 fc ff ff       	call   1015d6 <printf>
  101900:	83 c4 10             	add    esp,0x10
  101903:	83 ec 08             	sub    esp,0x8
  101906:	6a 00                	push   0x0
  101908:	6a 00                	push   0x0
  10190a:	e8 34 4f 00 00       	call   106843 <_log>
  10190f:	83 c4 10             	add    esp,0x10
  101912:	85 c0                	test   eax,eax
  101914:	74 1e                	je     101934 <bsod+0x11e>
  101916:	8b 45 08             	mov    eax,DWORD PTR [ebp+0x8]
  101919:	8b 50 30             	mov    edx,DWORD PTR [eax+0x30]
  10191c:	8b 45 08             	mov    eax,DWORD PTR [ebp+0x8]
  10191f:	8b 40 34             	mov    eax,DWORD PTR [eax+0x34]
  101922:	83 ec 04             	sub    esp,0x4
  101925:	52                   	push   edx
  101926:	50                   	push   eax
  101927:	68 83 95 10 00       	push   0x109583
  10192c:	e8 a5 fc ff ff       	call   1015d6 <printf>
  101931:	83 c4 10             	add    esp,0x10
  101934:	83 ec 08             	sub    esp,0x8
  101937:	6a 00                	push   0x0
  101939:	6a 00                	push   0x0
  10193b:	e8 03 4f 00 00       	call   106843 <_log>
  101940:	83 c4 10             	add    esp,0x10
  101943:	85 c0                	test   eax,eax
  101945:	74 33                	je     10197a <bsod+0x164>
  101947:	8b 45 08             	mov    eax,DWORD PTR [ebp+0x8]
  10194a:	8b 70 3c             	mov    esi,DWORD PTR [eax+0x3c]
  10194d:	8b 45 08             	mov    eax,DWORD PTR [ebp+0x8]
  101950:	8b 58 14             	mov    ebx,DWORD PTR [eax+0x14]
  101953:	8b 45 08             	mov    eax,DWORD PTR [ebp+0x8]
  101956:	8b 48 10             	mov    ecx,DWORD PTR [eax+0x10]
  101959:	8b 45 08             	mov    eax,DWORD PTR [ebp+0x8]
  10195c:	8b 50 0c             	mov    edx,DWORD PTR [eax+0xc]
  10195f:	8b 45 08             	mov    eax,DWORD PTR [ebp+0x8]
  101962:	8b 40 08             	mov    eax,DWORD PTR [eax+0x8]
  101965:	83 ec 08             	sub    esp,0x8
  101968:	56                   	push   esi
  101969:	53                   	push   ebx
  10196a:	51                   	push   ecx
  10196b:	52                   	push   edx
  10196c:	50                   	push   eax
  10196d:	68 94 95 10 00       	push   0x109594
  101972:	e8 5f fc ff ff       	call   1015d6 <printf>
  101977:	83 c4 20             	add    esp,0x20
  10197a:	83 ec 08             	sub    esp,0x8
  10197d:	6a 00                	push   0x0
  10197f:	6a 00                	push   0x0
  101981:	e8 bd 4e 00 00       	call   106843 <_log>
  101986:	83 c4 10             	add    esp,0x10
  101989:	85 c0                	test   eax,eax
  10198b:	74 2c                	je     1019b9 <bsod+0x1a3>
  10198d:	8b 45 08             	mov    eax,DWORD PTR [ebp+0x8]
  101990:	8b 58 24             	mov    ebx,DWORD PTR [eax+0x24]
  101993:	8b 45 08             	mov    eax,DWORD PTR [ebp+0x8]
  101996:	8b 48 20             	mov    ecx,DWORD PTR [eax+0x20]
  101999:	8b 45 08             	mov    eax,DWORD PTR [ebp+0x8]
  10199c:	8b 50 1c             	mov    edx,DWORD PTR [eax+0x1c]
  10199f:	8b 45 08             	mov    eax,DWORD PTR [ebp+0x8]
  1019a2:	8b 40 18             	mov    eax,DWORD PTR [eax+0x18]
  1019a5:	83 ec 0c             	sub    esp,0xc
  1019a8:	53                   	push   ebx
  1019a9:	51                   	push   ecx
  1019aa:	52                   	push   edx
  1019ab:	50                   	push   eax
  1019ac:	68 bc 95 10 00       	push   0x1095bc
  1019b1:	e8 20 fc ff ff       	call   1015d6 <printf>
  1019b6:	83 c4 20             	add    esp,0x20
  1019b9:	0f 20 d0             	mov    eax,cr2
  1019bc:	89 45 f4             	mov    DWORD PTR [ebp-0xc],eax
  1019bf:	83 ec 08             	sub    esp,0x8
  1019c2:	6a 00                	push   0x0
  1019c4:	6a 00                	push   0x0
  1019c6:	e8 78 4e 00 00       	call   106843 <_log>
  1019cb:	83 c4 10             	add    esp,0x10
  1019ce:	85 c0                	test   eax,eax
  1019d0:	74 13                	je     1019e5 <bsod+0x1cf>
  1019d2:	83 ec 08             	sub    esp,0x8
  1019d5:	ff 75 f4             	push   DWORD PTR [ebp-0xc]
  1019d8:	68 de 95 10 00       	push   0x1095de
  1019dd:	e8 f4 fb ff ff       	call   1015d6 <printf>
  1019e2:	83 c4 10             	add    esp,0x10
  1019e5:	83 ec 08             	sub    esp,0x8
  1019e8:	6a 00                	push   0x0
  1019ea:	6a 00                	push   0x0
  1019ec:	e8 52 4e 00 00       	call   106843 <_log>
  1019f1:	83 c4 10             	add    esp,0x10
  1019f4:	85 c0                	test   eax,eax
  1019f6:	74 1e                	je     101a16 <bsod+0x200>
  1019f8:	8b 45 08             	mov    eax,DWORD PTR [ebp+0x8]
  1019fb:	8b 50 38             	mov    edx,DWORD PTR [eax+0x38]
  1019fe:	8b 45 08             	mov    eax,DWORD PTR [ebp+0x8]
  101a01:	8b 40 2c             	mov    eax,DWORD PTR [eax+0x2c]
  101a04:	83 ec 04             	sub    esp,0x4
  101a07:	52                   	push   edx
  101a08:	50                   	push   eax
  101a09:	68 e8 95 10 00       	push   0x1095e8
  101a0e:	e8 c3 fb ff ff       	call   1015d6 <printf>
  101a13:	83 c4 10             	add    esp,0x10
  101a16:	83 ec 08             	sub    esp,0x8
  101a19:	6a 00                	push   0x0
  101a1b:	6a 00                	push   0x0
  101a1d:	e8 21 4e 00 00       	call   106843 <_log>
  101a22:	83 c4 10             	add    esp,0x10
  101a25:	85 c0                	test   eax,eax
  101a27:	74 10                	je     101a39 <bsod+0x223>
  101a29:	83 ec 0c             	sub    esp,0xc
  101a2c:	68 fa 95 10 00       	push   0x1095fa
  101a31:	e8 a0 fb ff ff       	call   1015d6 <printf>
  101a36:	83 c4 10             	add    esp,0x10
  101a39:	83 ec 08             	sub    esp,0x8
  101a3c:	6a 00                	push   0x0
  101a3e:	6a 00                	push   0x0
  101a40:	e8 fe 4d 00 00       	call   106843 <_log>
  101a45:	83 c4 10             	add    esp,0x10
  101a48:	85 c0                	test   eax,eax
  101a4a:	74 10                	je     101a5c <bsod+0x246>
  101a4c:	83 ec 0c             	sub    esp,0xc
  101a4f:	68 fc 95 10 00       	push   0x1095fc
  101a54:	e8 7d fb ff ff       	call   1015d6 <printf>
  101a59:	83 c4 10             	add    esp,0x10
  101a5c:	83 ec 08             	sub    esp,0x8
  101a5f:	6a 00                	push   0x0
  101a61:	6a 00                	push   0x0
  101a63:	e8 db 4d 00 00       	call   106843 <_log>
  101a68:	83 c4 10             	add    esp,0x10
  101a6b:	85 c0                	test   eax,eax
  101a6d:	74 17                	je     101a86 <bsod+0x270>
  101a6f:	8b 45 08             	mov    eax,DWORD PTR [ebp+0x8]
  101a72:	8b 40 30             	mov    eax,DWORD PTR [eax+0x30]
  101a75:	83 ec 08             	sub    esp,0x8
  101a78:	50                   	push   eax
  101a79:	68 09 96 10 00       	push   0x109609
  101a7e:	e8 53 fb ff ff       	call   1015d6 <printf>
  101a83:	83 c4 10             	add    esp,0x10
  101a86:	eb 3d                	jmp    101ac5 <bsod+0x2af>
  101a88:	83 ec 08             	sub    esp,0x8
  101a8b:	6a 00                	push   0x0
  101a8d:	6a 00                	push   0x0
  101a8f:	e8 af 4d 00 00       	call   106843 <_log>
  101a94:	83 c4 10             	add    esp,0x10
  101a97:	85 c0                	test   eax,eax
  101a99:	74 1c                	je     101ab7 <bsod+0x2a1>
  101a9b:	8b 45 08             	mov    eax,DWORD PTR [ebp+0x8]
  101a9e:	8b 40 10             	mov    eax,DWORD PTR [eax+0x10]
  101aa1:	83 c0 04             	add    eax,0x4
  101aa4:	8b 00                	mov    eax,DWORD PTR [eax]
  101aa6:	83 ec 08             	sub    esp,0x8
  101aa9:	50                   	push   eax
  101aaa:	68 09 96 10 00       	push   0x109609
  101aaf:	e8 22 fb ff ff       	call   1015d6 <printf>
  101ab4:	83 c4 10             	add    esp,0x10
  101ab7:	8b 45 08             	mov    eax,DWORD PTR [ebp+0x8]
  101aba:	8b 40 10             	mov    eax,DWORD PTR [eax+0x10]
  101abd:	8b 10                	mov    edx,DWORD PTR [eax]
  101abf:	8b 45 08             	mov    eax,DWORD PTR [ebp+0x8]
  101ac2:	89 50 10             	mov    DWORD PTR [eax+0x10],edx
  101ac5:	8b 45 08             	mov    eax,DWORD PTR [ebp+0x8]
  101ac8:	8b 40 10             	mov    eax,DWORD PTR [eax+0x10]
  101acb:	85 c0                	test   eax,eax
  101acd:	75 b9                	jne    101a88 <bsod+0x272>
  101acf:	83 ec 0c             	sub    esp,0xc
  101ad2:	68 0d 96 10 00       	push   0x10960d
  101ad7:	e8 fa fa ff ff       	call   1015d6 <printf>
  101adc:	83 c4 10             	add    esp,0x10
  101adf:	fa                   	cli    
  101ae0:	f4                   	hlt    
  101ae1:	eb fc                	jmp    101adf <bsod+0x2c9>

00101ae3 <c_intr>:
  101ae3:	55                   	push   ebp
  101ae4:	89 e5                	mov    ebp,esp
  101ae6:	83 ec 08             	sub    esp,0x8
  101ae9:	8b 45 08             	mov    eax,DWORD PTR [ebp+0x8]
  101aec:	8b 40 28             	mov    eax,DWORD PTR [eax+0x28]
  101aef:	0f b6 d0             	movzx  edx,al
  101af2:	8b 45 08             	mov    eax,DWORD PTR [ebp+0x8]
  101af5:	89 50 28             	mov    DWORD PTR [eax+0x28],edx
  101af8:	8b 45 08             	mov    eax,DWORD PTR [ebp+0x8]
  101afb:	8b 40 28             	mov    eax,DWORD PTR [eax+0x28]
  101afe:	83 f8 12             	cmp    eax,0x12
  101b01:	77 10                	ja     101b13 <c_intr+0x30>
  101b03:	83 ec 0c             	sub    esp,0xc
  101b06:	ff 75 08             	push   DWORD PTR [ebp+0x8]
  101b09:	e8 08 fd ff ff       	call   101816 <bsod>
  101b0e:	83 c4 10             	add    esp,0x10
  101b11:	eb 4e                	jmp    101b61 <c_intr+0x7e>
  101b13:	8b 45 08             	mov    eax,DWORD PTR [ebp+0x8]
  101b16:	8b 40 28             	mov    eax,DWORD PTR [eax+0x28]
  101b19:	83 f8 1f             	cmp    eax,0x1f
  101b1c:	76 1b                	jbe    101b39 <c_intr+0x56>
  101b1e:	8b 45 08             	mov    eax,DWORD PTR [ebp+0x8]
  101b21:	8b 40 28             	mov    eax,DWORD PTR [eax+0x28]
  101b24:	83 f8 2f             	cmp    eax,0x2f
  101b27:	77 10                	ja     101b39 <c_intr+0x56>
  101b29:	83 ec 0c             	sub    esp,0xc
  101b2c:	ff 75 08             	push   DWORD PTR [ebp+0x8]
  101b2f:	e8 b6 4a 00 00       	call   1065ea <handle_irq>
  101b34:	83 c4 10             	add    esp,0x10
  101b37:	eb 28                	jmp    101b61 <c_intr+0x7e>
  101b39:	8b 45 08             	mov    eax,DWORD PTR [ebp+0x8]
  101b3c:	8b 40 28             	mov    eax,DWORD PTR [eax+0x28]
  101b3f:	3d 80 00 00 00       	cmp    eax,0x80
  101b44:	74 0d                	je     101b53 <c_intr+0x70>
  101b46:	8b 45 08             	mov    eax,DWORD PTR [ebp+0x8]
  101b49:	8b 40 28             	mov    eax,DWORD PTR [eax+0x28]
  101b4c:	3d 81 00 00 00       	cmp    eax,0x81
  101b51:	75 0e                	jne    101b61 <c_intr+0x7e>
  101b53:	83 ec 0c             	sub    esp,0xc
  101b56:	ff 75 08             	push   DWORD PTR [ebp+0x8]
  101b59:	e8 2d 28 00 00       	call   10438b <do_syscall>
  101b5e:	83 c4 10             	add    esp,0x10
  101b61:	83 ec 0c             	sub    esp,0xc
  101b64:	ff 75 08             	push   DWORD PTR [ebp+0x8]
  101b67:	e8 42 4b 00 00       	call   1066ae <check_pic_reset>
  101b6c:	83 c4 10             	add    esp,0x10
  101b6f:	c9                   	leave  
  101b70:	c3                   	ret    

00101b71 <setup_idt>:
  101b71:	55                   	push   ebp
  101b72:	89 e5                	mov    ebp,esp
  101b74:	83 ec 18             	sub    esp,0x18
  101b77:	83 ec 08             	sub    esp,0x8
  101b7a:	68 ff 00 00 00       	push   0xff
  101b7f:	6a 21                	push   0x21
  101b81:	e8 28 ec ff ff       	call   1007ae <outb>
  101b86:	83 c4 10             	add    esp,0x10
  101b89:	83 ec 08             	sub    esp,0x8
  101b8c:	68 ff 00 00 00       	push   0xff
  101b91:	68 a1 00 00 00       	push   0xa1
  101b96:	e8 13 ec ff ff       	call   1007ae <outb>
  101b9b:	83 c4 10             	add    esp,0x10
  101b9e:	c7 45 f4 00 00 00 00 	mov    DWORD PTR [ebp-0xc],0x0
  101ba5:	eb 0f                	jmp    101bb6 <setup_idt+0x45>
  101ba7:	8b 45 f4             	mov    eax,DWORD PTR [ebp-0xc]
  101baa:	c6 04 c5 45 e1 13 00 	mov    BYTE PTR [eax*8+0x13e145],0x0
  101bb1:	00 
  101bb2:	83 45 f4 01          	add    DWORD PTR [ebp-0xc],0x1
  101bb6:	81 7d f4 ff 00 00 00 	cmp    DWORD PTR [ebp-0xc],0xff
  101bbd:	7e e8                	jle    101ba7 <setup_idt+0x36>
  101bbf:	b8 e9 22 10 00       	mov    eax,0x1022e9
  101bc4:	66 a3 40 e1 13 00    	mov    ds:0x13e140,ax
  101bca:	b8 e9 22 10 00       	mov    eax,0x1022e9
  101bcf:	c1 e8 10             	shr    eax,0x10
  101bd2:	66 a3 46 e1 13 00    	mov    ds:0x13e146,ax
  101bd8:	66 c7 05 42 e1 13 00 	mov    WORD PTR ds:0x13e142,0x8
  101bdf:	08 00 
  101be1:	c6 05 44 e1 13 00 00 	mov    BYTE PTR ds:0x13e144,0x0
  101be8:	c6 05 45 e1 13 00 ee 	mov    BYTE PTR ds:0x13e145,0xee
  101bef:	b8 f3 22 10 00       	mov    eax,0x1022f3
  101bf4:	66 a3 48 e1 13 00    	mov    ds:0x13e148,ax
  101bfa:	b8 f3 22 10 00       	mov    eax,0x1022f3
  101bff:	c1 e8 10             	shr    eax,0x10
  101c02:	66 a3 4e e1 13 00    	mov    ds:0x13e14e,ax
  101c08:	66 c7 05 4a e1 13 00 	mov    WORD PTR ds:0x13e14a,0x8
  101c0f:	08 00 
  101c11:	c6 05 4c e1 13 00 00 	mov    BYTE PTR ds:0x13e14c,0x0
  101c18:	c6 05 4d e1 13 00 ee 	mov    BYTE PTR ds:0x13e14d,0xee
  101c1f:	b8 fd 22 10 00       	mov    eax,0x1022fd
  101c24:	66 a3 50 e1 13 00    	mov    ds:0x13e150,ax
  101c2a:	b8 fd 22 10 00       	mov    eax,0x1022fd
  101c2f:	c1 e8 10             	shr    eax,0x10
  101c32:	66 a3 56 e1 13 00    	mov    ds:0x13e156,ax
  101c38:	66 c7 05 52 e1 13 00 	mov    WORD PTR ds:0x13e152,0x8
  101c3f:	08 00 
  101c41:	c6 05 54 e1 13 00 00 	mov    BYTE PTR ds:0x13e154,0x0
  101c48:	c6 05 55 e1 13 00 ee 	mov    BYTE PTR ds:0x13e155,0xee
  101c4f:	b8 07 23 10 00       	mov    eax,0x102307
  101c54:	66 a3 58 e1 13 00    	mov    ds:0x13e158,ax
  101c5a:	b8 07 23 10 00       	mov    eax,0x102307
  101c5f:	c1 e8 10             	shr    eax,0x10
  101c62:	66 a3 5e e1 13 00    	mov    ds:0x13e15e,ax
  101c68:	66 c7 05 5a e1 13 00 	mov    WORD PTR ds:0x13e15a,0x8
  101c6f:	08 00 
  101c71:	c6 05 5c e1 13 00 00 	mov    BYTE PTR ds:0x13e15c,0x0
  101c78:	c6 05 5d e1 13 00 ee 	mov    BYTE PTR ds:0x13e15d,0xee
  101c7f:	b8 11 23 10 00       	mov    eax,0x102311
  101c84:	66 a3 60 e1 13 00    	mov    ds:0x13e160,ax
  101c8a:	b8 11 23 10 00       	mov    eax,0x102311
  101c8f:	c1 e8 10             	shr    eax,0x10
  101c92:	66 a3 66 e1 13 00    	mov    ds:0x13e166,ax
  101c98:	66 c7 05 62 e1 13 00 	mov    WORD PTR ds:0x13e162,0x8
  101c9f:	08 00 
  101ca1:	c6 05 64 e1 13 00 00 	mov    BYTE PTR ds:0x13e164,0x0
  101ca8:	c6 05 65 e1 13 00 ee 	mov    BYTE PTR ds:0x13e165,0xee
  101caf:	b8 1b 23 10 00       	mov    eax,0x10231b
  101cb4:	66 a3 68 e1 13 00    	mov    ds:0x13e168,ax
  101cba:	b8 1b 23 10 00       	mov    eax,0x10231b
  101cbf:	c1 e8 10             	shr    eax,0x10
  101cc2:	66 a3 6e e1 13 00    	mov    ds:0x13e16e,ax
  101cc8:	66 c7 05 6a e1 13 00 	mov    WORD PTR ds:0x13e16a,0x8
  101ccf:	08 00 
  101cd1:	c6 05 6c e1 13 00 00 	mov    BYTE PTR ds:0x13e16c,0x0
  101cd8:	c6 05 6d e1 13 00 ee 	mov    BYTE PTR ds:0x13e16d,0xee
  101cdf:	b8 25 23 10 00       	mov    eax,0x102325
  101ce4:	66 a3 70 e1 13 00    	mov    ds:0x13e170,ax
  101cea:	b8 25 23 10 00       	mov    eax,0x102325
  101cef:	c1 e8 10             	shr    eax,0x10
  101cf2:	66 a3 76 e1 13 00    	mov    ds:0x13e176,ax
  101cf8:	66 c7 05 72 e1 13 00 	mov    WORD PTR ds:0x13e172,0x8
  101cff:	08 00 
  101d01:	c6 05 74 e1 13 00 00 	mov    BYTE PTR ds:0x13e174,0x0
  101d08:	c6 05 75 e1 13 00 ee 	mov    BYTE PTR ds:0x13e175,0xee
  101d0f:	b8 2f 23 10 00       	mov    eax,0x10232f
  101d14:	66 a3 78 e1 13 00    	mov    ds:0x13e178,ax
  101d1a:	b8 2f 23 10 00       	mov    eax,0x10232f
  101d1f:	c1 e8 10             	shr    eax,0x10
  101d22:	66 a3 7e e1 13 00    	mov    ds:0x13e17e,ax
  101d28:	66 c7 05 7a e1 13 00 	mov    WORD PTR ds:0x13e17a,0x8
  101d2f:	08 00 
  101d31:	c6 05 7c e1 13 00 00 	mov    BYTE PTR ds:0x13e17c,0x0
  101d38:	c6 05 7d e1 13 00 ee 	mov    BYTE PTR ds:0x13e17d,0xee
  101d3f:	b8 39 23 10 00       	mov    eax,0x102339
  101d44:	66 a3 80 e1 13 00    	mov    ds:0x13e180,ax
  101d4a:	b8 39 23 10 00       	mov    eax,0x102339
  101d4f:	c1 e8 10             	shr    eax,0x10
  101d52:	66 a3 86 e1 13 00    	mov    ds:0x13e186,ax
  101d58:	66 c7 05 82 e1 13 00 	mov    WORD PTR ds:0x13e182,0x8
  101d5f:	08 00 
  101d61:	c6 05 84 e1 13 00 00 	mov    BYTE PTR ds:0x13e184,0x0
  101d68:	c6 05 85 e1 13 00 ee 	mov    BYTE PTR ds:0x13e185,0xee
  101d6f:	b8 41 23 10 00       	mov    eax,0x102341
  101d74:	66 a3 88 e1 13 00    	mov    ds:0x13e188,ax
  101d7a:	b8 41 23 10 00       	mov    eax,0x102341
  101d7f:	c1 e8 10             	shr    eax,0x10
  101d82:	66 a3 8e e1 13 00    	mov    ds:0x13e18e,ax
  101d88:	66 c7 05 8a e1 13 00 	mov    WORD PTR ds:0x13e18a,0x8
  101d8f:	08 00 
  101d91:	c6 05 8c e1 13 00 00 	mov    BYTE PTR ds:0x13e18c,0x0
  101d98:	c6 05 8d e1 13 00 ee 	mov    BYTE PTR ds:0x13e18d,0xee
  101d9f:	b8 4b 23 10 00       	mov    eax,0x10234b
  101da4:	66 a3 90 e1 13 00    	mov    ds:0x13e190,ax
  101daa:	b8 4b 23 10 00       	mov    eax,0x10234b
  101daf:	c1 e8 10             	shr    eax,0x10
  101db2:	66 a3 96 e1 13 00    	mov    ds:0x13e196,ax
  101db8:	66 c7 05 92 e1 13 00 	mov    WORD PTR ds:0x13e192,0x8
  101dbf:	08 00 
  101dc1:	c6 05 94 e1 13 00 00 	mov    BYTE PTR ds:0x13e194,0x0
  101dc8:	c6 05 95 e1 13 00 ee 	mov    BYTE PTR ds:0x13e195,0xee
  101dcf:	b8 53 23 10 00       	mov    eax,0x102353
  101dd4:	66 a3 98 e1 13 00    	mov    ds:0x13e198,ax
  101dda:	b8 53 23 10 00       	mov    eax,0x102353
  101ddf:	c1 e8 10             	shr    eax,0x10
  101de2:	66 a3 9e e1 13 00    	mov    ds:0x13e19e,ax
  101de8:	66 c7 05 9a e1 13 00 	mov    WORD PTR ds:0x13e19a,0x8
  101def:	08 00 
  101df1:	c6 05 9c e1 13 00 00 	mov    BYTE PTR ds:0x13e19c,0x0
  101df8:	c6 05 9d e1 13 00 ee 	mov    BYTE PTR ds:0x13e19d,0xee
  101dff:	b8 5b 23 10 00       	mov    eax,0x10235b
  101e04:	66 a3 a0 e1 13 00    	mov    ds:0x13e1a0,ax
  101e0a:	b8 5b 23 10 00       	mov    eax,0x10235b
  101e0f:	c1 e8 10             	shr    eax,0x10
  101e12:	66 a3 a6 e1 13 00    	mov    ds:0x13e1a6,ax
  101e18:	66 c7 05 a2 e1 13 00 	mov    WORD PTR ds:0x13e1a2,0x8
  101e1f:	08 00 
  101e21:	c6 05 a4 e1 13 00 00 	mov    BYTE PTR ds:0x13e1a4,0x0
  101e28:	c6 05 a5 e1 13 00 ee 	mov    BYTE PTR ds:0x13e1a5,0xee
  101e2f:	b8 63 23 10 00       	mov    eax,0x102363
  101e34:	66 a3 a8 e1 13 00    	mov    ds:0x13e1a8,ax
  101e3a:	b8 63 23 10 00       	mov    eax,0x102363
  101e3f:	c1 e8 10             	shr    eax,0x10
  101e42:	66 a3 ae e1 13 00    	mov    ds:0x13e1ae,ax
  101e48:	66 c7 05 aa e1 13 00 	mov    WORD PTR ds:0x13e1aa,0x8
  101e4f:	08 00 
  101e51:	c6 05 ac e1 13 00 00 	mov    BYTE PTR ds:0x13e1ac,0x0
  101e58:	c6 05 ad e1 13 00 ee 	mov    BYTE PTR ds:0x13e1ad,0xee
  101e5f:	b8 6b 23 10 00       	mov    eax,0x10236b
  101e64:	66 a3 b0 e1 13 00    	mov    ds:0x13e1b0,ax
  101e6a:	b8 6b 23 10 00       	mov    eax,0x10236b
  101e6f:	c1 e8 10             	shr    eax,0x10
  101e72:	66 a3 b6 e1 13 00    	mov    ds:0x13e1b6,ax
  101e78:	66 c7 05 b2 e1 13 00 	mov    WORD PTR ds:0x13e1b2,0x8
  101e7f:	08 00 
  101e81:	c6 05 b4 e1 13 00 00 	mov    BYTE PTR ds:0x13e1b4,0x0
  101e88:	c6 05 b5 e1 13 00 ee 	mov    BYTE PTR ds:0x13e1b5,0xee
  101e8f:	b8 73 23 10 00       	mov    eax,0x102373
  101e94:	66 a3 b8 e1 13 00    	mov    ds:0x13e1b8,ax
  101e9a:	b8 73 23 10 00       	mov    eax,0x102373
  101e9f:	c1 e8 10             	shr    eax,0x10
  101ea2:	66 a3 be e1 13 00    	mov    ds:0x13e1be,ax
  101ea8:	66 c7 05 ba e1 13 00 	mov    WORD PTR ds:0x13e1ba,0x8
  101eaf:	08 00 
  101eb1:	c6 05 bc e1 13 00 00 	mov    BYTE PTR ds:0x13e1bc,0x0
  101eb8:	c6 05 bd e1 13 00 ee 	mov    BYTE PTR ds:0x13e1bd,0xee
  101ebf:	b8 7d 23 10 00       	mov    eax,0x10237d
  101ec4:	66 a3 c0 e1 13 00    	mov    ds:0x13e1c0,ax
  101eca:	b8 7d 23 10 00       	mov    eax,0x10237d
  101ecf:	c1 e8 10             	shr    eax,0x10
  101ed2:	66 a3 c6 e1 13 00    	mov    ds:0x13e1c6,ax
  101ed8:	66 c7 05 c2 e1 13 00 	mov    WORD PTR ds:0x13e1c2,0x8
  101edf:	08 00 
  101ee1:	c6 05 c4 e1 13 00 00 	mov    BYTE PTR ds:0x13e1c4,0x0
  101ee8:	c6 05 c5 e1 13 00 ee 	mov    BYTE PTR ds:0x13e1c5,0xee
  101eef:	b8 87 23 10 00       	mov    eax,0x102387
  101ef4:	66 a3 c8 e1 13 00    	mov    ds:0x13e1c8,ax
  101efa:	b8 87 23 10 00       	mov    eax,0x102387
  101eff:	c1 e8 10             	shr    eax,0x10
  101f02:	66 a3 ce e1 13 00    	mov    ds:0x13e1ce,ax
  101f08:	66 c7 05 ca e1 13 00 	mov    WORD PTR ds:0x13e1ca,0x8
  101f0f:	08 00 
  101f11:	c6 05 cc e1 13 00 00 	mov    BYTE PTR ds:0x13e1cc,0x0
  101f18:	c6 05 cd e1 13 00 ee 	mov    BYTE PTR ds:0x13e1cd,0xee
  101f1f:	b8 91 23 10 00       	mov    eax,0x102391
  101f24:	66 a3 d0 e1 13 00    	mov    ds:0x13e1d0,ax
  101f2a:	b8 91 23 10 00       	mov    eax,0x102391
  101f2f:	c1 e8 10             	shr    eax,0x10
  101f32:	66 a3 d6 e1 13 00    	mov    ds:0x13e1d6,ax
  101f38:	66 c7 05 d2 e1 13 00 	mov    WORD PTR ds:0x13e1d2,0x8
  101f3f:	08 00 
  101f41:	c6 05 d4 e1 13 00 00 	mov    BYTE PTR ds:0x13e1d4,0x0
  101f48:	c6 05 d5 e1 13 00 ee 	mov    BYTE PTR ds:0x13e1d5,0xee
  101f4f:	b8 98 23 10 00       	mov    eax,0x102398
  101f54:	66 a3 40 e2 13 00    	mov    ds:0x13e240,ax
  101f5a:	b8 98 23 10 00       	mov    eax,0x102398
  101f5f:	c1 e8 10             	shr    eax,0x10
  101f62:	66 a3 46 e2 13 00    	mov    ds:0x13e246,ax
  101f68:	66 c7 05 42 e2 13 00 	mov    WORD PTR ds:0x13e242,0x8
  101f6f:	08 00 
  101f71:	c6 05 44 e2 13 00 00 	mov    BYTE PTR ds:0x13e244,0x0
  101f78:	c6 05 45 e2 13 00 ee 	mov    BYTE PTR ds:0x13e245,0xee
  101f7f:	b8 9f 23 10 00       	mov    eax,0x10239f
  101f84:	66 a3 48 e2 13 00    	mov    ds:0x13e248,ax
  101f8a:	b8 9f 23 10 00       	mov    eax,0x10239f
  101f8f:	c1 e8 10             	shr    eax,0x10
  101f92:	66 a3 4e e2 13 00    	mov    ds:0x13e24e,ax
  101f98:	66 c7 05 4a e2 13 00 	mov    WORD PTR ds:0x13e24a,0x8
  101f9f:	08 00 
  101fa1:	c6 05 4c e2 13 00 00 	mov    BYTE PTR ds:0x13e24c,0x0
  101fa8:	c6 05 4d e2 13 00 ee 	mov    BYTE PTR ds:0x13e24d,0xee
  101faf:	b8 a6 23 10 00       	mov    eax,0x1023a6
  101fb4:	66 a3 50 e2 13 00    	mov    ds:0x13e250,ax
  101fba:	b8 a6 23 10 00       	mov    eax,0x1023a6
  101fbf:	c1 e8 10             	shr    eax,0x10
  101fc2:	66 a3 56 e2 13 00    	mov    ds:0x13e256,ax
  101fc8:	66 c7 05 52 e2 13 00 	mov    WORD PTR ds:0x13e252,0x8
  101fcf:	08 00 
  101fd1:	c6 05 54 e2 13 00 00 	mov    BYTE PTR ds:0x13e254,0x0
  101fd8:	c6 05 55 e2 13 00 ee 	mov    BYTE PTR ds:0x13e255,0xee
  101fdf:	b8 ad 23 10 00       	mov    eax,0x1023ad
  101fe4:	66 a3 58 e2 13 00    	mov    ds:0x13e258,ax
  101fea:	b8 ad 23 10 00       	mov    eax,0x1023ad
  101fef:	c1 e8 10             	shr    eax,0x10
  101ff2:	66 a3 5e e2 13 00    	mov    ds:0x13e25e,ax
  101ff8:	66 c7 05 5a e2 13 00 	mov    WORD PTR ds:0x13e25a,0x8
  101fff:	08 00 
  102001:	c6 05 5c e2 13 00 00 	mov    BYTE PTR ds:0x13e25c,0x0
  102008:	c6 05 5d e2 13 00 ee 	mov    BYTE PTR ds:0x13e25d,0xee
  10200f:	b8 b4 23 10 00       	mov    eax,0x1023b4
  102014:	66 a3 60 e2 13 00    	mov    ds:0x13e260,ax
  10201a:	b8 b4 23 10 00       	mov    eax,0x1023b4
  10201f:	c1 e8 10             	shr    eax,0x10
  102022:	66 a3 66 e2 13 00    	mov    ds:0x13e266,ax
  102028:	66 c7 05 62 e2 13 00 	mov    WORD PTR ds:0x13e262,0x8
  10202f:	08 00 
  102031:	c6 05 64 e2 13 00 00 	mov    BYTE PTR ds:0x13e264,0x0
  102038:	c6 05 65 e2 13 00 ee 	mov    BYTE PTR ds:0x13e265,0xee
  10203f:	b8 bb 23 10 00       	mov    eax,0x1023bb
  102044:	66 a3 68 e2 13 00    	mov    ds:0x13e268,ax
  10204a:	b8 bb 23 10 00       	mov    eax,0x1023bb
  10204f:	c1 e8 10             	shr    eax,0x10
  102052:	66 a3 6e e2 13 00    	mov    ds:0x13e26e,ax
  102058:	66 c7 05 6a e2 13 00 	mov    WORD PTR ds:0x13e26a,0x8
  10205f:	08 00 
  102061:	c6 05 6c e2 13 00 00 	mov    BYTE PTR ds:0x13e26c,0x0
  102068:	c6 05 6d e2 13 00 ee 	mov    BYTE PTR ds:0x13e26d,0xee
  10206f:	b8 c2 23 10 00       	mov    eax,0x1023c2
  102074:	66 a3 70 e2 13 00    	mov    ds:0x13e270,ax
  10207a:	b8 c2 23 10 00       	mov    eax,0x1023c2
  10207f:	c1 e8 10             	shr    eax,0x10
  102082:	66 a3 76 e2 13 00    	mov    ds:0x13e276,ax
  102088:	66 c7 05 72 e2 13 00 	mov    WORD PTR ds:0x13e272,0x8
  10208f:	08 00 
  102091:	c6 05 74 e2 13 00 00 	mov    BYTE PTR ds:0x13e274,0x0
  102098:	c6 05 75 e2 13 00 ee 	mov    BYTE PTR ds:0x13e275,0xee
  10209f:	b8 c9 23 10 00       	mov    eax,0x1023c9
  1020a4:	66 a3 78 e2 13 00    	mov    ds:0x13e278,ax
  1020aa:	b8 c9 23 10 00       	mov    eax,0x1023c9
  1020af:	c1 e8 10             	shr    eax,0x10
  1020b2:	66 a3 7e e2 13 00    	mov    ds:0x13e27e,ax
  1020b8:	66 c7 05 7a e2 13 00 	mov    WORD PTR ds:0x13e27a,0x8
  1020bf:	08 00 
  1020c1:	c6 05 7c e2 13 00 00 	mov    BYTE PTR ds:0x13e27c,0x0
  1020c8:	c6 05 7d e2 13 00 ee 	mov    BYTE PTR ds:0x13e27d,0xee
  1020cf:	b8 d0 23 10 00       	mov    eax,0x1023d0
  1020d4:	66 a3 80 e2 13 00    	mov    ds:0x13e280,ax
  1020da:	b8 d0 23 10 00       	mov    eax,0x1023d0
  1020df:	c1 e8 10             	shr    eax,0x10
  1020e2:	66 a3 86 e2 13 00    	mov    ds:0x13e286,ax
  1020e8:	66 c7 05 82 e2 13 00 	mov    WORD PTR ds:0x13e282,0x8
  1020ef:	08 00 
  1020f1:	c6 05 84 e2 13 00 00 	mov    BYTE PTR ds:0x13e284,0x0
  1020f8:	c6 05 85 e2 13 00 ee 	mov    BYTE PTR ds:0x13e285,0xee
  1020ff:	b8 d7 23 10 00       	mov    eax,0x1023d7
  102104:	66 a3 88 e2 13 00    	mov    ds:0x13e288,ax
  10210a:	b8 d7 23 10 00       	mov    eax,0x1023d7
  10210f:	c1 e8 10             	shr    eax,0x10
  102112:	66 a3 8e e2 13 00    	mov    ds:0x13e28e,ax
  102118:	66 c7 05 8a e2 13 00 	mov    WORD PTR ds:0x13e28a,0x8
  10211f:	08 00 
  102121:	c6 05 8c e2 13 00 00 	mov    BYTE PTR ds:0x13e28c,0x0
  102128:	c6 05 8d e2 13 00 ee 	mov    BYTE PTR ds:0x13e28d,0xee
  10212f:	b8 de 23 10 00       	mov    eax,0x1023de
  102134:	66 a3 90 e2 13 00    	mov    ds:0x13e290,ax
  10213a:	b8 de 23 10 00       	mov    eax,0x1023de
  10213f:	c1 e8 10             	shr    eax,0x10
  102142:	66 a3 96 e2 13 00    	mov    ds:0x13e296,ax
  102148:	66 c7 05 92 e2 13 00 	mov    WORD PTR ds:0x13e292,0x8
  10214f:	08 00 
  102151:	c6 05 94 e2 13 00 00 	mov    BYTE PTR ds:0x13e294,0x0
  102158:	c6 05 95 e2 13 00 ee 	mov    BYTE PTR ds:0x13e295,0xee
  10215f:	b8 e5 23 10 00       	mov    eax,0x1023e5
  102164:	66 a3 98 e2 13 00    	mov    ds:0x13e298,ax
  10216a:	b8 e5 23 10 00       	mov    eax,0x1023e5
  10216f:	c1 e8 10             	shr    eax,0x10
  102172:	66 a3 9e e2 13 00    	mov    ds:0x13e29e,ax
  102178:	66 c7 05 9a e2 13 00 	mov    WORD PTR ds:0x13e29a,0x8
  10217f:	08 00 
  102181:	c6 05 9c e2 13 00 00 	mov    BYTE PTR ds:0x13e29c,0x0
  102188:	c6 05 9d e2 13 00 ee 	mov    BYTE PTR ds:0x13e29d,0xee
  10218f:	b8 ec 23 10 00       	mov    eax,0x1023ec
  102194:	66 a3 a0 e2 13 00    	mov    ds:0x13e2a0,ax
  10219a:	b8 ec 23 10 00       	mov    eax,0x1023ec
  10219f:	c1 e8 10             	shr    eax,0x10
  1021a2:	66 a3 a6 e2 13 00    	mov    ds:0x13e2a6,ax
  1021a8:	66 c7 05 a2 e2 13 00 	mov    WORD PTR ds:0x13e2a2,0x8
  1021af:	08 00 
  1021b1:	c6 05 a4 e2 13 00 00 	mov    BYTE PTR ds:0x13e2a4,0x0
  1021b8:	c6 05 a5 e2 13 00 ee 	mov    BYTE PTR ds:0x13e2a5,0xee
  1021bf:	b8 f3 23 10 00       	mov    eax,0x1023f3
  1021c4:	66 a3 a8 e2 13 00    	mov    ds:0x13e2a8,ax
  1021ca:	b8 f3 23 10 00       	mov    eax,0x1023f3
  1021cf:	c1 e8 10             	shr    eax,0x10
  1021d2:	66 a3 ae e2 13 00    	mov    ds:0x13e2ae,ax
  1021d8:	66 c7 05 aa e2 13 00 	mov    WORD PTR ds:0x13e2aa,0x8
  1021df:	08 00 
  1021e1:	c6 05 ac e2 13 00 00 	mov    BYTE PTR ds:0x13e2ac,0x0
  1021e8:	c6 05 ad e2 13 00 ee 	mov    BYTE PTR ds:0x13e2ad,0xee
  1021ef:	b8 fa 23 10 00       	mov    eax,0x1023fa
  1021f4:	66 a3 b0 e2 13 00    	mov    ds:0x13e2b0,ax
  1021fa:	b8 fa 23 10 00       	mov    eax,0x1023fa
  1021ff:	c1 e8 10             	shr    eax,0x10
  102202:	66 a3 b6 e2 13 00    	mov    ds:0x13e2b6,ax
  102208:	66 c7 05 b2 e2 13 00 	mov    WORD PTR ds:0x13e2b2,0x8
  10220f:	08 00 
  102211:	c6 05 b4 e2 13 00 00 	mov    BYTE PTR ds:0x13e2b4,0x0
  102218:	c6 05 b5 e2 13 00 ee 	mov    BYTE PTR ds:0x13e2b5,0xee
  10221f:	b8 01 24 10 00       	mov    eax,0x102401
  102224:	66 a3 b8 e2 13 00    	mov    ds:0x13e2b8,ax
  10222a:	b8 01 24 10 00       	mov    eax,0x102401
  10222f:	c1 e8 10             	shr    eax,0x10
  102232:	66 a3 be e2 13 00    	mov    ds:0x13e2be,ax
  102238:	66 c7 05 ba e2 13 00 	mov    WORD PTR ds:0x13e2ba,0x8
  10223f:	08 00 
  102241:	c6 05 bc e2 13 00 00 	mov    BYTE PTR ds:0x13e2bc,0x0
  102248:	c6 05 bd e2 13 00 ee 	mov    BYTE PTR ds:0x13e2bd,0xee
  10224f:	b8 08 24 10 00       	mov    eax,0x102408
  102254:	66 a3 40 e5 13 00    	mov    ds:0x13e540,ax
  10225a:	b8 08 24 10 00       	mov    eax,0x102408
  10225f:	c1 e8 10             	shr    eax,0x10
  102262:	66 a3 46 e5 13 00    	mov    ds:0x13e546,ax
  102268:	66 c7 05 42 e5 13 00 	mov    WORD PTR ds:0x13e542,0x8
  10226f:	08 00 
  102271:	c6 05 44 e5 13 00 00 	mov    BYTE PTR ds:0x13e544,0x0
  102278:	c6 05 45 e5 13 00 ee 	mov    BYTE PTR ds:0x13e545,0xee
  10227f:	b8 0f 24 10 00       	mov    eax,0x10240f
  102284:	66 a3 48 e5 13 00    	mov    ds:0x13e548,ax
  10228a:	b8 0f 24 10 00       	mov    eax,0x10240f
  10228f:	c1 e8 10             	shr    eax,0x10
  102292:	66 a3 4e e5 13 00    	mov    ds:0x13e54e,ax
  102298:	66 c7 05 4a e5 13 00 	mov    WORD PTR ds:0x13e54a,0x8
  10229f:	08 00 
  1022a1:	c6 05 4c e5 13 00 00 	mov    BYTE PTR ds:0x13e54c,0x0
  1022a8:	c6 05 4d e5 13 00 ee 	mov    BYTE PTR ds:0x13e54d,0xee
  1022af:	66 c7 05 00 e1 13 00 	mov    WORD PTR ds:0x13e100,0x800
  1022b6:	00 08 
  1022b8:	b8 40 e1 13 00       	mov    eax,0x13e140
  1022bd:	a3 02 e1 13 00       	mov    ds:0x13e102,eax
  1022c2:	83 ec 0c             	sub    esp,0xc
  1022c5:	68 00 e1 13 00       	push   0x13e100
  1022ca:	e8 11 00 00 00       	call   1022e0 <load_idt>
  1022cf:	83 c4 10             	add    esp,0x10
  1022d2:	c9                   	leave  
  1022d3:	c3                   	ret    
  1022d4:	66 90                	xchg   ax,ax
  1022d6:	66 90                	xchg   ax,ax
  1022d8:	66 90                	xchg   ax,ax
  1022da:	66 90                	xchg   ax,ax
  1022dc:	66 90                	xchg   ax,ax
  1022de:	66 90                	xchg   ax,ax

001022e0 <load_idt>:
  1022e0:	8b 44 24 04          	mov    eax,DWORD PTR [esp+0x4]
  1022e4:	0f 01 18             	lidtd  [eax]
  1022e7:	fb                   	sti    
  1022e8:	c3                   	ret    

001022e9 <int_0>:
  1022e9:	fa                   	cli    
  1022ea:	6a 00                	push   0x0
  1022ec:	6a 00                	push   0x0
  1022ee:	e9 23 01 00 00       	jmp    102416 <asm_intr>

001022f3 <int_1>:
  1022f3:	fa                   	cli    
  1022f4:	6a 00                	push   0x0
  1022f6:	6a 01                	push   0x1
  1022f8:	e9 19 01 00 00       	jmp    102416 <asm_intr>

001022fd <int_2>:
  1022fd:	fa                   	cli    
  1022fe:	6a 00                	push   0x0
  102300:	6a 02                	push   0x2
  102302:	e9 0f 01 00 00       	jmp    102416 <asm_intr>

00102307 <int_3>:
  102307:	fa                   	cli    
  102308:	6a 00                	push   0x0
  10230a:	6a 03                	push   0x3
  10230c:	e9 05 01 00 00       	jmp    102416 <asm_intr>

00102311 <int_4>:
  102311:	fa                   	cli    
  102312:	6a 00                	push   0x0
  102314:	6a 04                	push   0x4
  102316:	e9 fb 00 00 00       	jmp    102416 <asm_intr>

0010231b <int_5>:
  10231b:	fa                   	cli    
  10231c:	6a 00                	push   0x0
  10231e:	6a 05                	push   0x5
  102320:	e9 f1 00 00 00       	jmp    102416 <asm_intr>

00102325 <int_6>:
  102325:	fa                   	cli    
  102326:	6a 00                	push   0x0
  102328:	6a 06                	push   0x6
  10232a:	e9 e7 00 00 00       	jmp    102416 <asm_intr>

0010232f <int_7>:
  10232f:	fa                   	cli    
  102330:	6a 00                	push   0x0
  102332:	6a 07                	push   0x7
  102334:	e9 dd 00 00 00       	jmp    102416 <asm_intr>

00102339 <int_8>:
  102339:	fa                   	cli    
  10233a:	6a 08                	push   0x8
  10233c:	e9 d5 00 00 00       	jmp    102416 <asm_intr>

00102341 <int_9>:
  102341:	fa                   	cli    
  102342:	6a 00                	push   0x0
  102344:	6a 09                	push   0x9
  102346:	e9 cb 00 00 00       	jmp    102416 <asm_intr>

0010234b <int_10>:
  10234b:	fa                   	cli    
  10234c:	6a 0a                	push   0xa
  10234e:	e9 c3 00 00 00       	jmp    102416 <asm_intr>

00102353 <int_11>:
  102353:	fa                   	cli    
  102354:	6a 0b                	push   0xb
  102356:	e9 bb 00 00 00       	jmp    102416 <asm_intr>

0010235b <int_12>:
  10235b:	fa                   	cli    
  10235c:	6a 0c                	push   0xc
  10235e:	e9 b3 00 00 00       	jmp    102416 <asm_intr>

00102363 <int_13>:
  102363:	fa                   	cli    
  102364:	6a 0d                	push   0xd
  102366:	e9 ab 00 00 00       	jmp    102416 <asm_intr>

0010236b <int_14>:
  10236b:	fa                   	cli    
  10236c:	6a 0e                	push   0xe
  10236e:	e9 a3 00 00 00       	jmp    102416 <asm_intr>

00102373 <int_15>:
  102373:	fa                   	cli    
  102374:	6a 00                	push   0x0
  102376:	6a 0f                	push   0xf
  102378:	e9 99 00 00 00       	jmp    102416 <asm_intr>

0010237d <int_16>:
  10237d:	fa                   	cli    
  10237e:	6a 00                	push   0x0
  102380:	6a 10                	push   0x10
  102382:	e9 8f 00 00 00       	jmp    102416 <asm_intr>

00102387 <int_17>:
  102387:	fa                   	cli    
  102388:	6a 00                	push   0x0
  10238a:	6a 11                	push   0x11
  10238c:	e9 85 00 00 00       	jmp    102416 <asm_intr>

00102391 <int_18>:
  102391:	fa                   	cli    
  102392:	6a 00                	push   0x0
  102394:	6a 12                	push   0x12
  102396:	eb 7e                	jmp    102416 <asm_intr>

00102398 <int_32>:
  102398:	fa                   	cli    
  102399:	6a 00                	push   0x0
  10239b:	6a 20                	push   0x20
  10239d:	eb 77                	jmp    102416 <asm_intr>

0010239f <int_33>:
  10239f:	fa                   	cli    
  1023a0:	6a 00                	push   0x0
  1023a2:	6a 21                	push   0x21
  1023a4:	eb 70                	jmp    102416 <asm_intr>

001023a6 <int_34>:
  1023a6:	fa                   	cli    
  1023a7:	6a 00                	push   0x0
  1023a9:	6a 22                	push   0x22
  1023ab:	eb 69                	jmp    102416 <asm_intr>

001023ad <int_35>:
  1023ad:	fa                   	cli    
  1023ae:	6a 00                	push   0x0
  1023b0:	6a 23                	push   0x23
  1023b2:	eb 62                	jmp    102416 <asm_intr>

001023b4 <int_36>:
  1023b4:	fa                   	cli    
  1023b5:	6a 00                	push   0x0
  1023b7:	6a 24                	push   0x24
  1023b9:	eb 5b                	jmp    102416 <asm_intr>

001023bb <int_37>:
  1023bb:	fa                   	cli    
  1023bc:	6a 00                	push   0x0
  1023be:	6a 25                	push   0x25
  1023c0:	eb 54                	jmp    102416 <asm_intr>

001023c2 <int_38>:
  1023c2:	fa                   	cli    
  1023c3:	6a 00                	push   0x0
  1023c5:	6a 26                	push   0x26
  1023c7:	eb 4d                	jmp    102416 <asm_intr>

001023c9 <int_39>:
  1023c9:	fa                   	cli    
  1023ca:	6a 00                	push   0x0
  1023cc:	6a 27                	push   0x27
  1023ce:	eb 46                	jmp    102416 <asm_intr>

001023d0 <int_40>:
  1023d0:	fa                   	cli    
  1023d1:	6a 00                	push   0x0
  1023d3:	6a 28                	push   0x28
  1023d5:	eb 3f                	jmp    102416 <asm_intr>

001023d7 <int_41>:
  1023d7:	fa                   	cli    
  1023d8:	6a 00                	push   0x0
  1023da:	6a 29                	push   0x29
  1023dc:	eb 38                	jmp    102416 <asm_intr>

001023de <int_42>:
  1023de:	fa                   	cli    
  1023df:	6a 00                	push   0x0
  1023e1:	6a 2a                	push   0x2a
  1023e3:	eb 31                	jmp    102416 <asm_intr>

001023e5 <int_43>:
  1023e5:	fa                   	cli    
  1023e6:	6a 00                	push   0x0
  1023e8:	6a 2b                	push   0x2b
  1023ea:	eb 2a                	jmp    102416 <asm_intr>

001023ec <int_44>:
  1023ec:	fa                   	cli    
  1023ed:	6a 00                	push   0x0
  1023ef:	6a 2c                	push   0x2c
  1023f1:	eb 23                	jmp    102416 <asm_intr>

001023f3 <int_45>:
  1023f3:	fa                   	cli    
  1023f4:	6a 00                	push   0x0
  1023f6:	6a 2d                	push   0x2d
  1023f8:	eb 1c                	jmp    102416 <asm_intr>

001023fa <int_46>:
  1023fa:	fa                   	cli    
  1023fb:	6a 00                	push   0x0
  1023fd:	6a 2e                	push   0x2e
  1023ff:	eb 15                	jmp    102416 <asm_intr>

00102401 <int_47>:
  102401:	fa                   	cli    
  102402:	6a 00                	push   0x0
  102404:	6a 2f                	push   0x2f
  102406:	eb 0e                	jmp    102416 <asm_intr>

00102408 <int_128>:
  102408:	fa                   	cli    
  102409:	6a 00                	push   0x0
  10240b:	6a 80                	push   0xffffff80
  10240d:	eb 07                	jmp    102416 <asm_intr>

0010240f <int_129>:
  10240f:	fa                   	cli    
  102410:	6a 00                	push   0x0
  102412:	6a 81                	push   0xffffff81
  102414:	eb 00                	jmp    102416 <asm_intr>

00102416 <asm_intr>:
  102416:	60                   	pusha  
  102417:	66 8c d8             	mov    ax,ds
  10241a:	66 50                	push   ax
  10241c:	66 8c c0             	mov    ax,es
  10241f:	66 50                	push   ax
  102421:	66 8c e0             	mov    ax,fs
  102424:	66 50                	push   ax
  102426:	66 8c e8             	mov    ax,gs
  102429:	66 50                	push   ax
  10242b:	66 b8 10 00          	mov    ax,0x10
  10242f:	8e d8                	mov    ds,eax
  102431:	8e c0                	mov    es,eax
  102433:	8e e0                	mov    fs,eax
  102435:	8e e8                	mov    gs,eax
  102437:	54                   	push   esp
  102438:	e8 a6 f6 ff ff       	call   101ae3 <c_intr>
  10243d:	58                   	pop    eax
  10243e:	66 58                	pop    ax
  102440:	0f b7 c0             	movzx  eax,ax
  102443:	8e d8                	mov    ds,eax
  102445:	66 58                	pop    ax
  102447:	8e c0                	mov    es,eax
  102449:	66 58                	pop    ax
  10244b:	8e e0                	mov    fs,eax
  10244d:	66 58                	pop    ax
  10244f:	8e e8                	mov    gs,eax
  102451:	61                   	popa   
  102452:	83 c4 08             	add    esp,0x8
  102455:	fb                   	sti    
  102456:	cf                   	iret   

00102457 <bios_intr>:
  102457:	55                   	push   ebp
  102458:	89 e5                	mov    ebp,esp
  10245a:	83 ec 18             	sub    esp,0x18
  10245d:	9c                   	pushf  
  10245e:	58                   	pop    eax
  10245f:	fa                   	cli    
  102460:	89 45 f4             	mov    DWORD PTR [ebp-0xc],eax
  102463:	8b 45 08             	mov    eax,DWORD PTR [ebp+0x8]
  102466:	a2 18 80 00 00       	mov    ds:0x8018,al
  10246b:	e8 a9 5b f0 ff       	call   8019 <pmode_to_real>
  102470:	83 ec 0c             	sub    esp,0xc
  102473:	68 00 e1 13 00       	push   0x13e100
  102478:	e8 63 fe ff ff       	call   1022e0 <load_idt>
  10247d:	83 c4 10             	add    esp,0x10
  102480:	8b 45 f4             	mov    eax,DWORD PTR [ebp-0xc]
  102483:	50                   	push   eax
  102484:	9d                   	popf   
  102485:	c9                   	leave  
  102486:	c3                   	ret    

00102487 <vbe_load_data>:
  102487:	55                   	push   ebp
  102488:	89 e5                	mov    ebp,esp
  10248a:	83 ec 18             	sub    esp,0x18
  10248d:	66 c7 05 00 80 00 00 	mov    WORD PTR ds:0x8000,0x4f00
  102494:	00 4f 
  102496:	b8 03 81 00 00       	mov    eax,0x8103
  10249b:	66 a3 0a 80 00 00    	mov    ds:0x800a,ax
  1024a1:	66 c7 05 12 80 00 00 	mov    WORD PTR ds:0x8012,0x0
  1024a8:	00 00 
  1024aa:	83 ec 0c             	sub    esp,0xc
  1024ad:	6a 10                	push   0x10
  1024af:	e8 a3 ff ff ff       	call   102457 <bios_intr>
  1024b4:	83 c4 10             	add    esp,0x10
  1024b7:	0f b7 05 13 81 00 00 	movzx  eax,WORD PTR ds:0x8113
  1024be:	0f b7 c0             	movzx  eax,ax
  1024c1:	8d 14 00             	lea    edx,[eax+eax*1]
  1024c4:	0f b7 05 11 81 00 00 	movzx  eax,WORD PTR ds:0x8111
  1024cb:	0f b7 c0             	movzx  eax,ax
  1024ce:	09 d0                	or     eax,edx
  1024d0:	89 45 f0             	mov    DWORD PTR [ebp-0x10],eax
  1024d3:	c7 45 f4 00 00 00 00 	mov    DWORD PTR [ebp-0xc],0x0
  1024da:	eb 42                	jmp    10251e <vbe_load_data+0x97>
  1024dc:	66 c7 05 00 80 00 00 	mov    WORD PTR ds:0x8000,0x4f01
  1024e3:	01 4f 
  1024e5:	8b 45 f4             	mov    eax,DWORD PTR [ebp-0xc]
  1024e8:	8d 14 00             	lea    edx,[eax+eax*1]
  1024eb:	8b 45 f0             	mov    eax,DWORD PTR [ebp-0x10]
  1024ee:	01 d0                	add    eax,edx
  1024f0:	0f b7 00             	movzx  eax,WORD PTR [eax]
  1024f3:	66 a3 04 80 00 00    	mov    ds:0x8004,ax
  1024f9:	b8 03 83 00 00       	mov    eax,0x8303
  1024fe:	66 a3 0a 80 00 00    	mov    ds:0x800a,ax
  102504:	66 c7 05 12 80 00 00 	mov    WORD PTR ds:0x8012,0x0
  10250b:	00 00 
  10250d:	83 ec 0c             	sub    esp,0xc
  102510:	6a 10                	push   0x10
  102512:	e8 40 ff ff ff       	call   102457 <bios_intr>
  102517:	83 c4 10             	add    esp,0x10
  10251a:	83 45 f4 01          	add    DWORD PTR [ebp-0xc],0x1
  10251e:	8b 45 f4             	mov    eax,DWORD PTR [ebp-0xc]
  102521:	8d 14 00             	lea    edx,[eax+eax*1]
  102524:	8b 45 f0             	mov    eax,DWORD PTR [ebp-0x10]
  102527:	01 d0                	add    eax,edx
  102529:	0f b7 00             	movzx  eax,WORD PTR [eax]
  10252c:	66 83 f8 ff          	cmp    ax,0xffff
  102530:	75 aa                	jne    1024dc <vbe_load_data+0x55>
  102532:	83 ec 0c             	sub    esp,0xc
  102535:	6a 0a                	push   0xa
  102537:	e8 bc ee ff ff       	call   1013f8 <vga_putchar>
  10253c:	83 c4 10             	add    esp,0x10
  10253f:	66 c7 05 00 80 00 00 	mov    WORD PTR ds:0x8000,0x4f02
  102546:	02 4f 
  102548:	66 c7 05 02 80 00 00 	mov    WORD PTR ds:0x8002,0x4118
  10254f:	18 41 
  102551:	83 ec 0c             	sub    esp,0xc
  102554:	6a 10                	push   0x10
  102556:	e8 fc fe ff ff       	call   102457 <bios_intr>
  10255b:	83 c4 10             	add    esp,0x10
  10255e:	b8 00 00 00 fd       	mov    eax,0xfd000000
  102563:	c7 00 ff ff ff ff    	mov    DWORD PTR [eax],0xffffffff
  102569:	c9                   	leave  
  10256a:	c3                   	ret    

0010256b <init_malloc>:
  10256b:	55                   	push   ebp
  10256c:	89 e5                	mov    ebp,esp
  10256e:	83 ec 10             	sub    esp,0x10
  102571:	c7 05 44 e9 13 00 00 	mov    DWORD PTR ds:0x13e944,0x4000000
  102578:	00 00 04 
  10257b:	c7 45 fc 00 00 00 04 	mov    DWORD PTR [ebp-0x4],0x4000000
  102582:	a1 44 e9 13 00       	mov    eax,ds:0x13e944
  102587:	83 c0 60             	add    eax,0x60
  10258a:	a3 40 e9 13 00       	mov    ds:0x13e940,eax
  10258f:	8b 45 fc             	mov    eax,DWORD PTR [ebp-0x4]
  102592:	c7 00 ff ef cd ab    	mov    DWORD PTR [eax],0xabcdefff
  102598:	8b 45 fc             	mov    eax,DWORD PTR [ebp-0x4]
  10259b:	66 c7 40 04 ed 25    	mov    WORD PTR [eax+0x4],0x25ed
  1025a1:	8b 45 fc             	mov    eax,DWORD PTR [ebp-0x4]
  1025a4:	c7 40 08 00 00 00 00 	mov    DWORD PTR [eax+0x8],0x0
  1025ab:	8b 45 fc             	mov    eax,DWORD PTR [ebp-0x4]
  1025ae:	c7 40 10 00 00 00 00 	mov    DWORD PTR [eax+0x10],0x0
  1025b5:	8b 45 fc             	mov    eax,DWORD PTR [ebp-0x4]
  1025b8:	c7 40 14 00 00 00 00 	mov    DWORD PTR [eax+0x14],0x0
  1025bf:	c9                   	leave  
  1025c0:	c3                   	ret    

001025c1 <page_all_allocations>:
  1025c1:	55                   	push   ebp
  1025c2:	89 e5                	mov    ebp,esp
  1025c4:	83 ec 18             	sub    esp,0x18
  1025c7:	c7 45 f4 00 00 00 04 	mov    DWORD PTR [ebp-0xc],0x4000000
  1025ce:	e9 9a 00 00 00       	jmp    10266d <page_all_allocations+0xac>
  1025d3:	83 ec 08             	sub    esp,0x8
  1025d6:	6a 03                	push   0x3
  1025d8:	6a 01                	push   0x1
  1025da:	e8 64 42 00 00       	call   106843 <_log>
  1025df:	83 c4 10             	add    esp,0x10
  1025e2:	85 c0                	test   eax,eax
  1025e4:	74 2a                	je     102610 <page_all_allocations+0x4f>
  1025e6:	8b 45 f4             	mov    eax,DWORD PTR [ebp-0xc]
  1025e9:	8b 50 08             	mov    edx,DWORD PTR [eax+0x8]
  1025ec:	89 d0                	mov    eax,edx
  1025ee:	01 c0                	add    eax,eax
  1025f0:	01 d0                	add    eax,edx
  1025f2:	c1 e0 03             	shl    eax,0x3
  1025f5:	89 c2                	mov    edx,eax
  1025f7:	8b 45 f4             	mov    eax,DWORD PTR [ebp-0xc]
  1025fa:	01 d0                	add    eax,edx
  1025fc:	83 ec 04             	sub    esp,0x4
  1025ff:	50                   	push   eax
  102600:	ff 75 f4             	push   DWORD PTR [ebp-0xc]
  102603:	68 20 96 10 00       	push   0x109620
  102608:	e8 c9 ef ff ff       	call   1015d6 <printf>
  10260d:	83 c4 10             	add    esp,0x10
  102610:	8b 45 f4             	mov    eax,DWORD PTR [ebp-0xc]
  102613:	c1 e8 0c             	shr    eax,0xc
  102616:	89 c2                	mov    edx,eax
  102618:	a1 a0 f8 17 00       	mov    eax,ds:0x17f8a0
  10261d:	83 ec 08             	sub    esp,0x8
  102620:	52                   	push   edx
  102621:	50                   	push   eax
  102622:	e8 0c 10 00 00       	call   103633 <id_page>
  102627:	83 c4 10             	add    esp,0x10
  10262a:	c7 45 f0 00 00 00 00 	mov    DWORD PTR [ebp-0x10],0x0
  102631:	eb 23                	jmp    102656 <page_all_allocations+0x95>
  102633:	8b 45 f4             	mov    eax,DWORD PTR [ebp-0xc]
  102636:	c1 e8 0c             	shr    eax,0xc
  102639:	89 c2                	mov    edx,eax
  10263b:	8b 45 f0             	mov    eax,DWORD PTR [ebp-0x10]
  10263e:	01 c2                	add    edx,eax
  102640:	a1 a0 f8 17 00       	mov    eax,ds:0x17f8a0
  102645:	83 ec 08             	sub    esp,0x8
  102648:	52                   	push   edx
  102649:	50                   	push   eax
  10264a:	e8 e4 0f 00 00       	call   103633 <id_page>
  10264f:	83 c4 10             	add    esp,0x10
  102652:	83 45 f0 01          	add    DWORD PTR [ebp-0x10],0x1
  102656:	8b 45 f4             	mov    eax,DWORD PTR [ebp-0xc]
  102659:	8b 40 08             	mov    eax,DWORD PTR [eax+0x8]
  10265c:	c1 e8 0c             	shr    eax,0xc
  10265f:	3b 45 f0             	cmp    eax,DWORD PTR [ebp-0x10]
  102662:	77 cf                	ja     102633 <page_all_allocations+0x72>
  102664:	8b 45 f4             	mov    eax,DWORD PTR [ebp-0xc]
  102667:	8b 40 14             	mov    eax,DWORD PTR [eax+0x14]
  10266a:	89 45 f4             	mov    DWORD PTR [ebp-0xc],eax
  10266d:	83 7d f4 00          	cmp    DWORD PTR [ebp-0xc],0x0
  102671:	0f 85 5c ff ff ff    	jne    1025d3 <page_all_allocations+0x12>
  102677:	c9                   	leave  
  102678:	c3                   	ret    

00102679 <malloc>:
  102679:	55                   	push   ebp
  10267a:	89 e5                	mov    ebp,esp
  10267c:	83 ec 08             	sub    esp,0x8
  10267f:	83 ec 08             	sub    esp,0x8
  102682:	6a 00                	push   0x0
  102684:	ff 75 08             	push   DWORD PTR [ebp+0x8]
  102687:	e8 e6 01 00 00       	call   102872 <malloc_a>
  10268c:	83 c4 10             	add    esp,0x10
  10268f:	c9                   	leave  
  102690:	c3                   	ret    

00102691 <align_address>:
  102691:	55                   	push   ebp
  102692:	89 e5                	mov    ebp,esp
  102694:	53                   	push   ebx
  102695:	83 ec 10             	sub    esp,0x10
  102698:	8b 45 08             	mov    eax,DWORD PTR [ebp+0x8]
  10269b:	83 e8 18             	sub    eax,0x18
  10269e:	89 45 f8             	mov    DWORD PTR [ebp-0x8],eax
  1026a1:	8b 45 f8             	mov    eax,DWORD PTR [ebp-0x8]
  1026a4:	8b 55 08             	mov    edx,DWORD PTR [ebp+0x8]
  1026a7:	89 50 0c             	mov    DWORD PTR [eax+0xc],edx
  1026aa:	83 7d 0c 00          	cmp    DWORD PTR [ebp+0xc],0x0
  1026ae:	75 05                	jne    1026b5 <align_address+0x24>
  1026b0:	8b 45 08             	mov    eax,DWORD PTR [ebp+0x8]
  1026b3:	eb 43                	jmp    1026f8 <align_address+0x67>
  1026b5:	8b 45 08             	mov    eax,DWORD PTR [ebp+0x8]
  1026b8:	89 45 f4             	mov    DWORD PTR [ebp-0xc],eax
  1026bb:	8b 4d 0c             	mov    ecx,DWORD PTR [ebp+0xc]
  1026be:	8b 5d 0c             	mov    ebx,DWORD PTR [ebp+0xc]
  1026c1:	8b 45 f4             	mov    eax,DWORD PTR [ebp-0xc]
  1026c4:	ba 00 00 00 00       	mov    edx,0x0
  1026c9:	f7 f3                	div    ebx
  1026cb:	89 d0                	mov    eax,edx
  1026cd:	29 c1                	sub    ecx,eax
  1026cf:	89 c8                	mov    eax,ecx
  1026d1:	8b 4d 0c             	mov    ecx,DWORD PTR [ebp+0xc]
  1026d4:	ba 00 00 00 00       	mov    edx,0x0
  1026d9:	f7 f1                	div    ecx
  1026db:	89 d0                	mov    eax,edx
  1026dd:	89 45 f0             	mov    DWORD PTR [ebp-0x10],eax
  1026e0:	8b 55 f0             	mov    edx,DWORD PTR [ebp-0x10]
  1026e3:	8b 45 f4             	mov    eax,DWORD PTR [ebp-0xc]
  1026e6:	01 d0                	add    eax,edx
  1026e8:	89 c2                	mov    edx,eax
  1026ea:	8b 45 f8             	mov    eax,DWORD PTR [ebp-0x8]
  1026ed:	89 50 0c             	mov    DWORD PTR [eax+0xc],edx
  1026f0:	8b 55 f0             	mov    edx,DWORD PTR [ebp-0x10]
  1026f3:	8b 45 f4             	mov    eax,DWORD PTR [ebp-0xc]
  1026f6:	01 d0                	add    eax,edx
  1026f8:	83 c4 10             	add    esp,0x10
  1026fb:	5b                   	pop    ebx
  1026fc:	5d                   	pop    ebp
  1026fd:	c3                   	ret    

001026fe <page_allocation>:
  1026fe:	55                   	push   ebp
  1026ff:	89 e5                	mov    ebp,esp
  102701:	83 ec 18             	sub    esp,0x18
  102704:	83 ec 08             	sub    esp,0x8
  102707:	6a 03                	push   0x3
  102709:	6a 01                	push   0x1
  10270b:	e8 33 41 00 00       	call   106843 <_log>
  102710:	83 c4 10             	add    esp,0x10
  102713:	85 c0                	test   eax,eax
  102715:	74 1e                	je     102735 <page_allocation+0x37>
  102717:	0f b6 05 b0 f8 17 00 	movzx  eax,BYTE PTR ds:0x17f8b0
  10271e:	0f b6 c0             	movzx  eax,al
  102721:	50                   	push   eax
  102722:	ff 75 0c             	push   DWORD PTR [ebp+0xc]
  102725:	ff 75 08             	push   DWORD PTR [ebp+0x8]
  102728:	68 3d 96 10 00       	push   0x10963d
  10272d:	e8 a4 ee ff ff       	call   1015d6 <printf>
  102732:	83 c4 10             	add    esp,0x10
  102735:	0f b6 05 b0 f8 17 00 	movzx  eax,BYTE PTR ds:0x17f8b0
  10273c:	84 c0                	test   al,al
  10273e:	75 08                	jne    102748 <page_allocation+0x4a>
  102740:	8b 45 08             	mov    eax,DWORD PTR [ebp+0x8]
  102743:	e9 e5 00 00 00       	jmp    10282d <page_allocation+0x12f>
  102748:	83 ec 08             	sub    esp,0x8
  10274b:	6a 03                	push   0x3
  10274d:	6a 01                	push   0x1
  10274f:	e8 ef 40 00 00       	call   106843 <_log>
  102754:	83 c4 10             	add    esp,0x10
  102757:	85 c0                	test   eax,eax
  102759:	74 23                	je     10277e <page_allocation+0x80>
  10275b:	8b 45 08             	mov    eax,DWORD PTR [ebp+0x8]
  10275e:	c1 e8 16             	shr    eax,0x16
  102761:	89 c1                	mov    ecx,eax
  102763:	8b 45 08             	mov    eax,DWORD PTR [ebp+0x8]
  102766:	c1 e8 0c             	shr    eax,0xc
  102769:	89 c2                	mov    edx,eax
  10276b:	8b 45 08             	mov    eax,DWORD PTR [ebp+0x8]
  10276e:	51                   	push   ecx
  10276f:	52                   	push   edx
  102770:	50                   	push   eax
  102771:	68 58 96 10 00       	push   0x109658
  102776:	e8 5b ee ff ff       	call   1015d6 <printf>
  10277b:	83 c4 10             	add    esp,0x10
  10277e:	8b 45 08             	mov    eax,DWORD PTR [ebp+0x8]
  102781:	c1 e8 0c             	shr    eax,0xc
  102784:	89 c2                	mov    edx,eax
  102786:	a1 a0 f8 17 00       	mov    eax,ds:0x17f8a0
  10278b:	83 ec 08             	sub    esp,0x8
  10278e:	52                   	push   edx
  10278f:	50                   	push   eax
  102790:	e8 9e 0e 00 00       	call   103633 <id_page>
  102795:	83 c4 10             	add    esp,0x10
  102798:	c7 45 f4 00 00 00 00 	mov    DWORD PTR [ebp-0xc],0x0
  10279f:	eb 23                	jmp    1027c4 <page_allocation+0xc6>
  1027a1:	8b 45 08             	mov    eax,DWORD PTR [ebp+0x8]
  1027a4:	c1 e8 0c             	shr    eax,0xc
  1027a7:	89 c2                	mov    edx,eax
  1027a9:	8b 45 f4             	mov    eax,DWORD PTR [ebp-0xc]
  1027ac:	01 c2                	add    edx,eax
  1027ae:	a1 a0 f8 17 00       	mov    eax,ds:0x17f8a0
  1027b3:	83 ec 08             	sub    esp,0x8
  1027b6:	52                   	push   edx
  1027b7:	50                   	push   eax
  1027b8:	e8 76 0e 00 00       	call   103633 <id_page>
  1027bd:	83 c4 10             	add    esp,0x10
  1027c0:	83 45 f4 01          	add    DWORD PTR [ebp-0xc],0x1
  1027c4:	8b 45 0c             	mov    eax,DWORD PTR [ebp+0xc]
  1027c7:	c1 e8 0c             	shr    eax,0xc
  1027ca:	83 c0 02             	add    eax,0x2
  1027cd:	3b 45 f4             	cmp    eax,DWORD PTR [ebp-0xc]
  1027d0:	77 cf                	ja     1027a1 <page_allocation+0xa3>
  1027d2:	c7 45 f4 00 00 00 00 	mov    DWORD PTR [ebp-0xc],0x0
  1027d9:	eb 19                	jmp    1027f4 <page_allocation+0xf6>
  1027db:	8b 45 f4             	mov    eax,DWORD PTR [ebp-0xc]
  1027de:	8d 14 85 00 00 00 00 	lea    edx,[eax*4+0x0]
  1027e5:	8b 45 08             	mov    eax,DWORD PTR [ebp+0x8]
  1027e8:	01 d0                	add    eax,edx
  1027ea:	c7 00 00 00 00 00    	mov    DWORD PTR [eax],0x0
  1027f0:	83 45 f4 01          	add    DWORD PTR [ebp-0xc],0x1
  1027f4:	8b 45 0c             	mov    eax,DWORD PTR [ebp+0xc]
  1027f7:	c1 e8 02             	shr    eax,0x2
  1027fa:	3b 45 f4             	cmp    eax,DWORD PTR [ebp-0xc]
  1027fd:	77 dc                	ja     1027db <page_allocation+0xdd>
  1027ff:	8b 55 08             	mov    edx,DWORD PTR [ebp+0x8]
  102802:	8b 45 0c             	mov    eax,DWORD PTR [ebp+0xc]
  102805:	01 c2                	add    edx,eax
  102807:	a1 40 e9 13 00       	mov    eax,ds:0x13e940
  10280c:	39 c2                	cmp    edx,eax
  10280e:	76 1a                	jbe    10282a <page_allocation+0x12c>
  102810:	8b 55 08             	mov    edx,DWORD PTR [ebp+0x8]
  102813:	8b 45 0c             	mov    eax,DWORD PTR [ebp+0xc]
  102816:	01 d0                	add    eax,edx
  102818:	a3 40 e9 13 00       	mov    ds:0x13e940,eax
  10281d:	a1 40 e9 13 00       	mov    eax,ds:0x13e940
  102822:	83 c0 18             	add    eax,0x18
  102825:	a3 40 e9 13 00       	mov    ds:0x13e940,eax
  10282a:	8b 45 08             	mov    eax,DWORD PTR [ebp+0x8]
  10282d:	c9                   	leave  
  10282e:	c3                   	ret    

0010282f <page_header>:
  10282f:	55                   	push   ebp
  102830:	89 e5                	mov    ebp,esp
  102832:	83 ec 08             	sub    esp,0x8
  102835:	0f b6 05 b0 f8 17 00 	movzx  eax,BYTE PTR ds:0x17f8b0
  10283c:	84 c0                	test   al,al
  10283e:	75 02                	jne    102842 <page_header+0x13>
  102840:	eb 1a                	jmp    10285c <page_header+0x2d>
  102842:	8b 45 08             	mov    eax,DWORD PTR [ebp+0x8]
  102845:	c1 e8 0c             	shr    eax,0xc
  102848:	89 c2                	mov    edx,eax
  10284a:	a1 a0 f8 17 00       	mov    eax,ds:0x17f8a0
  10284f:	83 ec 08             	sub    esp,0x8
  102852:	52                   	push   edx
  102853:	50                   	push   eax
  102854:	e8 da 0d 00 00       	call   103633 <id_page>
  102859:	83 c4 10             	add    esp,0x10
  10285c:	c9                   	leave  
  10285d:	c3                   	ret    

0010285e <header_diff>:
  10285e:	55                   	push   ebp
  10285f:	89 e5                	mov    ebp,esp
  102861:	8b 45 08             	mov    eax,DWORD PTR [ebp+0x8]
  102864:	8b 40 14             	mov    eax,DWORD PTR [eax+0x14]
  102867:	89 c2                	mov    edx,eax
  102869:	8b 45 08             	mov    eax,DWORD PTR [ebp+0x8]
  10286c:	29 c2                	sub    edx,eax
  10286e:	89 d0                	mov    eax,edx
  102870:	5d                   	pop    ebp
  102871:	c3                   	ret    

00102872 <malloc_a>:
  102872:	55                   	push   ebp
  102873:	89 e5                	mov    ebp,esp
  102875:	56                   	push   esi
  102876:	53                   	push   ebx
  102877:	83 ec 10             	sub    esp,0x10
  10287a:	c7 45 f4 00 00 00 04 	mov    DWORD PTR [ebp-0xc],0x4000000
  102881:	83 ec 08             	sub    esp,0x8
  102884:	6a 02                	push   0x2
  102886:	6a 01                	push   0x1
  102888:	e8 b6 3f 00 00       	call   106843 <_log>
  10288d:	83 c4 10             	add    esp,0x10
  102890:	85 c0                	test   eax,eax
  102892:	74 1c                	je     1028b0 <malloc_a+0x3e>
  102894:	8b 55 0c             	mov    edx,DWORD PTR [ebp+0xc]
  102897:	8b 45 08             	mov    eax,DWORD PTR [ebp+0x8]
  10289a:	01 d0                	add    eax,edx
  10289c:	83 ec 04             	sub    esp,0x4
  10289f:	50                   	push   eax
  1028a0:	ff 75 08             	push   DWORD PTR [ebp+0x8]
  1028a3:	68 94 96 10 00       	push   0x109694
  1028a8:	e8 29 ed ff ff       	call   1015d6 <printf>
  1028ad:	83 c4 10             	add    esp,0x10
  1028b0:	e9 2d 01 00 00       	jmp    1029e2 <malloc_a+0x170>
  1028b5:	83 ec 08             	sub    esp,0x8
  1028b8:	6a 03                	push   0x3
  1028ba:	6a 01                	push   0x1
  1028bc:	e8 82 3f 00 00       	call   106843 <_log>
  1028c1:	83 c4 10             	add    esp,0x10
  1028c4:	85 c0                	test   eax,eax
  1028c6:	74 1a                	je     1028e2 <malloc_a+0x70>
  1028c8:	8b 45 f4             	mov    eax,DWORD PTR [ebp-0xc]
  1028cb:	8b 40 08             	mov    eax,DWORD PTR [eax+0x8]
  1028ce:	83 ec 04             	sub    esp,0x4
  1028d1:	50                   	push   eax
  1028d2:	ff 75 f4             	push   DWORD PTR [ebp-0xc]
  1028d5:	68 c2 96 10 00       	push   0x1096c2
  1028da:	e8 f7 ec ff ff       	call   1015d6 <printf>
  1028df:	83 c4 10             	add    esp,0x10
  1028e2:	8b 45 f4             	mov    eax,DWORD PTR [ebp-0xc]
  1028e5:	0f b7 40 04          	movzx  eax,WORD PTR [eax+0x4]
  1028e9:	66 3d ee f4          	cmp    ax,0xf4ee
  1028ed:	0f 85 e6 00 00 00    	jne    1029d9 <malloc_a+0x167>
  1028f3:	8b 45 f4             	mov    eax,DWORD PTR [ebp-0xc]
  1028f6:	8b 40 08             	mov    eax,DWORD PTR [eax+0x8]
  1028f9:	8b 55 08             	mov    edx,DWORD PTR [ebp+0x8]
  1028fc:	83 c2 18             	add    edx,0x18
  1028ff:	39 d0                	cmp    eax,edx
  102901:	0f 86 d2 00 00 00    	jbe    1029d9 <malloc_a+0x167>
  102907:	83 ec 08             	sub    esp,0x8
  10290a:	6a 03                	push   0x3
  10290c:	6a 01                	push   0x1
  10290e:	e8 30 3f 00 00       	call   106843 <_log>
  102913:	83 c4 10             	add    esp,0x10
  102916:	85 c0                	test   eax,eax
  102918:	74 19                	je     102933 <malloc_a+0xc1>
  10291a:	8b 45 f4             	mov    eax,DWORD PTR [ebp-0xc]
  10291d:	2d 00 00 00 04       	sub    eax,0x4000000
  102922:	83 ec 08             	sub    esp,0x8
  102925:	50                   	push   eax
  102926:	68 e0 96 10 00       	push   0x1096e0
  10292b:	e8 a6 ec ff ff       	call   1015d6 <printf>
  102930:	83 c4 10             	add    esp,0x10
  102933:	83 7d 0c 00          	cmp    DWORD PTR [ebp+0xc],0x0
  102937:	74 5a                	je     102993 <malloc_a+0x121>
  102939:	83 ec 08             	sub    esp,0x8
  10293c:	6a 03                	push   0x3
  10293e:	6a 01                	push   0x1
  102940:	e8 fe 3e 00 00       	call   106843 <_log>
  102945:	83 c4 10             	add    esp,0x10
  102948:	85 c0                	test   eax,eax
  10294a:	74 10                	je     10295c <malloc_a+0xea>
  10294c:	83 ec 0c             	sub    esp,0xc
  10294f:	68 0c 97 10 00       	push   0x10970c
  102954:	e8 7d ec ff ff       	call   1015d6 <printf>
  102959:	83 c4 10             	add    esp,0x10
  10295c:	83 ec 0c             	sub    esp,0xc
  10295f:	ff 75 f4             	push   DWORD PTR [ebp-0xc]
  102962:	e8 f7 fe ff ff       	call   10285e <header_diff>
  102967:	83 c4 10             	add    esp,0x10
  10296a:	89 c3                	mov    ebx,eax
  10296c:	83 ec 08             	sub    esp,0x8
  10296f:	ff 75 0c             	push   DWORD PTR [ebp+0xc]
  102972:	ff 75 f4             	push   DWORD PTR [ebp-0xc]
  102975:	e8 17 fd ff ff       	call   102691 <align_address>
  10297a:	83 c4 10             	add    esp,0x10
  10297d:	89 c2                	mov    edx,eax
  10297f:	8b 45 08             	mov    eax,DWORD PTR [ebp+0x8]
  102982:	01 d0                	add    eax,edx
  102984:	39 c3                	cmp    ebx,eax
  102986:	73 0b                	jae    102993 <malloc_a+0x121>
  102988:	8b 45 f4             	mov    eax,DWORD PTR [ebp-0xc]
  10298b:	8b 40 14             	mov    eax,DWORD PTR [eax+0x14]
  10298e:	89 45 f4             	mov    DWORD PTR [ebp-0xc],eax
  102991:	eb 4f                	jmp    1029e2 <malloc_a+0x170>
  102993:	8b 45 f4             	mov    eax,DWORD PTR [ebp-0xc]
  102996:	66 c7 40 04 ed 25    	mov    WORD PTR [eax+0x4],0x25ed
  10299c:	8b 45 f4             	mov    eax,DWORD PTR [ebp-0xc]
  10299f:	8b 55 08             	mov    edx,DWORD PTR [ebp+0x8]
  1029a2:	89 50 08             	mov    DWORD PTR [eax+0x8],edx
  1029a5:	8b 45 04             	mov    eax,DWORD PTR [ebp+0x4]
  1029a8:	89 c2                	mov    edx,eax
  1029aa:	8b 45 f4             	mov    eax,DWORD PTR [ebp-0xc]
  1029ad:	89 50 10             	mov    DWORD PTR [eax+0x10],edx
  1029b0:	8b 45 f4             	mov    eax,DWORD PTR [ebp-0xc]
  1029b3:	83 c0 18             	add    eax,0x18
  1029b6:	83 ec 08             	sub    esp,0x8
  1029b9:	ff 75 0c             	push   DWORD PTR [ebp+0xc]
  1029bc:	50                   	push   eax
  1029bd:	e8 cf fc ff ff       	call   102691 <align_address>
  1029c2:	83 c4 10             	add    esp,0x10
  1029c5:	83 ec 08             	sub    esp,0x8
  1029c8:	ff 75 08             	push   DWORD PTR [ebp+0x8]
  1029cb:	50                   	push   eax
  1029cc:	e8 2d fd ff ff       	call   1026fe <page_allocation>
  1029d1:	83 c4 10             	add    esp,0x10
  1029d4:	e9 34 02 00 00       	jmp    102c0d <malloc_a+0x39b>
  1029d9:	8b 45 f4             	mov    eax,DWORD PTR [ebp-0xc]
  1029dc:	8b 40 14             	mov    eax,DWORD PTR [eax+0x14]
  1029df:	89 45 f4             	mov    DWORD PTR [ebp-0xc],eax
  1029e2:	8b 45 f4             	mov    eax,DWORD PTR [ebp-0xc]
  1029e5:	8b 40 14             	mov    eax,DWORD PTR [eax+0x14]
  1029e8:	85 c0                	test   eax,eax
  1029ea:	0f 85 c5 fe ff ff    	jne    1028b5 <malloc_a+0x43>
  1029f0:	8b 45 f4             	mov    eax,DWORD PTR [ebp-0xc]
  1029f3:	0f b7 40 04          	movzx  eax,WORD PTR [eax+0x4]
  1029f7:	66 3d ee f4          	cmp    ax,0xf4ee
  1029fb:	0f 85 dd 00 00 00    	jne    102ade <malloc_a+0x26c>
  102a01:	8b 45 f4             	mov    eax,DWORD PTR [ebp-0xc]
  102a04:	8b 40 08             	mov    eax,DWORD PTR [eax+0x8]
  102a07:	8b 55 08             	mov    edx,DWORD PTR [ebp+0x8]
  102a0a:	83 c2 18             	add    edx,0x18
  102a0d:	39 d0                	cmp    eax,edx
  102a0f:	0f 86 c9 00 00 00    	jbe    102ade <malloc_a+0x26c>
  102a15:	83 ec 08             	sub    esp,0x8
  102a18:	6a 03                	push   0x3
  102a1a:	6a 01                	push   0x1
  102a1c:	e8 22 3e 00 00       	call   106843 <_log>
  102a21:	83 c4 10             	add    esp,0x10
  102a24:	85 c0                	test   eax,eax
  102a26:	74 19                	je     102a41 <malloc_a+0x1cf>
  102a28:	8b 45 f4             	mov    eax,DWORD PTR [ebp-0xc]
  102a2b:	2d 00 00 00 04       	sub    eax,0x4000000
  102a30:	83 ec 08             	sub    esp,0x8
  102a33:	50                   	push   eax
  102a34:	68 24 97 10 00       	push   0x109724
  102a39:	e8 98 eb ff ff       	call   1015d6 <printf>
  102a3e:	83 c4 10             	add    esp,0x10
  102a41:	83 7d 0c 00          	cmp    DWORD PTR [ebp+0xc],0x0
  102a45:	74 51                	je     102a98 <malloc_a+0x226>
  102a47:	83 ec 08             	sub    esp,0x8
  102a4a:	6a 03                	push   0x3
  102a4c:	6a 01                	push   0x1
  102a4e:	e8 f0 3d 00 00       	call   106843 <_log>
  102a53:	83 c4 10             	add    esp,0x10
  102a56:	85 c0                	test   eax,eax
  102a58:	74 10                	je     102a6a <malloc_a+0x1f8>
  102a5a:	83 ec 0c             	sub    esp,0xc
  102a5d:	68 0c 97 10 00       	push   0x10970c
  102a62:	e8 6f eb ff ff       	call   1015d6 <printf>
  102a67:	83 c4 10             	add    esp,0x10
  102a6a:	83 ec 0c             	sub    esp,0xc
  102a6d:	ff 75 f4             	push   DWORD PTR [ebp-0xc]
  102a70:	e8 e9 fd ff ff       	call   10285e <header_diff>
  102a75:	83 c4 10             	add    esp,0x10
  102a78:	89 c3                	mov    ebx,eax
  102a7a:	83 ec 08             	sub    esp,0x8
  102a7d:	ff 75 0c             	push   DWORD PTR [ebp+0xc]
  102a80:	ff 75 f4             	push   DWORD PTR [ebp-0xc]
  102a83:	e8 09 fc ff ff       	call   102691 <align_address>
  102a88:	83 c4 10             	add    esp,0x10
  102a8b:	89 c2                	mov    edx,eax
  102a8d:	8b 45 08             	mov    eax,DWORD PTR [ebp+0x8]
  102a90:	01 d0                	add    eax,edx
  102a92:	39 c3                	cmp    ebx,eax
  102a94:	73 02                	jae    102a98 <malloc_a+0x226>
  102a96:	eb 46                	jmp    102ade <malloc_a+0x26c>
  102a98:	8b 45 f4             	mov    eax,DWORD PTR [ebp-0xc]
  102a9b:	66 c7 40 04 ed 25    	mov    WORD PTR [eax+0x4],0x25ed
  102aa1:	8b 45 f4             	mov    eax,DWORD PTR [ebp-0xc]
  102aa4:	8b 55 08             	mov    edx,DWORD PTR [ebp+0x8]
  102aa7:	89 50 08             	mov    DWORD PTR [eax+0x8],edx
  102aaa:	8b 45 04             	mov    eax,DWORD PTR [ebp+0x4]
  102aad:	89 c2                	mov    edx,eax
  102aaf:	8b 45 f4             	mov    eax,DWORD PTR [ebp-0xc]
  102ab2:	89 50 10             	mov    DWORD PTR [eax+0x10],edx
  102ab5:	8b 45 f4             	mov    eax,DWORD PTR [ebp-0xc]
  102ab8:	83 c0 18             	add    eax,0x18
  102abb:	83 ec 08             	sub    esp,0x8
  102abe:	ff 75 0c             	push   DWORD PTR [ebp+0xc]
  102ac1:	50                   	push   eax
  102ac2:	e8 ca fb ff ff       	call   102691 <align_address>
  102ac7:	83 c4 10             	add    esp,0x10
  102aca:	83 ec 08             	sub    esp,0x8
  102acd:	ff 75 08             	push   DWORD PTR [ebp+0x8]
  102ad0:	50                   	push   eax
  102ad1:	e8 28 fc ff ff       	call   1026fe <page_allocation>
  102ad6:	83 c4 10             	add    esp,0x10
  102ad9:	e9 2f 01 00 00       	jmp    102c0d <malloc_a+0x39b>
  102ade:	83 ec 08             	sub    esp,0x8
  102ae1:	6a 03                	push   0x3
  102ae3:	6a 01                	push   0x1
  102ae5:	e8 59 3d 00 00       	call   106843 <_log>
  102aea:	83 c4 10             	add    esp,0x10
  102aed:	85 c0                	test   eax,eax
  102aef:	74 26                	je     102b17 <malloc_a+0x2a5>
  102af1:	8b 45 f4             	mov    eax,DWORD PTR [ebp-0xc]
  102af4:	8b 40 08             	mov    eax,DWORD PTR [eax+0x8]
  102af7:	8b 55 f4             	mov    edx,DWORD PTR [ebp-0xc]
  102afa:	8b 4a 08             	mov    ecx,DWORD PTR [edx+0x8]
  102afd:	8b 55 f4             	mov    edx,DWORD PTR [ebp-0xc]
  102b00:	01 ca                	add    edx,ecx
  102b02:	83 c2 18             	add    edx,0x18
  102b05:	50                   	push   eax
  102b06:	ff 75 f4             	push   DWORD PTR [ebp-0xc]
  102b09:	52                   	push   edx
  102b0a:	68 60 97 10 00       	push   0x109760
  102b0f:	e8 c2 ea ff ff       	call   1015d6 <printf>
  102b14:	83 c4 10             	add    esp,0x10
  102b17:	8b 45 f4             	mov    eax,DWORD PTR [ebp-0xc]
  102b1a:	8b 50 08             	mov    edx,DWORD PTR [eax+0x8]
  102b1d:	8b 45 f4             	mov    eax,DWORD PTR [ebp-0xc]
  102b20:	01 d0                	add    eax,edx
  102b22:	83 c0 18             	add    eax,0x18
  102b25:	89 c2                	mov    edx,eax
  102b27:	8b 45 f4             	mov    eax,DWORD PTR [ebp-0xc]
  102b2a:	89 50 14             	mov    DWORD PTR [eax+0x14],edx
  102b2d:	8b 45 f4             	mov    eax,DWORD PTR [ebp-0xc]
  102b30:	8b 40 14             	mov    eax,DWORD PTR [eax+0x14]
  102b33:	83 ec 0c             	sub    esp,0xc
  102b36:	50                   	push   eax
  102b37:	e8 f3 fc ff ff       	call   10282f <page_header>
  102b3c:	83 c4 10             	add    esp,0x10
  102b3f:	8b 45 f4             	mov    eax,DWORD PTR [ebp-0xc]
  102b42:	8b 40 14             	mov    eax,DWORD PTR [eax+0x14]
  102b45:	c7 00 ff ef cd ab    	mov    DWORD PTR [eax],0xabcdefff
  102b4b:	8b 45 f4             	mov    eax,DWORD PTR [ebp-0xc]
  102b4e:	8b 40 14             	mov    eax,DWORD PTR [eax+0x14]
  102b51:	66 c7 40 04 ed 25    	mov    WORD PTR [eax+0x4],0x25ed
  102b57:	83 7d 0c 00          	cmp    DWORD PTR [ebp+0xc],0x0
  102b5b:	74 30                	je     102b8d <malloc_a+0x31b>
  102b5d:	8b 45 f4             	mov    eax,DWORD PTR [ebp-0xc]
  102b60:	8b 48 14             	mov    ecx,DWORD PTR [eax+0x14]
  102b63:	8b 5d 0c             	mov    ebx,DWORD PTR [ebp+0xc]
  102b66:	8b 45 f4             	mov    eax,DWORD PTR [ebp-0xc]
  102b69:	8b 75 0c             	mov    esi,DWORD PTR [ebp+0xc]
  102b6c:	ba 00 00 00 00       	mov    edx,0x0
  102b71:	f7 f6                	div    esi
  102b73:	89 d0                	mov    eax,edx
  102b75:	29 c3                	sub    ebx,eax
  102b77:	89 d8                	mov    eax,ebx
  102b79:	8b 5d 0c             	mov    ebx,DWORD PTR [ebp+0xc]
  102b7c:	ba 00 00 00 00       	mov    edx,0x0
  102b81:	f7 f3                	div    ebx
  102b83:	8b 45 08             	mov    eax,DWORD PTR [ebp+0x8]
  102b86:	01 d0                	add    eax,edx
  102b88:	89 41 08             	mov    DWORD PTR [ecx+0x8],eax
  102b8b:	eb 0c                	jmp    102b99 <malloc_a+0x327>
  102b8d:	8b 45 f4             	mov    eax,DWORD PTR [ebp-0xc]
  102b90:	8b 40 14             	mov    eax,DWORD PTR [eax+0x14]
  102b93:	8b 55 08             	mov    edx,DWORD PTR [ebp+0x8]
  102b96:	89 50 08             	mov    DWORD PTR [eax+0x8],edx
  102b99:	8b 45 f4             	mov    eax,DWORD PTR [ebp-0xc]
  102b9c:	8b 40 14             	mov    eax,DWORD PTR [eax+0x14]
  102b9f:	8b 55 04             	mov    edx,DWORD PTR [ebp+0x4]
  102ba2:	89 50 10             	mov    DWORD PTR [eax+0x10],edx
  102ba5:	8b 45 f4             	mov    eax,DWORD PTR [ebp-0xc]
  102ba8:	8b 40 14             	mov    eax,DWORD PTR [eax+0x14]
  102bab:	c7 40 14 00 00 00 00 	mov    DWORD PTR [eax+0x14],0x0
  102bb2:	83 ec 08             	sub    esp,0x8
  102bb5:	6a 02                	push   0x2
  102bb7:	6a 01                	push   0x1
  102bb9:	e8 85 3c 00 00       	call   106843 <_log>
  102bbe:	83 c4 10             	add    esp,0x10
  102bc1:	85 c0                	test   eax,eax
  102bc3:	74 21                	je     102be6 <malloc_a+0x374>
  102bc5:	8b 45 f4             	mov    eax,DWORD PTR [ebp-0xc]
  102bc8:	8b 50 14             	mov    edx,DWORD PTR [eax+0x14]
  102bcb:	8b 45 f4             	mov    eax,DWORD PTR [ebp-0xc]
  102bce:	8b 40 14             	mov    eax,DWORD PTR [eax+0x14]
  102bd1:	8b 40 08             	mov    eax,DWORD PTR [eax+0x8]
  102bd4:	83 ec 04             	sub    esp,0x4
  102bd7:	52                   	push   edx
  102bd8:	50                   	push   eax
  102bd9:	68 a0 97 10 00       	push   0x1097a0
  102bde:	e8 f3 e9 ff ff       	call   1015d6 <printf>
  102be3:	83 c4 10             	add    esp,0x10
  102be6:	8b 45 f4             	mov    eax,DWORD PTR [ebp-0xc]
  102be9:	8b 40 14             	mov    eax,DWORD PTR [eax+0x14]
  102bec:	83 c0 18             	add    eax,0x18
  102bef:	83 ec 08             	sub    esp,0x8
  102bf2:	ff 75 0c             	push   DWORD PTR [ebp+0xc]
  102bf5:	50                   	push   eax
  102bf6:	e8 96 fa ff ff       	call   102691 <align_address>
  102bfb:	83 c4 10             	add    esp,0x10
  102bfe:	83 ec 08             	sub    esp,0x8
  102c01:	ff 75 08             	push   DWORD PTR [ebp+0x8]
  102c04:	50                   	push   eax
  102c05:	e8 f4 fa ff ff       	call   1026fe <page_allocation>
  102c0a:	83 c4 10             	add    esp,0x10
  102c0d:	8d 65 f8             	lea    esp,[ebp-0x8]
  102c10:	5b                   	pop    ebx
  102c11:	5e                   	pop    esi
  102c12:	5d                   	pop    ebp
  102c13:	c3                   	ret    

00102c14 <free>:
  102c14:	55                   	push   ebp
  102c15:	89 e5                	mov    ebp,esp
  102c17:	83 ec 18             	sub    esp,0x18
  102c1a:	a1 44 e9 13 00       	mov    eax,ds:0x13e944
  102c1f:	39 45 08             	cmp    DWORD PTR [ebp+0x8],eax
  102c22:	72 0a                	jb     102c2e <free+0x1a>
  102c24:	a1 40 e9 13 00       	mov    eax,ds:0x13e940
  102c29:	39 45 08             	cmp    DWORD PTR [ebp+0x8],eax
  102c2c:	76 35                	jbe    102c63 <free+0x4f>
  102c2e:	83 ec 08             	sub    esp,0x8
  102c31:	6a 01                	push   0x1
  102c33:	6a 01                	push   0x1
  102c35:	e8 09 3c 00 00       	call   106843 <_log>
  102c3a:	83 c4 10             	add    esp,0x10
  102c3d:	85 c0                	test   eax,eax
  102c3f:	74 1d                	je     102c5e <free+0x4a>
  102c41:	8b 15 40 e9 13 00    	mov    edx,DWORD PTR ds:0x13e940
  102c47:	a1 44 e9 13 00       	mov    eax,ds:0x13e944
  102c4c:	52                   	push   edx
  102c4d:	50                   	push   eax
  102c4e:	ff 75 08             	push   DWORD PTR [ebp+0x8]
  102c51:	68 c8 97 10 00       	push   0x1097c8
  102c56:	e8 7b e9 ff ff       	call   1015d6 <printf>
  102c5b:	83 c4 10             	add    esp,0x10
  102c5e:	e9 b4 00 00 00       	jmp    102d17 <free+0x103>
  102c63:	8b 45 08             	mov    eax,DWORD PTR [ebp+0x8]
  102c66:	83 e8 18             	sub    eax,0x18
  102c69:	89 45 f4             	mov    DWORD PTR [ebp-0xc],eax
  102c6c:	8b 45 f4             	mov    eax,DWORD PTR [ebp-0xc]
  102c6f:	8b 00                	mov    eax,DWORD PTR [eax]
  102c71:	3d ff ef cd ab       	cmp    eax,0xabcdefff
  102c76:	74 5f                	je     102cd7 <free+0xc3>
  102c78:	c7 45 f4 00 00 00 04 	mov    DWORD PTR [ebp-0xc],0x4000000
  102c7f:	eb 09                	jmp    102c8a <free+0x76>
  102c81:	8b 45 f4             	mov    eax,DWORD PTR [ebp-0xc]
  102c84:	8b 40 14             	mov    eax,DWORD PTR [eax+0x14]
  102c87:	89 45 f4             	mov    DWORD PTR [ebp-0xc],eax
  102c8a:	83 7d f4 00          	cmp    DWORD PTR [ebp-0xc],0x0
  102c8e:	74 0b                	je     102c9b <free+0x87>
  102c90:	8b 45 f4             	mov    eax,DWORD PTR [ebp-0xc]
  102c93:	8b 40 0c             	mov    eax,DWORD PTR [eax+0xc]
  102c96:	3b 45 08             	cmp    eax,DWORD PTR [ebp+0x8]
  102c99:	75 e6                	jne    102c81 <free+0x6d>
  102c9b:	83 7d f4 00          	cmp    DWORD PTR [ebp-0xc],0x0
  102c9f:	75 36                	jne    102cd7 <free+0xc3>
  102ca1:	83 ec 08             	sub    esp,0x8
  102ca4:	6a 01                	push   0x1
  102ca6:	6a 01                	push   0x1
  102ca8:	e8 96 3b 00 00       	call   106843 <_log>
  102cad:	83 c4 10             	add    esp,0x10
  102cb0:	85 c0                	test   eax,eax
  102cb2:	74 23                	je     102cd7 <free+0xc3>
  102cb4:	8b 45 08             	mov    eax,DWORD PTR [ebp+0x8]
  102cb7:	83 e8 18             	sub    eax,0x18
  102cba:	8b 10                	mov    edx,DWORD PTR [eax]
  102cbc:	8b 45 08             	mov    eax,DWORD PTR [ebp+0x8]
  102cbf:	83 e8 18             	sub    eax,0x18
  102cc2:	8b 40 10             	mov    eax,DWORD PTR [eax+0x10]
  102cc5:	52                   	push   edx
  102cc6:	50                   	push   eax
  102cc7:	ff 75 08             	push   DWORD PTR [ebp+0x8]
  102cca:	68 0c 98 10 00       	push   0x10980c
  102ccf:	e8 02 e9 ff ff       	call   1015d6 <printf>
  102cd4:	83 c4 10             	add    esp,0x10
  102cd7:	8b 45 f4             	mov    eax,DWORD PTR [ebp-0xc]
  102cda:	66 c7 40 04 ee f4    	mov    WORD PTR [eax+0x4],0xf4ee
  102ce0:	8b 45 f4             	mov    eax,DWORD PTR [ebp-0xc]
  102ce3:	c7 40 10 00 00 00 00 	mov    DWORD PTR [eax+0x10],0x0
  102cea:	83 ec 08             	sub    esp,0x8
  102ced:	6a 02                	push   0x2
  102cef:	6a 01                	push   0x1
  102cf1:	e8 4d 3b 00 00       	call   106843 <_log>
  102cf6:	83 c4 10             	add    esp,0x10
  102cf9:	85 c0                	test   eax,eax
  102cfb:	74 1a                	je     102d17 <free+0x103>
  102cfd:	8b 45 f4             	mov    eax,DWORD PTR [ebp-0xc]
  102d00:	8b 40 08             	mov    eax,DWORD PTR [eax+0x8]
  102d03:	83 ec 04             	sub    esp,0x4
  102d06:	50                   	push   eax
  102d07:	ff 75 f4             	push   DWORD PTR [ebp-0xc]
  102d0a:	68 56 98 10 00       	push   0x109856
  102d0f:	e8 c2 e8 ff ff       	call   1015d6 <printf>
  102d14:	83 c4 10             	add    esp,0x10
  102d17:	c9                   	leave  
  102d18:	c3                   	ret    

00102d19 <vga_rect>:
  102d19:	55                   	push   ebp
  102d1a:	89 e5                	mov    ebp,esp
  102d1c:	83 ec 18             	sub    esp,0x18
  102d1f:	8b 45 08             	mov    eax,DWORD PTR [ebp+0x8]
  102d22:	89 45 f4             	mov    DWORD PTR [ebp-0xc],eax
  102d25:	eb 31                	jmp    102d58 <vga_rect+0x3f>
  102d27:	8b 45 0c             	mov    eax,DWORD PTR [ebp+0xc]
  102d2a:	89 45 f0             	mov    DWORD PTR [ebp-0x10],eax
  102d2d:	eb 18                	jmp    102d47 <vga_rect+0x2e>
  102d2f:	83 ec 04             	sub    esp,0x4
  102d32:	ff 75 18             	push   DWORD PTR [ebp+0x18]
  102d35:	ff 75 f0             	push   DWORD PTR [ebp-0x10]
  102d38:	ff 75 f4             	push   DWORD PTR [ebp-0xc]
  102d3b:	e8 53 d9 ff ff       	call   100693 <vga_write_pix>
  102d40:	83 c4 10             	add    esp,0x10
  102d43:	83 45 f0 01          	add    DWORD PTR [ebp-0x10],0x1
  102d47:	8b 55 0c             	mov    edx,DWORD PTR [ebp+0xc]
  102d4a:	8b 45 14             	mov    eax,DWORD PTR [ebp+0x14]
  102d4d:	01 d0                	add    eax,edx
  102d4f:	3b 45 f0             	cmp    eax,DWORD PTR [ebp-0x10]
  102d52:	7f db                	jg     102d2f <vga_rect+0x16>
  102d54:	83 45 f4 01          	add    DWORD PTR [ebp-0xc],0x1
  102d58:	8b 55 08             	mov    edx,DWORD PTR [ebp+0x8]
  102d5b:	8b 45 10             	mov    eax,DWORD PTR [ebp+0x10]
  102d5e:	01 d0                	add    eax,edx
  102d60:	3b 45 f4             	cmp    eax,DWORD PTR [ebp-0xc]
  102d63:	7f c2                	jg     102d27 <vga_rect+0xe>
  102d65:	c9                   	leave  
  102d66:	c3                   	ret    

00102d67 <vga_clearcolor>:
  102d67:	55                   	push   ebp
  102d68:	89 e5                	mov    ebp,esp
  102d6a:	83 ec 10             	sub    esp,0x10
  102d6d:	8b 45 08             	mov    eax,DWORD PTR [ebp+0x8]
  102d70:	25 ff ff ff 00       	and    eax,0xffffff
  102d75:	89 c2                	mov    edx,eax
  102d77:	8b 45 08             	mov    eax,DWORD PTR [ebp+0x8]
  102d7a:	c1 e0 18             	shl    eax,0x18
  102d7d:	09 d0                	or     eax,edx
  102d7f:	89 45 f8             	mov    DWORD PTR [ebp-0x8],eax
  102d82:	8b 45 08             	mov    eax,DWORD PTR [ebp+0x8]
  102d85:	25 00 ff ff 00       	and    eax,0xffff00
  102d8a:	c1 f8 08             	sar    eax,0x8
  102d8d:	89 c2                	mov    edx,eax
  102d8f:	8b 45 08             	mov    eax,DWORD PTR [ebp+0x8]
  102d92:	c1 e0 10             	shl    eax,0x10
  102d95:	09 d0                	or     eax,edx
  102d97:	89 45 f4             	mov    DWORD PTR [ebp-0xc],eax
  102d9a:	8b 45 08             	mov    eax,DWORD PTR [ebp+0x8]
  102d9d:	c1 e0 08             	shl    eax,0x8
  102da0:	89 c2                	mov    edx,eax
  102da2:	8b 45 08             	mov    eax,DWORD PTR [ebp+0x8]
  102da5:	25 00 00 ff 00       	and    eax,0xff0000
  102daa:	c1 f8 10             	sar    eax,0x10
  102dad:	09 d0                	or     eax,edx
  102daf:	89 45 f0             	mov    DWORD PTR [ebp-0x10],eax
  102db2:	c7 45 fc 00 00 00 00 	mov    DWORD PTR [ebp-0x4],0x0
  102db9:	eb 38                	jmp    102df3 <vga_clearcolor+0x8c>
  102dbb:	8b 15 00 c0 10 00    	mov    edx,DWORD PTR ds:0x10c000
  102dc1:	8b 45 fc             	mov    eax,DWORD PTR [ebp-0x4]
  102dc4:	01 d0                	add    eax,edx
  102dc6:	8b 55 f8             	mov    edx,DWORD PTR [ebp-0x8]
  102dc9:	88 10                	mov    BYTE PTR [eax],dl
  102dcb:	a1 00 c0 10 00       	mov    eax,ds:0x10c000
  102dd0:	8b 55 fc             	mov    edx,DWORD PTR [ebp-0x4]
  102dd3:	83 c2 01             	add    edx,0x1
  102dd6:	01 d0                	add    eax,edx
  102dd8:	8b 55 f4             	mov    edx,DWORD PTR [ebp-0xc]
  102ddb:	88 10                	mov    BYTE PTR [eax],dl
  102ddd:	a1 00 c0 10 00       	mov    eax,ds:0x10c000
  102de2:	8b 55 fc             	mov    edx,DWORD PTR [ebp-0x4]
  102de5:	83 c2 02             	add    edx,0x2
  102de8:	01 d0                	add    eax,edx
  102dea:	8b 55 f0             	mov    edx,DWORD PTR [ebp-0x10]
  102ded:	88 10                	mov    BYTE PTR [eax],dl
  102def:	83 45 fc 03          	add    DWORD PTR [ebp-0x4],0x3
  102df3:	81 7d fc ff ff 23 00 	cmp    DWORD PTR [ebp-0x4],0x23ffff
  102dfa:	7e bf                	jle    102dbb <vga_clearcolor+0x54>
  102dfc:	c9                   	leave  
  102dfd:	c3                   	ret    

00102dfe <init_paging>:
  102dfe:	55                   	push   ebp
  102dff:	89 e5                	mov    ebp,esp
  102e01:	53                   	push   ebx
  102e02:	83 ec 14             	sub    esp,0x14
  102e05:	83 ec 08             	sub    esp,0x8
  102e08:	68 00 10 00 00       	push   0x1000
  102e0d:	68 00 40 00 00       	push   0x4000
  102e12:	e8 5b fa ff ff       	call   102872 <malloc_a>
  102e17:	83 c4 10             	add    esp,0x10
  102e1a:	a3 4c e9 13 00       	mov    ds:0x13e94c,eax
  102e1f:	83 ec 0c             	sub    esp,0xc
  102e22:	6a 48                	push   0x48
  102e24:	e8 50 f8 ff ff       	call   102679 <malloc>
  102e29:	83 c4 10             	add    esp,0x10
  102e2c:	a3 48 e9 13 00       	mov    ds:0x13e948,eax
  102e31:	8b 1d 48 e9 13 00    	mov    ebx,DWORD PTR ds:0x13e948
  102e37:	83 ec 0c             	sub    esp,0xc
  102e3a:	68 00 00 08 00       	push   0x80000
  102e3f:	e8 35 f8 ff ff       	call   102679 <malloc>
  102e44:	83 c4 10             	add    esp,0x10
  102e47:	89 03                	mov    DWORD PTR [ebx],eax
  102e49:	a1 48 e9 13 00       	mov    eax,ds:0x13e948
  102e4e:	8d 58 04             	lea    ebx,[eax+0x4]
  102e51:	83 ec 0c             	sub    esp,0xc
  102e54:	68 00 00 04 00       	push   0x40000
  102e59:	e8 1b f8 ff ff       	call   102679 <malloc>
  102e5e:	83 c4 10             	add    esp,0x10
  102e61:	89 03                	mov    DWORD PTR [ebx],eax
  102e63:	a1 48 e9 13 00       	mov    eax,ds:0x13e948
  102e68:	8d 58 08             	lea    ebx,[eax+0x8]
  102e6b:	83 ec 0c             	sub    esp,0xc
  102e6e:	68 00 00 02 00       	push   0x20000
  102e73:	e8 01 f8 ff ff       	call   102679 <malloc>
  102e78:	83 c4 10             	add    esp,0x10
  102e7b:	89 03                	mov    DWORD PTR [ebx],eax
  102e7d:	a1 48 e9 13 00       	mov    eax,ds:0x13e948
  102e82:	8d 58 0c             	lea    ebx,[eax+0xc]
  102e85:	83 ec 0c             	sub    esp,0xc
  102e88:	68 00 00 01 00       	push   0x10000
  102e8d:	e8 e7 f7 ff ff       	call   102679 <malloc>
  102e92:	83 c4 10             	add    esp,0x10
  102e95:	89 03                	mov    DWORD PTR [ebx],eax
  102e97:	a1 48 e9 13 00       	mov    eax,ds:0x13e948
  102e9c:	8d 58 10             	lea    ebx,[eax+0x10]
  102e9f:	83 ec 0c             	sub    esp,0xc
  102ea2:	68 00 80 00 00       	push   0x8000
  102ea7:	e8 cd f7 ff ff       	call   102679 <malloc>
  102eac:	83 c4 10             	add    esp,0x10
  102eaf:	89 03                	mov    DWORD PTR [ebx],eax
  102eb1:	a1 48 e9 13 00       	mov    eax,ds:0x13e948
  102eb6:	8d 58 14             	lea    ebx,[eax+0x14]
  102eb9:	83 ec 0c             	sub    esp,0xc
  102ebc:	68 00 40 00 00       	push   0x4000
  102ec1:	e8 b3 f7 ff ff       	call   102679 <malloc>
  102ec6:	83 c4 10             	add    esp,0x10
  102ec9:	89 03                	mov    DWORD PTR [ebx],eax
  102ecb:	a1 48 e9 13 00       	mov    eax,ds:0x13e948
  102ed0:	8d 58 18             	lea    ebx,[eax+0x18]
  102ed3:	83 ec 0c             	sub    esp,0xc
  102ed6:	68 00 20 00 00       	push   0x2000
  102edb:	e8 99 f7 ff ff       	call   102679 <malloc>
  102ee0:	83 c4 10             	add    esp,0x10
  102ee3:	89 03                	mov    DWORD PTR [ebx],eax
  102ee5:	a1 48 e9 13 00       	mov    eax,ds:0x13e948
  102eea:	8d 58 1c             	lea    ebx,[eax+0x1c]
  102eed:	83 ec 0c             	sub    esp,0xc
  102ef0:	68 00 10 00 00       	push   0x1000
  102ef5:	e8 7f f7 ff ff       	call   102679 <malloc>
  102efa:	83 c4 10             	add    esp,0x10
  102efd:	89 03                	mov    DWORD PTR [ebx],eax
  102eff:	a1 48 e9 13 00       	mov    eax,ds:0x13e948
  102f04:	8d 58 20             	lea    ebx,[eax+0x20]
  102f07:	83 ec 0c             	sub    esp,0xc
  102f0a:	68 00 08 00 00       	push   0x800
  102f0f:	e8 65 f7 ff ff       	call   102679 <malloc>
  102f14:	83 c4 10             	add    esp,0x10
  102f17:	89 03                	mov    DWORD PTR [ebx],eax
  102f19:	a1 48 e9 13 00       	mov    eax,ds:0x13e948
  102f1e:	8d 58 24             	lea    ebx,[eax+0x24]
  102f21:	83 ec 0c             	sub    esp,0xc
  102f24:	68 00 04 00 00       	push   0x400
  102f29:	e8 4b f7 ff ff       	call   102679 <malloc>
  102f2e:	83 c4 10             	add    esp,0x10
  102f31:	89 03                	mov    DWORD PTR [ebx],eax
  102f33:	a1 48 e9 13 00       	mov    eax,ds:0x13e948
  102f38:	8d 58 28             	lea    ebx,[eax+0x28]
  102f3b:	83 ec 0c             	sub    esp,0xc
  102f3e:	68 00 02 00 00       	push   0x200
  102f43:	e8 31 f7 ff ff       	call   102679 <malloc>
  102f48:	83 c4 10             	add    esp,0x10
  102f4b:	89 03                	mov    DWORD PTR [ebx],eax
  102f4d:	a1 48 e9 13 00       	mov    eax,ds:0x13e948
  102f52:	8d 58 2c             	lea    ebx,[eax+0x2c]
  102f55:	83 ec 0c             	sub    esp,0xc
  102f58:	68 00 01 00 00       	push   0x100
  102f5d:	e8 17 f7 ff ff       	call   102679 <malloc>
  102f62:	83 c4 10             	add    esp,0x10
  102f65:	89 03                	mov    DWORD PTR [ebx],eax
  102f67:	a1 48 e9 13 00       	mov    eax,ds:0x13e948
  102f6c:	8d 58 30             	lea    ebx,[eax+0x30]
  102f6f:	83 ec 0c             	sub    esp,0xc
  102f72:	68 80 00 00 00       	push   0x80
  102f77:	e8 fd f6 ff ff       	call   102679 <malloc>
  102f7c:	83 c4 10             	add    esp,0x10
  102f7f:	89 03                	mov    DWORD PTR [ebx],eax
  102f81:	a1 48 e9 13 00       	mov    eax,ds:0x13e948
  102f86:	8d 58 34             	lea    ebx,[eax+0x34]
  102f89:	83 ec 0c             	sub    esp,0xc
  102f8c:	6a 40                	push   0x40
  102f8e:	e8 e6 f6 ff ff       	call   102679 <malloc>
  102f93:	83 c4 10             	add    esp,0x10
  102f96:	89 03                	mov    DWORD PTR [ebx],eax
  102f98:	a1 48 e9 13 00       	mov    eax,ds:0x13e948
  102f9d:	8d 58 38             	lea    ebx,[eax+0x38]
  102fa0:	83 ec 0c             	sub    esp,0xc
  102fa3:	6a 20                	push   0x20
  102fa5:	e8 cf f6 ff ff       	call   102679 <malloc>
  102faa:	83 c4 10             	add    esp,0x10
  102fad:	89 03                	mov    DWORD PTR [ebx],eax
  102faf:	a1 48 e9 13 00       	mov    eax,ds:0x13e948
  102fb4:	8d 58 3c             	lea    ebx,[eax+0x3c]
  102fb7:	83 ec 0c             	sub    esp,0xc
  102fba:	6a 10                	push   0x10
  102fbc:	e8 b8 f6 ff ff       	call   102679 <malloc>
  102fc1:	83 c4 10             	add    esp,0x10
  102fc4:	89 03                	mov    DWORD PTR [ebx],eax
  102fc6:	a1 48 e9 13 00       	mov    eax,ds:0x13e948
  102fcb:	8d 58 40             	lea    ebx,[eax+0x40]
  102fce:	83 ec 0c             	sub    esp,0xc
  102fd1:	6a 08                	push   0x8
  102fd3:	e8 a1 f6 ff ff       	call   102679 <malloc>
  102fd8:	83 c4 10             	add    esp,0x10
  102fdb:	89 03                	mov    DWORD PTR [ebx],eax
  102fdd:	a1 48 e9 13 00       	mov    eax,ds:0x13e948
  102fe2:	8d 58 44             	lea    ebx,[eax+0x44]
  102fe5:	83 ec 0c             	sub    esp,0xc
  102fe8:	6a 04                	push   0x4
  102fea:	e8 8a f6 ff ff       	call   102679 <malloc>
  102fef:	83 c4 10             	add    esp,0x10
  102ff2:	89 03                	mov    DWORD PTR [ebx],eax
  102ff4:	c7 45 f4 00 00 00 00 	mov    DWORD PTR [ebp-0xc],0x0
  102ffb:	eb 41                	jmp    10303e <init_paging+0x240>
  102ffd:	c7 45 f0 00 00 00 00 	mov    DWORD PTR [ebp-0x10],0x0
  103004:	eb 21                	jmp    103027 <init_paging+0x229>
  103006:	a1 48 e9 13 00       	mov    eax,ds:0x13e948
  10300b:	8b 55 f4             	mov    edx,DWORD PTR [ebp-0xc]
  10300e:	c1 e2 02             	shl    edx,0x2
  103011:	01 d0                	add    eax,edx
  103013:	8b 00                	mov    eax,DWORD PTR [eax]
  103015:	8b 55 f0             	mov    edx,DWORD PTR [ebp-0x10]
  103018:	c1 e2 02             	shl    edx,0x2
  10301b:	01 d0                	add    eax,edx
  10301d:	c7 00 00 00 00 00    	mov    DWORD PTR [eax],0x0
  103023:	83 45 f0 01          	add    DWORD PTR [ebp-0x10],0x1
  103027:	8b 45 f4             	mov    eax,DWORD PTR [ebp-0xc]
  10302a:	ba 00 00 02 00       	mov    edx,0x20000
  10302f:	89 c1                	mov    ecx,eax
  103031:	d3 fa                	sar    edx,cl
  103033:	89 d0                	mov    eax,edx
  103035:	3b 45 f0             	cmp    eax,DWORD PTR [ebp-0x10]
  103038:	7f cc                	jg     103006 <init_paging+0x208>
  10303a:	83 45 f4 01          	add    DWORD PTR [ebp-0xc],0x1
  10303e:	83 7d f4 11          	cmp    DWORD PTR [ebp-0xc],0x11
  103042:	7e b9                	jle    102ffd <init_paging+0x1ff>
  103044:	8b 5d fc             	mov    ebx,DWORD PTR [ebp-0x4]
  103047:	c9                   	leave  
  103048:	c3                   	ret    

00103049 <load_page_directory>:
  103049:	55                   	push   ebp
  10304a:	89 e5                	mov    ebp,esp
  10304c:	83 ec 18             	sub    esp,0x18
  10304f:	a1 4c e9 13 00       	mov    eax,ds:0x13e94c
  103054:	0f 22 d8             	mov    cr3,eax
  103057:	0f 20 c0             	mov    eax,cr0
  10305a:	89 45 f4             	mov    DWORD PTR [ebp-0xc],eax
  10305d:	8b 45 f4             	mov    eax,DWORD PTR [ebp-0xc]
  103060:	0d 00 00 00 80       	or     eax,0x80000000
  103065:	89 45 f4             	mov    DWORD PTR [ebp-0xc],eax
  103068:	8b 45 f4             	mov    eax,DWORD PTR [ebp-0xc]
  10306b:	0f 22 c0             	mov    cr0,eax
  10306e:	c6 05 b0 f8 17 00 01 	mov    BYTE PTR ds:0x17f8b0,0x1
  103075:	83 ec 0c             	sub    esp,0xc
  103078:	68 6c 98 10 00       	push   0x10986c
  10307d:	e8 54 e5 ff ff       	call   1015d6 <printf>
  103082:	83 c4 10             	add    esp,0x10
  103085:	c9                   	leave  
  103086:	c3                   	ret    

00103087 <mark_block>:
  103087:	55                   	push   ebp
  103088:	89 e5                	mov    ebp,esp
  10308a:	56                   	push   esi
  10308b:	53                   	push   ebx
  10308c:	a1 48 e9 13 00       	mov    eax,ds:0x13e948
  103091:	8b 55 08             	mov    edx,DWORD PTR [ebp+0x8]
  103094:	c1 e2 02             	shl    edx,0x2
  103097:	01 d0                	add    eax,edx
  103099:	8b 08                	mov    ecx,DWORD PTR [eax]
  10309b:	8b 45 0c             	mov    eax,DWORD PTR [ebp+0xc]
  10309e:	8d 50 1f             	lea    edx,[eax+0x1f]
  1030a1:	85 c0                	test   eax,eax
  1030a3:	0f 48 c2             	cmovs  eax,edx
  1030a6:	c1 f8 05             	sar    eax,0x5
  1030a9:	89 c2                	mov    edx,eax
  1030ab:	89 d0                	mov    eax,edx
  1030ad:	c1 e0 02             	shl    eax,0x2
  1030b0:	8d 1c 01             	lea    ebx,[ecx+eax*1]
  1030b3:	a1 48 e9 13 00       	mov    eax,ds:0x13e948
  1030b8:	8b 4d 08             	mov    ecx,DWORD PTR [ebp+0x8]
  1030bb:	c1 e1 02             	shl    ecx,0x2
  1030be:	01 c8                	add    eax,ecx
  1030c0:	8b 00                	mov    eax,DWORD PTR [eax]
  1030c2:	c1 e2 02             	shl    edx,0x2
  1030c5:	01 d0                	add    eax,edx
  1030c7:	8b 30                	mov    esi,DWORD PTR [eax]
  1030c9:	8b 45 0c             	mov    eax,DWORD PTR [ebp+0xc]
  1030cc:	99                   	cdq    
  1030cd:	c1 ea 1b             	shr    edx,0x1b
  1030d0:	01 d0                	add    eax,edx
  1030d2:	83 e0 1f             	and    eax,0x1f
  1030d5:	29 d0                	sub    eax,edx
  1030d7:	ba 01 00 00 00       	mov    edx,0x1
  1030dc:	89 c1                	mov    ecx,eax
  1030de:	d3 e2                	shl    edx,cl
  1030e0:	89 d0                	mov    eax,edx
  1030e2:	09 f0                	or     eax,esi
  1030e4:	89 03                	mov    DWORD PTR [ebx],eax
  1030e6:	83 7d 08 00          	cmp    DWORD PTR [ebp+0x8],0x0
  1030ea:	74 34                	je     103120 <mark_block+0x99>
  1030ec:	8b 45 0c             	mov    eax,DWORD PTR [ebp+0xc]
  1030ef:	8d 14 00             	lea    edx,[eax+eax*1]
  1030f2:	8b 45 08             	mov    eax,DWORD PTR [ebp+0x8]
  1030f5:	83 e8 01             	sub    eax,0x1
  1030f8:	83 ec 08             	sub    esp,0x8
  1030fb:	52                   	push   edx
  1030fc:	50                   	push   eax
  1030fd:	e8 85 ff ff ff       	call   103087 <mark_block>
  103102:	83 c4 10             	add    esp,0x10
  103105:	8b 45 0c             	mov    eax,DWORD PTR [ebp+0xc]
  103108:	01 c0                	add    eax,eax
  10310a:	8d 50 01             	lea    edx,[eax+0x1]
  10310d:	8b 45 08             	mov    eax,DWORD PTR [ebp+0x8]
  103110:	83 e8 01             	sub    eax,0x1
  103113:	83 ec 08             	sub    esp,0x8
  103116:	52                   	push   edx
  103117:	50                   	push   eax
  103118:	e8 6a ff ff ff       	call   103087 <mark_block>
  10311d:	83 c4 10             	add    esp,0x10
  103120:	83 45 08 01          	add    DWORD PTR [ebp+0x8],0x1
  103124:	eb 6d                	jmp    103193 <mark_block+0x10c>
  103126:	8b 45 0c             	mov    eax,DWORD PTR [ebp+0xc]
  103129:	89 c2                	mov    edx,eax
  10312b:	c1 ea 1f             	shr    edx,0x1f
  10312e:	01 d0                	add    eax,edx
  103130:	d1 f8                	sar    eax,1
  103132:	89 45 0c             	mov    DWORD PTR [ebp+0xc],eax
  103135:	a1 48 e9 13 00       	mov    eax,ds:0x13e948
  10313a:	8b 55 08             	mov    edx,DWORD PTR [ebp+0x8]
  10313d:	c1 e2 02             	shl    edx,0x2
  103140:	01 d0                	add    eax,edx
  103142:	8b 08                	mov    ecx,DWORD PTR [eax]
  103144:	8b 45 0c             	mov    eax,DWORD PTR [ebp+0xc]
  103147:	8d 50 1f             	lea    edx,[eax+0x1f]
  10314a:	85 c0                	test   eax,eax
  10314c:	0f 48 c2             	cmovs  eax,edx
  10314f:	c1 f8 05             	sar    eax,0x5
  103152:	89 c2                	mov    edx,eax
  103154:	89 d0                	mov    eax,edx
  103156:	c1 e0 02             	shl    eax,0x2
  103159:	8d 1c 01             	lea    ebx,[ecx+eax*1]
  10315c:	a1 48 e9 13 00       	mov    eax,ds:0x13e948
  103161:	8b 4d 08             	mov    ecx,DWORD PTR [ebp+0x8]
  103164:	c1 e1 02             	shl    ecx,0x2
  103167:	01 c8                	add    eax,ecx
  103169:	8b 00                	mov    eax,DWORD PTR [eax]
  10316b:	c1 e2 02             	shl    edx,0x2
  10316e:	01 d0                	add    eax,edx
  103170:	8b 30                	mov    esi,DWORD PTR [eax]
  103172:	8b 45 0c             	mov    eax,DWORD PTR [ebp+0xc]
  103175:	99                   	cdq    
  103176:	c1 ea 1b             	shr    edx,0x1b
  103179:	01 d0                	add    eax,edx
  10317b:	83 e0 1f             	and    eax,0x1f
  10317e:	29 d0                	sub    eax,edx
  103180:	ba 01 00 00 00       	mov    edx,0x1
  103185:	89 c1                	mov    ecx,eax
  103187:	d3 e2                	shl    edx,cl
  103189:	89 d0                	mov    eax,edx
  10318b:	09 f0                	or     eax,esi
  10318d:	89 03                	mov    DWORD PTR [ebx],eax
  10318f:	83 45 08 01          	add    DWORD PTR [ebp+0x8],0x1
  103193:	83 7d 08 11          	cmp    DWORD PTR [ebp+0x8],0x11
  103197:	7e 8d                	jle    103126 <mark_block+0x9f>
  103199:	8d 65 f8             	lea    esp,[ebp-0x8]
  10319c:	5b                   	pop    ebx
  10319d:	5e                   	pop    esi
  10319e:	5d                   	pop    ebp
  10319f:	c3                   	ret    

001031a0 <clear_block>:
  1031a0:	55                   	push   ebp
  1031a1:	89 e5                	mov    ebp,esp
  1031a3:	56                   	push   esi
  1031a4:	53                   	push   ebx
  1031a5:	a1 48 e9 13 00       	mov    eax,ds:0x13e948
  1031aa:	8b 55 08             	mov    edx,DWORD PTR [ebp+0x8]
  1031ad:	c1 e2 02             	shl    edx,0x2
  1031b0:	01 d0                	add    eax,edx
  1031b2:	8b 08                	mov    ecx,DWORD PTR [eax]
  1031b4:	8b 45 0c             	mov    eax,DWORD PTR [ebp+0xc]
  1031b7:	8d 50 1f             	lea    edx,[eax+0x1f]
  1031ba:	85 c0                	test   eax,eax
  1031bc:	0f 48 c2             	cmovs  eax,edx
  1031bf:	c1 f8 05             	sar    eax,0x5
  1031c2:	89 c2                	mov    edx,eax
  1031c4:	89 d0                	mov    eax,edx
  1031c6:	c1 e0 02             	shl    eax,0x2
  1031c9:	8d 1c 01             	lea    ebx,[ecx+eax*1]
  1031cc:	a1 48 e9 13 00       	mov    eax,ds:0x13e948
  1031d1:	8b 4d 08             	mov    ecx,DWORD PTR [ebp+0x8]
  1031d4:	c1 e1 02             	shl    ecx,0x2
  1031d7:	01 c8                	add    eax,ecx
  1031d9:	8b 00                	mov    eax,DWORD PTR [eax]
  1031db:	c1 e2 02             	shl    edx,0x2
  1031de:	01 d0                	add    eax,edx
  1031e0:	8b 30                	mov    esi,DWORD PTR [eax]
  1031e2:	8b 45 0c             	mov    eax,DWORD PTR [ebp+0xc]
  1031e5:	99                   	cdq    
  1031e6:	c1 ea 1b             	shr    edx,0x1b
  1031e9:	01 d0                	add    eax,edx
  1031eb:	83 e0 1f             	and    eax,0x1f
  1031ee:	29 d0                	sub    eax,edx
  1031f0:	ba 01 00 00 00       	mov    edx,0x1
  1031f5:	89 c1                	mov    ecx,eax
  1031f7:	d3 e2                	shl    edx,cl
  1031f9:	89 d0                	mov    eax,edx
  1031fb:	f7 d0                	not    eax
  1031fd:	21 f0                	and    eax,esi
  1031ff:	89 03                	mov    DWORD PTR [ebx],eax
  103201:	83 7d 08 00          	cmp    DWORD PTR [ebp+0x8],0x0
  103205:	74 34                	je     10323b <clear_block+0x9b>
  103207:	8b 45 0c             	mov    eax,DWORD PTR [ebp+0xc]
  10320a:	8d 14 00             	lea    edx,[eax+eax*1]
  10320d:	8b 45 08             	mov    eax,DWORD PTR [ebp+0x8]
  103210:	83 e8 01             	sub    eax,0x1
  103213:	83 ec 08             	sub    esp,0x8
  103216:	52                   	push   edx
  103217:	50                   	push   eax
  103218:	e8 6a fe ff ff       	call   103087 <mark_block>
  10321d:	83 c4 10             	add    esp,0x10
  103220:	8b 45 0c             	mov    eax,DWORD PTR [ebp+0xc]
  103223:	01 c0                	add    eax,eax
  103225:	8d 50 01             	lea    edx,[eax+0x1]
  103228:	8b 45 08             	mov    eax,DWORD PTR [ebp+0x8]
  10322b:	83 e8 01             	sub    eax,0x1
  10322e:	83 ec 08             	sub    esp,0x8
  103231:	52                   	push   edx
  103232:	50                   	push   eax
  103233:	e8 4f fe ff ff       	call   103087 <mark_block>
  103238:	83 c4 10             	add    esp,0x10
  10323b:	83 45 08 01          	add    DWORD PTR [ebp+0x8],0x1
  10323f:	eb 6f                	jmp    1032b0 <clear_block+0x110>
  103241:	8b 45 0c             	mov    eax,DWORD PTR [ebp+0xc]
  103244:	89 c2                	mov    edx,eax
  103246:	c1 ea 1f             	shr    edx,0x1f
  103249:	01 d0                	add    eax,edx
  10324b:	d1 f8                	sar    eax,1
  10324d:	89 45 0c             	mov    DWORD PTR [ebp+0xc],eax
  103250:	a1 48 e9 13 00       	mov    eax,ds:0x13e948
  103255:	8b 55 08             	mov    edx,DWORD PTR [ebp+0x8]
  103258:	c1 e2 02             	shl    edx,0x2
  10325b:	01 d0                	add    eax,edx
  10325d:	8b 08                	mov    ecx,DWORD PTR [eax]
  10325f:	8b 45 0c             	mov    eax,DWORD PTR [ebp+0xc]
  103262:	8d 50 1f             	lea    edx,[eax+0x1f]
  103265:	85 c0                	test   eax,eax
  103267:	0f 48 c2             	cmovs  eax,edx
  10326a:	c1 f8 05             	sar    eax,0x5
  10326d:	89 c2                	mov    edx,eax
  10326f:	89 d0                	mov    eax,edx
  103271:	c1 e0 02             	shl    eax,0x2
  103274:	8d 1c 01             	lea    ebx,[ecx+eax*1]
  103277:	a1 48 e9 13 00       	mov    eax,ds:0x13e948
  10327c:	8b 4d 08             	mov    ecx,DWORD PTR [ebp+0x8]
  10327f:	c1 e1 02             	shl    ecx,0x2
  103282:	01 c8                	add    eax,ecx
  103284:	8b 00                	mov    eax,DWORD PTR [eax]
  103286:	c1 e2 02             	shl    edx,0x2
  103289:	01 d0                	add    eax,edx
  10328b:	8b 30                	mov    esi,DWORD PTR [eax]
  10328d:	8b 45 0c             	mov    eax,DWORD PTR [ebp+0xc]
  103290:	99                   	cdq    
  103291:	c1 ea 1b             	shr    edx,0x1b
  103294:	01 d0                	add    eax,edx
  103296:	83 e0 1f             	and    eax,0x1f
  103299:	29 d0                	sub    eax,edx
  10329b:	ba 01 00 00 00       	mov    edx,0x1
  1032a0:	89 c1                	mov    ecx,eax
  1032a2:	d3 e2                	shl    edx,cl
  1032a4:	89 d0                	mov    eax,edx
  1032a6:	f7 d0                	not    eax
  1032a8:	21 f0                	and    eax,esi
  1032aa:	89 03                	mov    DWORD PTR [ebx],eax
  1032ac:	83 45 08 01          	add    DWORD PTR [ebp+0x8],0x1
  1032b0:	83 7d 08 11          	cmp    DWORD PTR [ebp+0x8],0x11
  1032b4:	7e 8b                	jle    103241 <clear_block+0xa1>
  1032b6:	8d 65 f8             	lea    esp,[ebp-0x8]
  1032b9:	5b                   	pop    ebx
  1032ba:	5e                   	pop    esi
  1032bb:	5d                   	pop    ebp
  1032bc:	c3                   	ret    

001032bd <get_page_block>:
  1032bd:	55                   	push   ebp
  1032be:	89 e5                	mov    ebp,esp
  1032c0:	53                   	push   ebx
  1032c1:	83 ec 14             	sub    esp,0x14
  1032c4:	8b 45 08             	mov    eax,DWORD PTR [ebp+0x8]
  1032c7:	ba 00 10 00 00       	mov    edx,0x1000
  1032cc:	89 c1                	mov    ecx,eax
  1032ce:	d3 e2                	shl    edx,cl
  1032d0:	89 d0                	mov    eax,edx
  1032d2:	89 45 ec             	mov    DWORD PTR [ebp-0x14],eax
  1032d5:	8b 45 08             	mov    eax,DWORD PTR [ebp+0x8]
  1032d8:	ba 00 00 02 00       	mov    edx,0x20000
  1032dd:	89 c1                	mov    ecx,eax
  1032df:	d3 fa                	sar    edx,cl
  1032e1:	89 d0                	mov    eax,edx
  1032e3:	89 45 e8             	mov    DWORD PTR [ebp-0x18],eax
  1032e6:	ff 75 e8             	push   DWORD PTR [ebp-0x18]
  1032e9:	ff 75 ec             	push   DWORD PTR [ebp-0x14]
  1032ec:	ff 75 08             	push   DWORD PTR [ebp+0x8]
  1032ef:	68 7c 98 10 00       	push   0x10987c
  1032f4:	e8 2d 07 00 00       	call   103a26 <dummy_print>
  1032f9:	83 c4 10             	add    esp,0x10
  1032fc:	c7 45 f4 00 00 00 00 	mov    DWORD PTR [ebp-0xc],0x0
  103303:	eb 66                	jmp    10336b <get_page_block+0xae>
  103305:	a1 48 e9 13 00       	mov    eax,ds:0x13e948
  10330a:	8b 55 08             	mov    edx,DWORD PTR [ebp+0x8]
  10330d:	c1 e2 02             	shl    edx,0x2
  103310:	01 d0                	add    eax,edx
  103312:	8b 00                	mov    eax,DWORD PTR [eax]
  103314:	8b 55 f4             	mov    edx,DWORD PTR [ebp-0xc]
  103317:	c1 e2 02             	shl    edx,0x2
  10331a:	01 d0                	add    eax,edx
  10331c:	8b 00                	mov    eax,DWORD PTR [eax]
  10331e:	83 f8 ff             	cmp    eax,0xffffffff
  103321:	75 02                	jne    103325 <get_page_block+0x68>
  103323:	eb 42                	jmp    103367 <get_page_block+0xaa>
  103325:	c7 45 f0 00 00 00 00 	mov    DWORD PTR [ebp-0x10],0x0
  10332c:	eb 33                	jmp    103361 <get_page_block+0xa4>
  10332e:	a1 48 e9 13 00       	mov    eax,ds:0x13e948
  103333:	8b 55 08             	mov    edx,DWORD PTR [ebp+0x8]
  103336:	c1 e2 02             	shl    edx,0x2
  103339:	01 d0                	add    eax,edx
  10333b:	8b 00                	mov    eax,DWORD PTR [eax]
  10333d:	8b 55 f4             	mov    edx,DWORD PTR [ebp-0xc]
  103340:	c1 e2 02             	shl    edx,0x2
  103343:	01 d0                	add    eax,edx
  103345:	8b 10                	mov    edx,DWORD PTR [eax]
  103347:	8b 45 f0             	mov    eax,DWORD PTR [ebp-0x10]
  10334a:	bb 01 00 00 00       	mov    ebx,0x1
  10334f:	89 c1                	mov    ecx,eax
  103351:	d3 e3                	shl    ebx,cl
  103353:	89 d8                	mov    eax,ebx
  103355:	21 d0                	and    eax,edx
  103357:	85 c0                	test   eax,eax
  103359:	75 02                	jne    10335d <get_page_block+0xa0>
  10335b:	eb 16                	jmp    103373 <get_page_block+0xb6>
  10335d:	83 45 f0 01          	add    DWORD PTR [ebp-0x10],0x1
  103361:	83 7d f0 1f          	cmp    DWORD PTR [ebp-0x10],0x1f
  103365:	7e c7                	jle    10332e <get_page_block+0x71>
  103367:	83 45 f4 01          	add    DWORD PTR [ebp-0xc],0x1
  10336b:	8b 45 f4             	mov    eax,DWORD PTR [ebp-0xc]
  10336e:	3b 45 e8             	cmp    eax,DWORD PTR [ebp-0x18]
  103371:	7c 92                	jl     103305 <get_page_block+0x48>
  103373:	83 ec 04             	sub    esp,0x4
  103376:	ff 75 f0             	push   DWORD PTR [ebp-0x10]
  103379:	ff 75 f4             	push   DWORD PTR [ebp-0xc]
  10337c:	68 b4 98 10 00       	push   0x1098b4
  103381:	e8 a0 06 00 00       	call   103a26 <dummy_print>
  103386:	83 c4 10             	add    esp,0x10
  103389:	8b 45 f4             	mov    eax,DWORD PTR [ebp-0xc]
  10338c:	c1 e0 05             	shl    eax,0x5
  10338f:	89 c2                	mov    edx,eax
  103391:	8b 45 f0             	mov    eax,DWORD PTR [ebp-0x10]
  103394:	01 d0                	add    eax,edx
  103396:	83 ec 08             	sub    esp,0x8
  103399:	50                   	push   eax
  10339a:	ff 75 08             	push   DWORD PTR [ebp+0x8]
  10339d:	e8 e5 fc ff ff       	call   103087 <mark_block>
  1033a2:	83 c4 10             	add    esp,0x10
  1033a5:	8b 45 f4             	mov    eax,DWORD PTR [ebp-0xc]
  1033a8:	c1 e0 05             	shl    eax,0x5
  1033ab:	89 c2                	mov    edx,eax
  1033ad:	8b 45 f0             	mov    eax,DWORD PTR [ebp-0x10]
  1033b0:	01 c2                	add    edx,eax
  1033b2:	8b 45 08             	mov    eax,DWORD PTR [ebp+0x8]
  1033b5:	89 c1                	mov    ecx,eax
  1033b7:	d3 e2                	shl    edx,cl
  1033b9:	89 d0                	mov    eax,edx
  1033bb:	8b 5d fc             	mov    ebx,DWORD PTR [ebp-0x4]
  1033be:	c9                   	leave  
  1033bf:	c3                   	ret    

001033c0 <register_page_table>:
  1033c0:	55                   	push   ebp
  1033c1:	89 e5                	mov    ebp,esp
  1033c3:	8b 15 4c e9 13 00    	mov    edx,DWORD PTR ds:0x13e94c
  1033c9:	8b 45 08             	mov    eax,DWORD PTR [ebp+0x8]
  1033cc:	8b 40 04             	mov    eax,DWORD PTR [eax+0x4]
  1033cf:	c1 e0 02             	shl    eax,0x2
  1033d2:	01 c2                	add    edx,eax
  1033d4:	8b 45 08             	mov    eax,DWORD PTR [ebp+0x8]
  1033d7:	8b 40 08             	mov    eax,DWORD PTR [eax+0x8]
  1033da:	83 c8 07             	or     eax,0x7
  1033dd:	89 02                	mov    DWORD PTR [edx],eax
  1033df:	0f 20 d8             	mov    eax,cr3
  1033e2:	0f 22 d8             	mov    cr3,eax
  1033e5:	5d                   	pop    ebp
  1033e6:	c3                   	ret    

001033e7 <drop_page_table>:
  1033e7:	55                   	push   ebp
  1033e8:	89 e5                	mov    ebp,esp
  1033ea:	8b 15 4c e9 13 00    	mov    edx,DWORD PTR ds:0x13e94c
  1033f0:	8b 45 08             	mov    eax,DWORD PTR [ebp+0x8]
  1033f3:	8b 40 04             	mov    eax,DWORD PTR [eax+0x4]
  1033f6:	c1 e0 02             	shl    eax,0x2
  1033f9:	01 d0                	add    eax,edx
  1033fb:	c7 00 00 00 00 00    	mov    DWORD PTR [eax],0x0
  103401:	5d                   	pop    ebp
  103402:	c3                   	ret    

00103403 <swap_page_table>:
  103403:	55                   	push   ebp
  103404:	89 e5                	mov    ebp,esp
  103406:	eb 1f                	jmp    103427 <swap_page_table+0x24>
  103408:	8b 45 0c             	mov    eax,DWORD PTR [ebp+0xc]
  10340b:	8b 40 04             	mov    eax,DWORD PTR [eax+0x4]
  10340e:	85 c0                	test   eax,eax
  103410:	75 02                	jne    103414 <swap_page_table+0x11>
  103412:	eb 13                	jmp    103427 <swap_page_table+0x24>
  103414:	ff 75 0c             	push   DWORD PTR [ebp+0xc]
  103417:	e8 a4 ff ff ff       	call   1033c0 <register_page_table>
  10341c:	83 c4 04             	add    esp,0x4
  10341f:	8b 45 0c             	mov    eax,DWORD PTR [ebp+0xc]
  103422:	8b 00                	mov    eax,DWORD PTR [eax]
  103424:	89 45 0c             	mov    DWORD PTR [ebp+0xc],eax
  103427:	83 7d 0c 00          	cmp    DWORD PTR [ebp+0xc],0x0
  10342b:	75 db                	jne    103408 <swap_page_table+0x5>
  10342d:	c9                   	leave  
  10342e:	c3                   	ret    

0010342f <update_page_table>:
  10342f:	55                   	push   ebp
  103430:	89 e5                	mov    ebp,esp
  103432:	eb 13                	jmp    103447 <update_page_table+0x18>
  103434:	ff 75 08             	push   DWORD PTR [ebp+0x8]
  103437:	e8 84 ff ff ff       	call   1033c0 <register_page_table>
  10343c:	83 c4 04             	add    esp,0x4
  10343f:	8b 45 08             	mov    eax,DWORD PTR [ebp+0x8]
  103442:	8b 00                	mov    eax,DWORD PTR [eax]
  103444:	89 45 08             	mov    DWORD PTR [ebp+0x8],eax
  103447:	83 7d 08 00          	cmp    DWORD PTR [ebp+0x8],0x0
  10344b:	75 e7                	jne    103434 <update_page_table+0x5>
  10344d:	c9                   	leave  
  10344e:	c3                   	ret    

0010344f <nonid_page>:
  10344f:	55                   	push   ebp
  103450:	89 e5                	mov    ebp,esp
  103452:	53                   	push   ebx
  103453:	83 ec 24             	sub    esp,0x24
  103456:	8b 45 10             	mov    eax,DWORD PTR [ebp+0x10]
  103459:	88 45 e4             	mov    BYTE PTR [ebp-0x1c],al
  10345c:	a1 a0 f8 17 00       	mov    eax,ds:0x17f8a0
  103461:	83 ec 08             	sub    esp,0x8
  103464:	ff 75 0c             	push   DWORD PTR [ebp+0xc]
  103467:	50                   	push   eax
  103468:	e8 81 01 00 00       	call   1035ee <get_mapping>
  10346d:	83 c4 10             	add    esp,0x10
  103470:	8b 45 0c             	mov    eax,DWORD PTR [ebp+0xc]
  103473:	c1 e8 0a             	shr    eax,0xa
  103476:	89 c2                	mov    edx,eax
  103478:	8b 45 0c             	mov    eax,DWORD PTR [ebp+0xc]
  10347b:	c1 e0 0c             	shl    eax,0xc
  10347e:	52                   	push   edx
  10347f:	50                   	push   eax
  103480:	ff 75 0c             	push   DWORD PTR [ebp+0xc]
  103483:	68 cc 98 10 00       	push   0x1098cc
  103488:	e8 99 05 00 00       	call   103a26 <dummy_print>
  10348d:	83 c4 10             	add    esp,0x10
  103490:	e9 45 01 00 00       	jmp    1035da <nonid_page+0x18b>
  103495:	8b 45 08             	mov    eax,DWORD PTR [ebp+0x8]
  103498:	8b 40 08             	mov    eax,DWORD PTR [eax+0x8]
  10349b:	85 c0                	test   eax,eax
  10349d:	75 3f                	jne    1034de <nonid_page+0x8f>
  10349f:	83 ec 08             	sub    esp,0x8
  1034a2:	68 00 10 00 00       	push   0x1000
  1034a7:	68 00 40 00 00       	push   0x4000
  1034ac:	e8 c1 f3 ff ff       	call   102872 <malloc_a>
  1034b1:	83 c4 10             	add    esp,0x10
  1034b4:	89 c2                	mov    edx,eax
  1034b6:	8b 45 08             	mov    eax,DWORD PTR [ebp+0x8]
  1034b9:	89 50 08             	mov    DWORD PTR [eax+0x8],edx
  1034bc:	8b 45 0c             	mov    eax,DWORD PTR [ebp+0xc]
  1034bf:	c1 e8 0a             	shr    eax,0xa
  1034c2:	89 c2                	mov    edx,eax
  1034c4:	8b 45 08             	mov    eax,DWORD PTR [ebp+0x8]
  1034c7:	89 50 04             	mov    DWORD PTR [eax+0x4],edx
  1034ca:	80 7d e4 00          	cmp    BYTE PTR [ebp-0x1c],0x0
  1034ce:	74 0e                	je     1034de <nonid_page+0x8f>
  1034d0:	83 ec 0c             	sub    esp,0xc
  1034d3:	ff 75 08             	push   DWORD PTR [ebp+0x8]
  1034d6:	e8 e5 fe ff ff       	call   1033c0 <register_page_table>
  1034db:	83 c4 10             	add    esp,0x10
  1034de:	8b 45 08             	mov    eax,DWORD PTR [ebp+0x8]
  1034e1:	8b 40 04             	mov    eax,DWORD PTR [eax+0x4]
  1034e4:	8b 55 0c             	mov    edx,DWORD PTR [ebp+0xc]
  1034e7:	c1 ea 0a             	shr    edx,0xa
  1034ea:	39 d0                	cmp    eax,edx
  1034ec:	75 4b                	jne    103539 <nonid_page+0xea>
  1034ee:	83 ec 0c             	sub    esp,0xc
  1034f1:	6a 00                	push   0x0
  1034f3:	e8 c5 fd ff ff       	call   1032bd <get_page_block>
  1034f8:	83 c4 10             	add    esp,0x10
  1034fb:	89 45 f4             	mov    DWORD PTR [ebp-0xc],eax
  1034fe:	8b 45 08             	mov    eax,DWORD PTR [ebp+0x8]
  103501:	8b 40 08             	mov    eax,DWORD PTR [eax+0x8]
  103504:	8b 55 0c             	mov    edx,DWORD PTR [ebp+0xc]
  103507:	81 e2 ff 03 00 00    	and    edx,0x3ff
  10350d:	c1 e2 02             	shl    edx,0x2
  103510:	01 d0                	add    eax,edx
  103512:	8b 55 f4             	mov    edx,DWORD PTR [ebp-0xc]
  103515:	c1 e2 0c             	shl    edx,0xc
  103518:	83 ca 07             	or     edx,0x7
  10351b:	89 10                	mov    DWORD PTR [eax],edx
  10351d:	80 7d e4 00          	cmp    BYTE PTR [ebp-0x1c],0x0
  103521:	74 0e                	je     103531 <nonid_page+0xe2>
  103523:	83 ec 0c             	sub    esp,0xc
  103526:	ff 75 08             	push   DWORD PTR [ebp+0x8]
  103529:	e8 92 fe ff ff       	call   1033c0 <register_page_table>
  10352e:	83 c4 10             	add    esp,0x10
  103531:	8b 45 f4             	mov    eax,DWORD PTR [ebp-0xc]
  103534:	e9 b0 00 00 00       	jmp    1035e9 <nonid_page+0x19a>
  103539:	8b 45 08             	mov    eax,DWORD PTR [ebp+0x8]
  10353c:	8b 00                	mov    eax,DWORD PTR [eax]
  10353e:	85 c0                	test   eax,eax
  103540:	0f 85 8c 00 00 00    	jne    1035d2 <nonid_page+0x183>
  103546:	83 ec 0c             	sub    esp,0xc
  103549:	6a 0c                	push   0xc
  10354b:	e8 29 f1 ff ff       	call   102679 <malloc>
  103550:	83 c4 10             	add    esp,0x10
  103553:	89 c2                	mov    edx,eax
  103555:	8b 45 08             	mov    eax,DWORD PTR [ebp+0x8]
  103558:	89 10                	mov    DWORD PTR [eax],edx
  10355a:	8b 45 08             	mov    eax,DWORD PTR [ebp+0x8]
  10355d:	8b 18                	mov    ebx,DWORD PTR [eax]
  10355f:	83 ec 08             	sub    esp,0x8
  103562:	68 00 10 00 00       	push   0x1000
  103567:	68 00 40 00 00       	push   0x4000
  10356c:	e8 01 f3 ff ff       	call   102872 <malloc_a>
  103571:	83 c4 10             	add    esp,0x10
  103574:	89 43 08             	mov    DWORD PTR [ebx+0x8],eax
  103577:	8b 45 08             	mov    eax,DWORD PTR [ebp+0x8]
  10357a:	8b 00                	mov    eax,DWORD PTR [eax]
  10357c:	8b 55 0c             	mov    edx,DWORD PTR [ebp+0xc]
  10357f:	c1 ea 0a             	shr    edx,0xa
  103582:	89 50 04             	mov    DWORD PTR [eax+0x4],edx
  103585:	80 7d e4 00          	cmp    BYTE PTR [ebp-0x1c],0x0
  103589:	74 11                	je     10359c <nonid_page+0x14d>
  10358b:	8b 45 08             	mov    eax,DWORD PTR [ebp+0x8]
  10358e:	8b 00                	mov    eax,DWORD PTR [eax]
  103590:	83 ec 0c             	sub    esp,0xc
  103593:	50                   	push   eax
  103594:	e8 27 fe ff ff       	call   1033c0 <register_page_table>
  103599:	83 c4 10             	add    esp,0x10
  10359c:	83 ec 0c             	sub    esp,0xc
  10359f:	6a 00                	push   0x0
  1035a1:	e8 17 fd ff ff       	call   1032bd <get_page_block>
  1035a6:	83 c4 10             	add    esp,0x10
  1035a9:	89 45 f4             	mov    DWORD PTR [ebp-0xc],eax
  1035ac:	8b 45 08             	mov    eax,DWORD PTR [ebp+0x8]
  1035af:	8b 00                	mov    eax,DWORD PTR [eax]
  1035b1:	8b 40 08             	mov    eax,DWORD PTR [eax+0x8]
  1035b4:	8b 55 0c             	mov    edx,DWORD PTR [ebp+0xc]
  1035b7:	81 e2 ff 03 00 00    	and    edx,0x3ff
  1035bd:	c1 e2 02             	shl    edx,0x2
  1035c0:	01 d0                	add    eax,edx
  1035c2:	8b 55 f4             	mov    edx,DWORD PTR [ebp-0xc]
  1035c5:	c1 e2 0c             	shl    edx,0xc
  1035c8:	83 ca 07             	or     edx,0x7
  1035cb:	89 10                	mov    DWORD PTR [eax],edx
  1035cd:	8b 45 f4             	mov    eax,DWORD PTR [ebp-0xc]
  1035d0:	eb 17                	jmp    1035e9 <nonid_page+0x19a>
  1035d2:	8b 45 08             	mov    eax,DWORD PTR [ebp+0x8]
  1035d5:	8b 00                	mov    eax,DWORD PTR [eax]
  1035d7:	89 45 08             	mov    DWORD PTR [ebp+0x8],eax
  1035da:	83 7d 08 00          	cmp    DWORD PTR [ebp+0x8],0x0
  1035de:	0f 85 b1 fe ff ff    	jne    103495 <nonid_page+0x46>
  1035e4:	b8 00 00 00 00       	mov    eax,0x0
  1035e9:	8b 5d fc             	mov    ebx,DWORD PTR [ebp-0x4]
  1035ec:	c9                   	leave  
  1035ed:	c3                   	ret    

001035ee <get_mapping>:
  1035ee:	55                   	push   ebp
  1035ef:	89 e5                	mov    ebp,esp
  1035f1:	eb 33                	jmp    103626 <get_mapping+0x38>
  1035f3:	8b 45 08             	mov    eax,DWORD PTR [ebp+0x8]
  1035f6:	8b 40 04             	mov    eax,DWORD PTR [eax+0x4]
  1035f9:	8b 55 0c             	mov    edx,DWORD PTR [ebp+0xc]
  1035fc:	c1 ea 0a             	shr    edx,0xa
  1035ff:	39 d0                	cmp    eax,edx
  103601:	75 1b                	jne    10361e <get_mapping+0x30>
  103603:	8b 45 08             	mov    eax,DWORD PTR [ebp+0x8]
  103606:	8b 40 08             	mov    eax,DWORD PTR [eax+0x8]
  103609:	8b 55 0c             	mov    edx,DWORD PTR [ebp+0xc]
  10360c:	81 e2 ff 03 00 00    	and    edx,0x3ff
  103612:	c1 e2 02             	shl    edx,0x2
  103615:	01 d0                	add    eax,edx
  103617:	8b 00                	mov    eax,DWORD PTR [eax]
  103619:	c1 e8 0c             	shr    eax,0xc
  10361c:	eb 13                	jmp    103631 <get_mapping+0x43>
  10361e:	8b 45 08             	mov    eax,DWORD PTR [ebp+0x8]
  103621:	8b 00                	mov    eax,DWORD PTR [eax]
  103623:	89 45 08             	mov    DWORD PTR [ebp+0x8],eax
  103626:	83 7d 08 00          	cmp    DWORD PTR [ebp+0x8],0x0
  10362a:	75 c7                	jne    1035f3 <get_mapping+0x5>
  10362c:	b8 ff ff ff ff       	mov    eax,0xffffffff
  103631:	5d                   	pop    ebp
  103632:	c3                   	ret    

00103633 <id_page>:
  103633:	55                   	push   ebp
  103634:	89 e5                	mov    ebp,esp
  103636:	53                   	push   ebx
  103637:	83 ec 04             	sub    esp,0x4
  10363a:	0f b6 05 b0 f8 17 00 	movzx  eax,BYTE PTR ds:0x17f8b0
  103641:	84 c0                	test   al,al
  103643:	74 20                	je     103665 <id_page+0x32>
  103645:	8b 45 0c             	mov    eax,DWORD PTR [ebp+0xc]
  103648:	c1 e8 0a             	shr    eax,0xa
  10364b:	89 c2                	mov    edx,eax
  10364d:	8b 45 0c             	mov    eax,DWORD PTR [ebp+0xc]
  103650:	c1 e0 0c             	shl    eax,0xc
  103653:	52                   	push   edx
  103654:	50                   	push   eax
  103655:	ff 75 0c             	push   DWORD PTR [ebp+0xc]
  103658:	68 fc 98 10 00       	push   0x1098fc
  10365d:	e8 c4 03 00 00       	call   103a26 <dummy_print>
  103662:	83 c4 10             	add    esp,0x10
  103665:	a1 a0 f8 17 00       	mov    eax,ds:0x17f8a0
  10366a:	83 ec 08             	sub    esp,0x8
  10366d:	ff 75 0c             	push   DWORD PTR [ebp+0xc]
  103670:	50                   	push   eax
  103671:	e8 78 ff ff ff       	call   1035ee <get_mapping>
  103676:	83 c4 10             	add    esp,0x10
  103679:	85 c0                	test   eax,eax
  10367b:	e9 47 01 00 00       	jmp    1037c7 <id_page+0x194>
  103680:	8b 45 08             	mov    eax,DWORD PTR [ebp+0x8]
  103683:	8b 40 08             	mov    eax,DWORD PTR [eax+0x8]
  103686:	85 c0                	test   eax,eax
  103688:	75 4c                	jne    1036d6 <id_page+0xa3>
  10368a:	83 ec 08             	sub    esp,0x8
  10368d:	ff 75 0c             	push   DWORD PTR [ebp+0xc]
  103690:	68 28 99 10 00       	push   0x109928
  103695:	e8 8c 03 00 00       	call   103a26 <dummy_print>
  10369a:	83 c4 10             	add    esp,0x10
  10369d:	83 ec 08             	sub    esp,0x8
  1036a0:	68 00 10 00 00       	push   0x1000
  1036a5:	68 00 40 00 00       	push   0x4000
  1036aa:	e8 c3 f1 ff ff       	call   102872 <malloc_a>
  1036af:	83 c4 10             	add    esp,0x10
  1036b2:	89 c2                	mov    edx,eax
  1036b4:	8b 45 08             	mov    eax,DWORD PTR [ebp+0x8]
  1036b7:	89 50 08             	mov    DWORD PTR [eax+0x8],edx
  1036ba:	8b 45 0c             	mov    eax,DWORD PTR [ebp+0xc]
  1036bd:	c1 e8 0a             	shr    eax,0xa
  1036c0:	89 c2                	mov    edx,eax
  1036c2:	8b 45 08             	mov    eax,DWORD PTR [ebp+0x8]
  1036c5:	89 50 04             	mov    DWORD PTR [eax+0x4],edx
  1036c8:	83 ec 0c             	sub    esp,0xc
  1036cb:	ff 75 08             	push   DWORD PTR [ebp+0x8]
  1036ce:	e8 ed fc ff ff       	call   1033c0 <register_page_table>
  1036d3:	83 c4 10             	add    esp,0x10
  1036d6:	8b 45 08             	mov    eax,DWORD PTR [ebp+0x8]
  1036d9:	8b 40 04             	mov    eax,DWORD PTR [eax+0x4]
  1036dc:	8b 55 0c             	mov    edx,DWORD PTR [ebp+0xc]
  1036df:	c1 ea 0a             	shr    edx,0xa
  1036e2:	39 d0                	cmp    eax,edx
  1036e4:	75 35                	jne    10371b <id_page+0xe8>
  1036e6:	8b 45 08             	mov    eax,DWORD PTR [ebp+0x8]
  1036e9:	8b 40 08             	mov    eax,DWORD PTR [eax+0x8]
  1036ec:	8b 55 0c             	mov    edx,DWORD PTR [ebp+0xc]
  1036ef:	81 e2 ff 03 00 00    	and    edx,0x3ff
  1036f5:	c1 e2 02             	shl    edx,0x2
  1036f8:	01 d0                	add    eax,edx
  1036fa:	8b 55 0c             	mov    edx,DWORD PTR [ebp+0xc]
  1036fd:	c1 e2 0c             	shl    edx,0xc
  103700:	83 ca 07             	or     edx,0x7
  103703:	89 10                	mov    DWORD PTR [eax],edx
  103705:	8b 45 0c             	mov    eax,DWORD PTR [ebp+0xc]
  103708:	83 ec 08             	sub    esp,0x8
  10370b:	50                   	push   eax
  10370c:	6a 00                	push   0x0
  10370e:	e8 74 f9 ff ff       	call   103087 <mark_block>
  103713:	83 c4 10             	add    esp,0x10
  103716:	e9 b6 00 00 00       	jmp    1037d1 <id_page+0x19e>
  10371b:	8b 45 08             	mov    eax,DWORD PTR [ebp+0x8]
  10371e:	8b 00                	mov    eax,DWORD PTR [eax]
  103720:	85 c0                	test   eax,eax
  103722:	0f 85 97 00 00 00    	jne    1037bf <id_page+0x18c>
  103728:	83 ec 08             	sub    esp,0x8
  10372b:	ff 75 0c             	push   DWORD PTR [ebp+0xc]
  10372e:	68 4c 99 10 00       	push   0x10994c
  103733:	e8 ee 02 00 00       	call   103a26 <dummy_print>
  103738:	83 c4 10             	add    esp,0x10
  10373b:	83 ec 0c             	sub    esp,0xc
  10373e:	6a 0c                	push   0xc
  103740:	e8 34 ef ff ff       	call   102679 <malloc>
  103745:	83 c4 10             	add    esp,0x10
  103748:	89 c2                	mov    edx,eax
  10374a:	8b 45 08             	mov    eax,DWORD PTR [ebp+0x8]
  10374d:	89 10                	mov    DWORD PTR [eax],edx
  10374f:	8b 45 08             	mov    eax,DWORD PTR [ebp+0x8]
  103752:	8b 18                	mov    ebx,DWORD PTR [eax]
  103754:	83 ec 08             	sub    esp,0x8
  103757:	68 00 10 00 00       	push   0x1000
  10375c:	68 00 40 00 00       	push   0x4000
  103761:	e8 0c f1 ff ff       	call   102872 <malloc_a>
  103766:	83 c4 10             	add    esp,0x10
  103769:	89 43 08             	mov    DWORD PTR [ebx+0x8],eax
  10376c:	8b 45 08             	mov    eax,DWORD PTR [ebp+0x8]
  10376f:	8b 00                	mov    eax,DWORD PTR [eax]
  103771:	8b 55 0c             	mov    edx,DWORD PTR [ebp+0xc]
  103774:	c1 ea 0a             	shr    edx,0xa
  103777:	89 50 04             	mov    DWORD PTR [eax+0x4],edx
  10377a:	8b 45 08             	mov    eax,DWORD PTR [ebp+0x8]
  10377d:	8b 00                	mov    eax,DWORD PTR [eax]
  10377f:	83 ec 0c             	sub    esp,0xc
  103782:	50                   	push   eax
  103783:	e8 38 fc ff ff       	call   1033c0 <register_page_table>
  103788:	83 c4 10             	add    esp,0x10
  10378b:	8b 45 08             	mov    eax,DWORD PTR [ebp+0x8]
  10378e:	8b 00                	mov    eax,DWORD PTR [eax]
  103790:	8b 40 08             	mov    eax,DWORD PTR [eax+0x8]
  103793:	8b 55 0c             	mov    edx,DWORD PTR [ebp+0xc]
  103796:	81 e2 ff 03 00 00    	and    edx,0x3ff
  10379c:	c1 e2 02             	shl    edx,0x2
  10379f:	01 d0                	add    eax,edx
  1037a1:	8b 55 0c             	mov    edx,DWORD PTR [ebp+0xc]
  1037a4:	c1 e2 0c             	shl    edx,0xc
  1037a7:	83 ca 07             	or     edx,0x7
  1037aa:	89 10                	mov    DWORD PTR [eax],edx
  1037ac:	8b 45 0c             	mov    eax,DWORD PTR [ebp+0xc]
  1037af:	83 ec 08             	sub    esp,0x8
  1037b2:	50                   	push   eax
  1037b3:	6a 00                	push   0x0
  1037b5:	e8 cd f8 ff ff       	call   103087 <mark_block>
  1037ba:	83 c4 10             	add    esp,0x10
  1037bd:	eb 12                	jmp    1037d1 <id_page+0x19e>
  1037bf:	8b 45 08             	mov    eax,DWORD PTR [ebp+0x8]
  1037c2:	8b 00                	mov    eax,DWORD PTR [eax]
  1037c4:	89 45 08             	mov    DWORD PTR [ebp+0x8],eax
  1037c7:	83 7d 08 00          	cmp    DWORD PTR [ebp+0x8],0x0
  1037cb:	0f 85 af fe ff ff    	jne    103680 <id_page+0x4d>
  1037d1:	8b 5d fc             	mov    ebx,DWORD PTR [ebp-0x4]
  1037d4:	c9                   	leave  
  1037d5:	c3                   	ret    

001037d6 <mapped_page>:
  1037d6:	55                   	push   ebp
  1037d7:	89 e5                	mov    ebp,esp
  1037d9:	53                   	push   ebx
  1037da:	83 ec 14             	sub    esp,0x14
  1037dd:	8b 45 14             	mov    eax,DWORD PTR [ebp+0x14]
  1037e0:	88 45 f4             	mov    BYTE PTR [ebp-0xc],al
  1037e3:	0f b6 05 b0 f8 17 00 	movzx  eax,BYTE PTR ds:0x17f8b0
  1037ea:	84 c0                	test   al,al
  1037ec:	74 20                	je     10380e <mapped_page+0x38>
  1037ee:	8b 45 0c             	mov    eax,DWORD PTR [ebp+0xc]
  1037f1:	c1 e8 0a             	shr    eax,0xa
  1037f4:	89 c2                	mov    edx,eax
  1037f6:	8b 45 0c             	mov    eax,DWORD PTR [ebp+0xc]
  1037f9:	c1 e0 0c             	shl    eax,0xc
  1037fc:	52                   	push   edx
  1037fd:	50                   	push   eax
  1037fe:	ff 75 0c             	push   DWORD PTR [ebp+0xc]
  103801:	68 70 99 10 00       	push   0x109970
  103806:	e8 1b 02 00 00       	call   103a26 <dummy_print>
  10380b:	83 c4 10             	add    esp,0x10
  10380e:	a1 a0 f8 17 00       	mov    eax,ds:0x17f8a0
  103813:	83 ec 08             	sub    esp,0x8
  103816:	ff 75 0c             	push   DWORD PTR [ebp+0xc]
  103819:	50                   	push   eax
  10381a:	e8 cf fd ff ff       	call   1035ee <get_mapping>
  10381f:	83 c4 10             	add    esp,0x10
  103822:	85 c0                	test   eax,eax
  103824:	e9 6c 01 00 00       	jmp    103995 <mapped_page+0x1bf>
  103829:	8b 45 08             	mov    eax,DWORD PTR [ebp+0x8]
  10382c:	8b 40 08             	mov    eax,DWORD PTR [eax+0x8]
  10382f:	85 c0                	test   eax,eax
  103831:	75 52                	jne    103885 <mapped_page+0xaf>
  103833:	83 ec 08             	sub    esp,0x8
  103836:	ff 75 0c             	push   DWORD PTR [ebp+0xc]
  103839:	68 28 99 10 00       	push   0x109928
  10383e:	e8 e3 01 00 00       	call   103a26 <dummy_print>
  103843:	83 c4 10             	add    esp,0x10
  103846:	83 ec 08             	sub    esp,0x8
  103849:	68 00 10 00 00       	push   0x1000
  10384e:	68 00 40 00 00       	push   0x4000
  103853:	e8 1a f0 ff ff       	call   102872 <malloc_a>
  103858:	83 c4 10             	add    esp,0x10
  10385b:	89 c2                	mov    edx,eax
  10385d:	8b 45 08             	mov    eax,DWORD PTR [ebp+0x8]
  103860:	89 50 08             	mov    DWORD PTR [eax+0x8],edx
  103863:	8b 45 0c             	mov    eax,DWORD PTR [ebp+0xc]
  103866:	c1 e8 0a             	shr    eax,0xa
  103869:	89 c2                	mov    edx,eax
  10386b:	8b 45 08             	mov    eax,DWORD PTR [ebp+0x8]
  10386e:	89 50 04             	mov    DWORD PTR [eax+0x4],edx
  103871:	80 7d f4 00          	cmp    BYTE PTR [ebp-0xc],0x0
  103875:	74 0e                	je     103885 <mapped_page+0xaf>
  103877:	83 ec 0c             	sub    esp,0xc
  10387a:	ff 75 08             	push   DWORD PTR [ebp+0x8]
  10387d:	e8 3e fb ff ff       	call   1033c0 <register_page_table>
  103882:	83 c4 10             	add    esp,0x10
  103885:	8b 45 08             	mov    eax,DWORD PTR [ebp+0x8]
  103888:	8b 40 04             	mov    eax,DWORD PTR [eax+0x4]
  10388b:	8b 55 0c             	mov    edx,DWORD PTR [ebp+0xc]
  10388e:	c1 ea 0a             	shr    edx,0xa
  103891:	39 d0                	cmp    eax,edx
  103893:	75 4e                	jne    1038e3 <mapped_page+0x10d>
  103895:	8b 45 08             	mov    eax,DWORD PTR [ebp+0x8]
  103898:	8b 40 08             	mov    eax,DWORD PTR [eax+0x8]
  10389b:	8b 55 0c             	mov    edx,DWORD PTR [ebp+0xc]
  10389e:	81 e2 ff 03 00 00    	and    edx,0x3ff
  1038a4:	c1 e2 02             	shl    edx,0x2
  1038a7:	01 d0                	add    eax,edx
  1038a9:	8b 55 10             	mov    edx,DWORD PTR [ebp+0x10]
  1038ac:	c1 e2 0c             	shl    edx,0xc
  1038af:	83 ca 07             	or     edx,0x7
  1038b2:	89 10                	mov    DWORD PTR [eax],edx
  1038b4:	8b 45 10             	mov    eax,DWORD PTR [ebp+0x10]
  1038b7:	83 ec 08             	sub    esp,0x8
  1038ba:	50                   	push   eax
  1038bb:	6a 00                	push   0x0
  1038bd:	e8 c5 f7 ff ff       	call   103087 <mark_block>
  1038c2:	83 c4 10             	add    esp,0x10
  1038c5:	80 7d f4 00          	cmp    BYTE PTR [ebp-0xc],0x0
  1038c9:	74 13                	je     1038de <mapped_page+0x108>
  1038cb:	83 ec 0c             	sub    esp,0xc
  1038ce:	ff 75 08             	push   DWORD PTR [ebp+0x8]
  1038d1:	e8 ea fa ff ff       	call   1033c0 <register_page_table>
  1038d6:	83 c4 10             	add    esp,0x10
  1038d9:	e9 c1 00 00 00       	jmp    10399f <mapped_page+0x1c9>
  1038de:	e9 bc 00 00 00       	jmp    10399f <mapped_page+0x1c9>
  1038e3:	8b 45 08             	mov    eax,DWORD PTR [ebp+0x8]
  1038e6:	8b 00                	mov    eax,DWORD PTR [eax]
  1038e8:	85 c0                	test   eax,eax
  1038ea:	0f 85 9d 00 00 00    	jne    10398d <mapped_page+0x1b7>
  1038f0:	83 ec 08             	sub    esp,0x8
  1038f3:	ff 75 0c             	push   DWORD PTR [ebp+0xc]
  1038f6:	68 4c 99 10 00       	push   0x10994c
  1038fb:	e8 26 01 00 00       	call   103a26 <dummy_print>
  103900:	83 c4 10             	add    esp,0x10
  103903:	83 ec 0c             	sub    esp,0xc
  103906:	6a 0c                	push   0xc
  103908:	e8 6c ed ff ff       	call   102679 <malloc>
  10390d:	83 c4 10             	add    esp,0x10
  103910:	89 c2                	mov    edx,eax
  103912:	8b 45 08             	mov    eax,DWORD PTR [ebp+0x8]
  103915:	89 10                	mov    DWORD PTR [eax],edx
  103917:	8b 45 08             	mov    eax,DWORD PTR [ebp+0x8]
  10391a:	8b 18                	mov    ebx,DWORD PTR [eax]
  10391c:	83 ec 08             	sub    esp,0x8
  10391f:	68 00 10 00 00       	push   0x1000
  103924:	68 00 40 00 00       	push   0x4000
  103929:	e8 44 ef ff ff       	call   102872 <malloc_a>
  10392e:	83 c4 10             	add    esp,0x10
  103931:	89 43 08             	mov    DWORD PTR [ebx+0x8],eax
  103934:	8b 45 08             	mov    eax,DWORD PTR [ebp+0x8]
  103937:	8b 00                	mov    eax,DWORD PTR [eax]
  103939:	8b 55 0c             	mov    edx,DWORD PTR [ebp+0xc]
  10393c:	c1 ea 0a             	shr    edx,0xa
  10393f:	89 50 04             	mov    DWORD PTR [eax+0x4],edx
  103942:	80 7d f4 00          	cmp    BYTE PTR [ebp-0xc],0x0
  103946:	74 11                	je     103959 <mapped_page+0x183>
  103948:	8b 45 08             	mov    eax,DWORD PTR [ebp+0x8]
  10394b:	8b 00                	mov    eax,DWORD PTR [eax]
  10394d:	83 ec 0c             	sub    esp,0xc
  103950:	50                   	push   eax
  103951:	e8 6a fa ff ff       	call   1033c0 <register_page_table>
  103956:	83 c4 10             	add    esp,0x10
  103959:	8b 45 08             	mov    eax,DWORD PTR [ebp+0x8]
  10395c:	8b 00                	mov    eax,DWORD PTR [eax]
  10395e:	8b 40 08             	mov    eax,DWORD PTR [eax+0x8]
  103961:	8b 55 0c             	mov    edx,DWORD PTR [ebp+0xc]
  103964:	81 e2 ff 03 00 00    	and    edx,0x3ff
  10396a:	c1 e2 02             	shl    edx,0x2
  10396d:	01 d0                	add    eax,edx
  10396f:	8b 55 10             	mov    edx,DWORD PTR [ebp+0x10]
  103972:	c1 e2 0c             	shl    edx,0xc
  103975:	83 ca 07             	or     edx,0x7
  103978:	89 10                	mov    DWORD PTR [eax],edx
  10397a:	8b 45 10             	mov    eax,DWORD PTR [ebp+0x10]
  10397d:	83 ec 08             	sub    esp,0x8
  103980:	50                   	push   eax
  103981:	6a 00                	push   0x0
  103983:	e8 ff f6 ff ff       	call   103087 <mark_block>
  103988:	83 c4 10             	add    esp,0x10
  10398b:	eb 12                	jmp    10399f <mapped_page+0x1c9>
  10398d:	8b 45 08             	mov    eax,DWORD PTR [ebp+0x8]
  103990:	8b 00                	mov    eax,DWORD PTR [eax]
  103992:	89 45 08             	mov    DWORD PTR [ebp+0x8],eax
  103995:	83 7d 08 00          	cmp    DWORD PTR [ebp+0x8],0x0
  103999:	0f 85 8a fe ff ff    	jne    103829 <mapped_page+0x53>
  10399f:	8b 5d fc             	mov    ebx,DWORD PTR [ebp-0x4]
  1039a2:	c9                   	leave  
  1039a3:	c3                   	ret    

001039a4 <unmap_page>:
  1039a4:	55                   	push   ebp
  1039a5:	89 e5                	mov    ebp,esp
  1039a7:	83 ec 08             	sub    esp,0x8
  1039aa:	eb 72                	jmp    103a1e <unmap_page+0x7a>
  1039ac:	8b 45 08             	mov    eax,DWORD PTR [ebp+0x8]
  1039af:	8b 40 08             	mov    eax,DWORD PTR [eax+0x8]
  1039b2:	85 c0                	test   eax,eax
  1039b4:	75 02                	jne    1039b8 <unmap_page+0x14>
  1039b6:	eb 6c                	jmp    103a24 <unmap_page+0x80>
  1039b8:	8b 45 08             	mov    eax,DWORD PTR [ebp+0x8]
  1039bb:	8b 00                	mov    eax,DWORD PTR [eax]
  1039bd:	85 c0                	test   eax,eax
  1039bf:	75 02                	jne    1039c3 <unmap_page+0x1f>
  1039c1:	eb 61                	jmp    103a24 <unmap_page+0x80>
  1039c3:	8b 45 08             	mov    eax,DWORD PTR [ebp+0x8]
  1039c6:	8b 40 04             	mov    eax,DWORD PTR [eax+0x4]
  1039c9:	8b 55 0c             	mov    edx,DWORD PTR [ebp+0xc]
  1039cc:	c1 ea 0a             	shr    edx,0xa
  1039cf:	39 d0                	cmp    eax,edx
  1039d1:	75 43                	jne    103a16 <unmap_page+0x72>
  1039d3:	8b 45 08             	mov    eax,DWORD PTR [ebp+0x8]
  1039d6:	8b 40 08             	mov    eax,DWORD PTR [eax+0x8]
  1039d9:	8b 55 0c             	mov    edx,DWORD PTR [ebp+0xc]
  1039dc:	81 e2 ff 03 00 00    	and    edx,0x3ff
  1039e2:	c1 e2 02             	shl    edx,0x2
  1039e5:	01 d0                	add    eax,edx
  1039e7:	8b 00                	mov    eax,DWORD PTR [eax]
  1039e9:	c1 e8 0c             	shr    eax,0xc
  1039ec:	83 ec 08             	sub    esp,0x8
  1039ef:	50                   	push   eax
  1039f0:	6a 00                	push   0x0
  1039f2:	e8 a9 f7 ff ff       	call   1031a0 <clear_block>
  1039f7:	83 c4 10             	add    esp,0x10
  1039fa:	8b 45 08             	mov    eax,DWORD PTR [ebp+0x8]
  1039fd:	8b 40 08             	mov    eax,DWORD PTR [eax+0x8]
  103a00:	8b 55 0c             	mov    edx,DWORD PTR [ebp+0xc]
  103a03:	81 e2 ff 03 00 00    	and    edx,0x3ff
  103a09:	c1 e2 02             	shl    edx,0x2
  103a0c:	01 d0                	add    eax,edx
  103a0e:	c7 00 00 00 00 00    	mov    DWORD PTR [eax],0x0
  103a14:	eb 0e                	jmp    103a24 <unmap_page+0x80>
  103a16:	8b 45 08             	mov    eax,DWORD PTR [ebp+0x8]
  103a19:	8b 00                	mov    eax,DWORD PTR [eax]
  103a1b:	89 45 08             	mov    DWORD PTR [ebp+0x8],eax
  103a1e:	83 7d 08 00          	cmp    DWORD PTR [ebp+0x8],0x0
  103a22:	75 88                	jne    1039ac <unmap_page+0x8>
  103a24:	c9                   	leave  
  103a25:	c3                   	ret    

00103a26 <dummy_print>:
  103a26:	55                   	push   ebp
  103a27:	89 e5                	mov    ebp,esp
  103a29:	8b 45 08             	mov    eax,DWORD PTR [ebp+0x8]
  103a2c:	0f b6 00             	movzx  eax,BYTE PTR [eax]
  103a2f:	0f be c0             	movsx  eax,al
  103a32:	5d                   	pop    ebp
  103a33:	c3                   	ret    

00103a34 <load_bios_gdt>:
  103a34:	55                   	push   ebp
  103a35:	89 e5                	mov    ebp,esp
  103a37:	83 ec 08             	sub    esp,0x8
  103a3a:	8b 45 08             	mov    eax,DWORD PTR [ebp+0x8]
  103a3d:	a3 80 e9 13 00       	mov    ds:0x13e980,eax
  103a42:	a1 80 e9 13 00       	mov    eax,ds:0x13e980
  103a47:	83 c0 38             	add    eax,0x38
  103a4a:	83 ec 0c             	sub    esp,0xc
  103a4d:	50                   	push   eax
  103a4e:	e8 05 00 00 00       	call   103a58 <install_tss>
  103a53:	83 c4 10             	add    esp,0x10
  103a56:	c9                   	leave  
  103a57:	c3                   	ret    

00103a58 <install_tss>:
  103a58:	55                   	push   ebp
  103a59:	89 e5                	mov    ebp,esp
  103a5b:	53                   	push   ebx
  103a5c:	83 ec 14             	sub    esp,0x14
  103a5f:	c7 45 f0 c0 e9 13 00 	mov    DWORD PTR [ebp-0x10],0x13e9c0
  103a66:	c7 45 ec 68 00 00 00 	mov    DWORD PTR [ebp-0x14],0x68
  103a6d:	8b 45 ec             	mov    eax,DWORD PTR [ebp-0x14]
  103a70:	89 c2                	mov    edx,eax
  103a72:	8b 45 08             	mov    eax,DWORD PTR [ebp+0x8]
  103a75:	0f b7 ca             	movzx  ecx,dx
  103a78:	0f b6 c9             	movzx  ecx,cl
  103a7b:	0f b6 18             	movzx  ebx,BYTE PTR [eax]
  103a7e:	83 e3 00             	and    ebx,0x0
  103a81:	09 d9                	or     ecx,ebx
  103a83:	88 08                	mov    BYTE PTR [eax],cl
  103a85:	66 c1 ea 08          	shr    dx,0x8
  103a89:	0f b7 d2             	movzx  edx,dx
  103a8c:	0f b6 48 01          	movzx  ecx,BYTE PTR [eax+0x1]
  103a90:	83 e1 00             	and    ecx,0x0
  103a93:	09 ca                	or     edx,ecx
  103a95:	88 50 01             	mov    BYTE PTR [eax+0x1],dl
  103a98:	8b 45 f0             	mov    eax,DWORD PTR [ebp-0x10]
  103a9b:	25 ff ff ff 00       	and    eax,0xffffff
  103aa0:	89 c2                	mov    edx,eax
  103aa2:	8b 45 08             	mov    eax,DWORD PTR [ebp+0x8]
  103aa5:	0f b6 ca             	movzx  ecx,dl
  103aa8:	0f b6 58 02          	movzx  ebx,BYTE PTR [eax+0x2]
  103aac:	83 e3 00             	and    ebx,0x0
  103aaf:	09 d9                	or     ecx,ebx
  103ab1:	88 48 02             	mov    BYTE PTR [eax+0x2],cl
  103ab4:	89 d1                	mov    ecx,edx
  103ab6:	c1 e9 08             	shr    ecx,0x8
  103ab9:	0f b6 c9             	movzx  ecx,cl
  103abc:	0f b6 58 03          	movzx  ebx,BYTE PTR [eax+0x3]
  103ac0:	83 e3 00             	and    ebx,0x0
  103ac3:	09 d9                	or     ecx,ebx
  103ac5:	88 48 03             	mov    BYTE PTR [eax+0x3],cl
  103ac8:	c1 ea 10             	shr    edx,0x10
  103acb:	0f b6 d2             	movzx  edx,dl
  103ace:	0f b6 48 04          	movzx  ecx,BYTE PTR [eax+0x4]
  103ad2:	83 e1 00             	and    ecx,0x0
  103ad5:	09 ca                	or     edx,ecx
  103ad7:	88 50 04             	mov    BYTE PTR [eax+0x4],dl
  103ada:	8b 45 08             	mov    eax,DWORD PTR [ebp+0x8]
  103add:	0f b6 50 05          	movzx  edx,BYTE PTR [eax+0x5]
  103ae1:	83 ca 01             	or     edx,0x1
  103ae4:	88 50 05             	mov    BYTE PTR [eax+0x5],dl
  103ae7:	8b 45 08             	mov    eax,DWORD PTR [ebp+0x8]
  103aea:	0f b6 50 05          	movzx  edx,BYTE PTR [eax+0x5]
  103aee:	83 e2 fd             	and    edx,0xfffffffd
  103af1:	88 50 05             	mov    BYTE PTR [eax+0x5],dl
  103af4:	8b 45 08             	mov    eax,DWORD PTR [ebp+0x8]
  103af7:	0f b6 50 05          	movzx  edx,BYTE PTR [eax+0x5]
  103afb:	83 e2 fb             	and    edx,0xfffffffb
  103afe:	88 50 05             	mov    BYTE PTR [eax+0x5],dl
  103b01:	8b 45 08             	mov    eax,DWORD PTR [ebp+0x8]
  103b04:	0f b6 50 05          	movzx  edx,BYTE PTR [eax+0x5]
  103b08:	83 ca 08             	or     edx,0x8
  103b0b:	88 50 05             	mov    BYTE PTR [eax+0x5],dl
  103b0e:	8b 45 08             	mov    eax,DWORD PTR [ebp+0x8]
  103b11:	0f b6 50 05          	movzx  edx,BYTE PTR [eax+0x5]
  103b15:	83 e2 ef             	and    edx,0xffffffef
  103b18:	88 50 05             	mov    BYTE PTR [eax+0x5],dl
  103b1b:	8b 45 08             	mov    eax,DWORD PTR [ebp+0x8]
  103b1e:	0f b6 50 05          	movzx  edx,BYTE PTR [eax+0x5]
  103b22:	83 ca 60             	or     edx,0x60
  103b25:	88 50 05             	mov    BYTE PTR [eax+0x5],dl
  103b28:	8b 45 08             	mov    eax,DWORD PTR [ebp+0x8]
  103b2b:	0f b6 50 05          	movzx  edx,BYTE PTR [eax+0x5]
  103b2f:	83 ca 80             	or     edx,0xffffff80
  103b32:	88 50 05             	mov    BYTE PTR [eax+0x5],dl
  103b35:	8b 45 ec             	mov    eax,DWORD PTR [ebp-0x14]
  103b38:	25 00 00 0f 00       	and    eax,0xf0000
  103b3d:	c1 e8 10             	shr    eax,0x10
  103b40:	83 e0 0f             	and    eax,0xf
  103b43:	89 c2                	mov    edx,eax
  103b45:	8b 45 08             	mov    eax,DWORD PTR [ebp+0x8]
  103b48:	89 d1                	mov    ecx,edx
  103b4a:	83 e1 0f             	and    ecx,0xf
  103b4d:	0f b6 50 06          	movzx  edx,BYTE PTR [eax+0x6]
  103b51:	83 e2 f0             	and    edx,0xfffffff0
  103b54:	09 ca                	or     edx,ecx
  103b56:	88 50 06             	mov    BYTE PTR [eax+0x6],dl
  103b59:	8b 45 08             	mov    eax,DWORD PTR [ebp+0x8]
  103b5c:	0f b6 50 06          	movzx  edx,BYTE PTR [eax+0x6]
  103b60:	83 e2 ef             	and    edx,0xffffffef
  103b63:	88 50 06             	mov    BYTE PTR [eax+0x6],dl
  103b66:	8b 45 08             	mov    eax,DWORD PTR [ebp+0x8]
  103b69:	0f b6 50 06          	movzx  edx,BYTE PTR [eax+0x6]
  103b6d:	83 e2 df             	and    edx,0xffffffdf
  103b70:	88 50 06             	mov    BYTE PTR [eax+0x6],dl
  103b73:	8b 45 08             	mov    eax,DWORD PTR [ebp+0x8]
  103b76:	0f b6 50 06          	movzx  edx,BYTE PTR [eax+0x6]
  103b7a:	83 e2 bf             	and    edx,0xffffffbf
  103b7d:	88 50 06             	mov    BYTE PTR [eax+0x6],dl
  103b80:	8b 45 08             	mov    eax,DWORD PTR [ebp+0x8]
  103b83:	0f b6 50 06          	movzx  edx,BYTE PTR [eax+0x6]
  103b87:	83 e2 7f             	and    edx,0x7f
  103b8a:	88 50 06             	mov    BYTE PTR [eax+0x6],dl
  103b8d:	8b 45 f0             	mov    eax,DWORD PTR [ebp-0x10]
  103b90:	c1 e8 18             	shr    eax,0x18
  103b93:	89 c2                	mov    edx,eax
  103b95:	8b 45 08             	mov    eax,DWORD PTR [ebp+0x8]
  103b98:	88 50 07             	mov    BYTE PTR [eax+0x7],dl
  103b9b:	c7 45 e8 c0 e9 13 00 	mov    DWORD PTR [ebp-0x18],0x13e9c0
  103ba2:	c7 45 f4 00 00 00 00 	mov    DWORD PTR [ebp-0xc],0x0
  103ba9:	eb 0f                	jmp    103bba <install_tss+0x162>
  103bab:	8b 55 e8             	mov    edx,DWORD PTR [ebp-0x18]
  103bae:	8b 45 f4             	mov    eax,DWORD PTR [ebp-0xc]
  103bb1:	01 d0                	add    eax,edx
  103bb3:	c6 00 00             	mov    BYTE PTR [eax],0x0
  103bb6:	83 45 f4 01          	add    DWORD PTR [ebp-0xc],0x1
  103bba:	83 7d f4 67          	cmp    DWORD PTR [ebp-0xc],0x67
  103bbe:	76 eb                	jbe    103bab <install_tss+0x153>
  103bc0:	c7 05 c8 e9 13 00 10 	mov    DWORD PTR ds:0x13e9c8,0x10
  103bc7:	00 00 00 
  103bca:	c7 05 c4 e9 13 00 dc 	mov    DWORD PTR ds:0x13e9c4,0xa0000fdc
  103bd1:	0f 00 a0 
  103bd4:	c7 45 f4 00 00 00 a0 	mov    DWORD PTR [ebp-0xc],0xa0000000
  103bdb:	eb 23                	jmp    103c00 <install_tss+0x1a8>
  103bdd:	8b 45 f4             	mov    eax,DWORD PTR [ebp-0xc]
  103be0:	c1 e8 0c             	shr    eax,0xc
  103be3:	89 c2                	mov    edx,eax
  103be5:	a1 a0 f8 17 00       	mov    eax,ds:0x17f8a0
  103bea:	83 ec 04             	sub    esp,0x4
  103bed:	6a 01                	push   0x1
  103bef:	52                   	push   edx
  103bf0:	50                   	push   eax
  103bf1:	e8 59 f8 ff ff       	call   10344f <nonid_page>
  103bf6:	83 c4 10             	add    esp,0x10
  103bf9:	81 45 f4 00 10 00 00 	add    DWORD PTR [ebp-0xc],0x1000
  103c00:	81 7d f4 ff 0f 00 a0 	cmp    DWORD PTR [ebp-0xc],0xa0000fff
  103c07:	76 d4                	jbe    103bdd <install_tss+0x185>
  103c09:	8b 5d fc             	mov    ebx,DWORD PTR [ebp-0x4]
  103c0c:	c9                   	leave  
  103c0d:	c3                   	ret    

00103c0e <set_kernel_stack>:
  103c0e:	55                   	push   ebp
  103c0f:	89 e5                	mov    ebp,esp
  103c11:	8b 45 08             	mov    eax,DWORD PTR [ebp+0x8]
  103c14:	a3 c4 e9 13 00       	mov    ds:0x13e9c4,eax
  103c19:	5d                   	pop    ebp
  103c1a:	c3                   	ret    
  103c1b:	66 90                	xchg   ax,ax
  103c1d:	66 90                	xchg   ax,ax
  103c1f:	90                   	nop

00103c20 <tss_flush>:
  103c20:	66 b8 3b 00          	mov    ax,0x3b
  103c24:	0f 00 d8             	ltr    ax
  103c27:	c3                   	ret    

00103c28 <call_usermode>:
  103c28:	55                   	push   ebp
  103c29:	89 e5                	mov    ebp,esp
  103c2b:	53                   	push   ebx
  103c2c:	8b 45 08             	mov    eax,DWORD PTR [ebp+0x8]
  103c2f:	89 e3                	mov    ebx,esp
  103c31:	8b 60 3c             	mov    esp,DWORD PTR [eax+0x3c]
  103c34:	ff 70 38             	push   DWORD PTR [eax+0x38]
  103c37:	6a 2b                	push   0x2b
  103c39:	ff 70 30             	push   DWORD PTR [eax+0x30]
  103c3c:	ff 70 08             	push   DWORD PTR [eax+0x8]
  103c3f:	ff 70 0c             	push   DWORD PTR [eax+0xc]
  103c42:	ff 70 10             	push   DWORD PTR [eax+0x10]
  103c45:	ff 70 18             	push   DWORD PTR [eax+0x18]
  103c48:	ff 70 1c             	push   DWORD PTR [eax+0x1c]
  103c4b:	ff 70 20             	push   DWORD PTR [eax+0x20]
  103c4e:	ff 70 24             	push   DWORD PTR [eax+0x24]
  103c51:	66 ff 30             	push   WORD PTR [eax]
  103c54:	66 ff 70 02          	push   WORD PTR [eax+0x2]
  103c58:	66 ff 70 04          	push   WORD PTR [eax+0x4]
  103c5c:	66 ff 70 06          	push   WORD PTR [eax+0x6]
  103c60:	ff 75 10             	push   DWORD PTR [ebp+0x10]
  103c63:	ff 75 0c             	push   DWORD PTR [ebp+0xc]
  103c66:	68 77 3c 10 00       	push   0x103c77
  103c6b:	55                   	push   ebp
  103c6c:	83 c4 04             	add    esp,0x4
  103c6f:	89 60 3c             	mov    DWORD PTR [eax+0x3c],esp
  103c72:	89 dc                	mov    esp,ebx
  103c74:	5b                   	pop    ebx
  103c75:	5d                   	pop    ebp
  103c76:	c3                   	ret    

00103c77 <ucall_end>:
  103c77:	83 c4 08             	add    esp,0x8
  103c7a:	66 58                	pop    ax
  103c7c:	8e d8                	mov    ds,eax
  103c7e:	66 58                	pop    ax
  103c80:	8e c0                	mov    es,eax
  103c82:	66 58                	pop    ax
  103c84:	8e e0                	mov    fs,eax
  103c86:	66 58                	pop    ax
  103c88:	8e e8                	mov    gs,eax
  103c8a:	58                   	pop    eax
  103c8b:	59                   	pop    ecx
  103c8c:	5a                   	pop    edx
  103c8d:	5b                   	pop    ebx
  103c8e:	5d                   	pop    ebp
  103c8f:	5e                   	pop    esi
  103c90:	5f                   	pop    edi
  103c91:	cf                   	iret   

00103c92 <ring3_main>:
  103c92:	55                   	push   ebp
  103c93:	89 e5                	mov    ebp,esp
  103c95:	53                   	push   ebx
  103c96:	83 ec 10             	sub    esp,0x10
  103c99:	c7 45 f8 99 99 10 00 	mov    DWORD PTR [ebp-0x8],0x109999
  103ca0:	b8 00 00 00 00       	mov    eax,0x0
  103ca5:	8b 5d f8             	mov    ebx,DWORD PTR [ebp-0x8]
  103ca8:	cd 81                	int    0x81
  103caa:	eb fe                	jmp    103caa <ring3_main+0x18>

00103cac <usys_exit>:
  103cac:	55                   	push   ebp
  103cad:	89 e5                	mov    ebp,esp
  103caf:	83 ec 08             	sub    esp,0x8
  103cb2:	83 ec 0c             	sub    esp,0xc
  103cb5:	ff 75 08             	push   DWORD PTR [ebp+0x8]
  103cb8:	e8 6c 13 00 00       	call   105029 <proc_exit>
  103cbd:	83 c4 10             	add    esp,0x10
  103cc0:	c9                   	leave  
  103cc1:	c3                   	ret    

00103cc2 <usys_fork>:
  103cc2:	55                   	push   ebp
  103cc3:	89 e5                	mov    ebp,esp
  103cc5:	83 ec 08             	sub    esp,0x8
  103cc8:	83 ec 0c             	sub    esp,0xc
  103ccb:	ff 75 08             	push   DWORD PTR [ebp+0x8]
  103cce:	e8 ba 0c 00 00       	call   10498d <fork>
  103cd3:	83 c4 10             	add    esp,0x10
  103cd6:	0f b7 d0             	movzx  edx,ax
  103cd9:	8b 45 08             	mov    eax,DWORD PTR [ebp+0x8]
  103cdc:	89 50 24             	mov    DWORD PTR [eax+0x24],edx
  103cdf:	a1 80 ed 17 00       	mov    eax,ds:0x17ed80
  103ce4:	89 c2                	mov    edx,eax
  103ce6:	8b 45 08             	mov    eax,DWORD PTR [ebp+0x8]
  103ce9:	8b 40 24             	mov    eax,DWORD PTR [eax+0x24]
  103cec:	39 c2                	cmp    edx,eax
  103cee:	74 0e                	je     103cfe <usys_fork+0x3c>
  103cf0:	83 ec 0c             	sub    esp,0xc
  103cf3:	ff 75 08             	push   DWORD PTR [ebp+0x8]
  103cf6:	e8 fc 0f 00 00       	call   104cf7 <switch_ctx>
  103cfb:	83 c4 10             	add    esp,0x10
  103cfe:	c9                   	leave  
  103cff:	c3                   	ret    

00103d00 <usys_read>:
  103d00:	55                   	push   ebp
  103d01:	89 e5                	mov    ebp,esp
  103d03:	83 ec 08             	sub    esp,0x8
  103d06:	8b 45 08             	mov    eax,DWORD PTR [ebp+0x8]
  103d09:	8b 40 1c             	mov    eax,DWORD PTR [eax+0x1c]
  103d0c:	89 c1                	mov    ecx,eax
  103d0e:	8b 45 08             	mov    eax,DWORD PTR [ebp+0x8]
  103d11:	8b 40 20             	mov    eax,DWORD PTR [eax+0x20]
  103d14:	89 c2                	mov    edx,eax
  103d16:	8b 45 08             	mov    eax,DWORD PTR [ebp+0x8]
  103d19:	8b 40 18             	mov    eax,DWORD PTR [eax+0x18]
  103d1c:	83 ec 04             	sub    esp,0x4
  103d1f:	51                   	push   ecx
  103d20:	52                   	push   edx
  103d21:	50                   	push   eax
  103d22:	e8 c6 2c 00 00       	call   1069ed <fs_read>
  103d27:	83 c4 10             	add    esp,0x10
  103d2a:	89 c2                	mov    edx,eax
  103d2c:	8b 45 08             	mov    eax,DWORD PTR [ebp+0x8]
  103d2f:	89 50 24             	mov    DWORD PTR [eax+0x24],edx
  103d32:	c9                   	leave  
  103d33:	c3                   	ret    

00103d34 <usys_write>:
  103d34:	55                   	push   ebp
  103d35:	89 e5                	mov    ebp,esp
  103d37:	83 ec 08             	sub    esp,0x8
  103d3a:	83 ec 08             	sub    esp,0x8
  103d3d:	6a 02                	push   0x2
  103d3f:	6a 05                	push   0x5
  103d41:	e8 fd 2a 00 00       	call   106843 <_log>
  103d46:	83 c4 10             	add    esp,0x10
  103d49:	85 c0                	test   eax,eax
  103d4b:	74 24                	je     103d71 <usys_write+0x3d>
  103d4d:	8b 45 08             	mov    eax,DWORD PTR [ebp+0x8]
  103d50:	8b 50 1c             	mov    edx,DWORD PTR [eax+0x1c]
  103d53:	8b 45 08             	mov    eax,DWORD PTR [ebp+0x8]
  103d56:	8b 40 20             	mov    eax,DWORD PTR [eax+0x20]
  103d59:	89 c1                	mov    ecx,eax
  103d5b:	8b 45 08             	mov    eax,DWORD PTR [ebp+0x8]
  103d5e:	8b 40 18             	mov    eax,DWORD PTR [eax+0x18]
  103d61:	52                   	push   edx
  103d62:	51                   	push   ecx
  103d63:	50                   	push   eax
  103d64:	68 a0 99 10 00       	push   0x1099a0
  103d69:	e8 68 d8 ff ff       	call   1015d6 <printf>
  103d6e:	83 c4 10             	add    esp,0x10
  103d71:	8b 45 08             	mov    eax,DWORD PTR [ebp+0x8]
  103d74:	8b 40 1c             	mov    eax,DWORD PTR [eax+0x1c]
  103d77:	89 c1                	mov    ecx,eax
  103d79:	8b 45 08             	mov    eax,DWORD PTR [ebp+0x8]
  103d7c:	8b 40 20             	mov    eax,DWORD PTR [eax+0x20]
  103d7f:	89 c2                	mov    edx,eax
  103d81:	8b 45 08             	mov    eax,DWORD PTR [ebp+0x8]
  103d84:	8b 40 18             	mov    eax,DWORD PTR [eax+0x18]
  103d87:	83 ec 04             	sub    esp,0x4
  103d8a:	51                   	push   ecx
  103d8b:	52                   	push   edx
  103d8c:	50                   	push   eax
  103d8d:	e8 1e 2c 00 00       	call   1069b0 <fs_write>
  103d92:	83 c4 10             	add    esp,0x10
  103d95:	89 c2                	mov    edx,eax
  103d97:	8b 45 08             	mov    eax,DWORD PTR [ebp+0x8]
  103d9a:	89 50 24             	mov    DWORD PTR [eax+0x24],edx
  103d9d:	c9                   	leave  
  103d9e:	c3                   	ret    

00103d9f <usys_open>:
  103d9f:	55                   	push   ebp
  103da0:	89 e5                	mov    ebp,esp
  103da2:	83 ec 08             	sub    esp,0x8
  103da5:	8b 45 08             	mov    eax,DWORD PTR [ebp+0x8]
  103da8:	8b 40 20             	mov    eax,DWORD PTR [eax+0x20]
  103dab:	89 c2                	mov    edx,eax
  103dad:	8b 45 08             	mov    eax,DWORD PTR [ebp+0x8]
  103db0:	8b 40 18             	mov    eax,DWORD PTR [eax+0x18]
  103db3:	83 ec 08             	sub    esp,0x8
  103db6:	52                   	push   edx
  103db7:	50                   	push   eax
  103db8:	e8 5f 2b 00 00       	call   10691c <fs_open>
  103dbd:	83 c4 10             	add    esp,0x10
  103dc0:	89 c2                	mov    edx,eax
  103dc2:	8b 45 08             	mov    eax,DWORD PTR [ebp+0x8]
  103dc5:	89 50 24             	mov    DWORD PTR [eax+0x24],edx
  103dc8:	c9                   	leave  
  103dc9:	c3                   	ret    

00103dca <usys_close>:
  103dca:	55                   	push   ebp
  103dcb:	89 e5                	mov    ebp,esp
  103dcd:	83 ec 08             	sub    esp,0x8
  103dd0:	8b 45 08             	mov    eax,DWORD PTR [ebp+0x8]
  103dd3:	8b 40 18             	mov    eax,DWORD PTR [eax+0x18]
  103dd6:	83 ec 0c             	sub    esp,0xc
  103dd9:	50                   	push   eax
  103dda:	e8 9a 2b 00 00       	call   106979 <fs_close>
  103ddf:	83 c4 10             	add    esp,0x10
  103de2:	89 c2                	mov    edx,eax
  103de4:	8b 45 08             	mov    eax,DWORD PTR [ebp+0x8]
  103de7:	89 50 24             	mov    DWORD PTR [eax+0x24],edx
  103dea:	c9                   	leave  
  103deb:	c3                   	ret    

00103dec <usys_waitpid>:
  103dec:	55                   	push   ebp
  103ded:	89 e5                	mov    ebp,esp
  103def:	83 ec 08             	sub    esp,0x8
  103df2:	8b 45 08             	mov    eax,DWORD PTR [ebp+0x8]
  103df5:	8b 40 18             	mov    eax,DWORD PTR [eax+0x18]
  103df8:	3d ff ff 00 00       	cmp    eax,0xffff
  103dfd:	75 38                	jne    103e37 <usys_waitpid+0x4b>
  103dff:	a1 80 ed 17 00       	mov    eax,ds:0x17ed80
  103e04:	8b 04 85 80 ed 13 00 	mov    eax,DWORD PTR [eax*4+0x13ed80]
  103e0b:	0f b6 50 10          	movzx  edx,BYTE PTR [eax+0x10]
  103e0f:	83 ca 02             	or     edx,0x2
  103e12:	88 50 10             	mov    BYTE PTR [eax+0x10],dl
  103e15:	a1 80 ed 17 00       	mov    eax,ds:0x17ed80
  103e1a:	8b 04 85 80 ed 13 00 	mov    eax,DWORD PTR [eax*4+0x13ed80]
  103e21:	66 c7 40 16 00 00    	mov    WORD PTR [eax+0x16],0x0
  103e27:	83 ec 0c             	sub    esp,0xc
  103e2a:	ff 75 08             	push   DWORD PTR [ebp+0x8]
  103e2d:	e8 c5 0e 00 00       	call   104cf7 <switch_ctx>
  103e32:	83 c4 10             	add    esp,0x10
  103e35:	eb 2a                	jmp    103e61 <usys_waitpid+0x75>
  103e37:	83 ec 08             	sub    esp,0x8
  103e3a:	6a 01                	push   0x1
  103e3c:	6a 05                	push   0x5
  103e3e:	e8 00 2a 00 00       	call   106843 <_log>
  103e43:	83 c4 10             	add    esp,0x10
  103e46:	85 c0                	test   eax,eax
  103e48:	74 17                	je     103e61 <usys_waitpid+0x75>
  103e4a:	8b 45 08             	mov    eax,DWORD PTR [ebp+0x8]
  103e4d:	8b 40 18             	mov    eax,DWORD PTR [eax+0x18]
  103e50:	83 ec 08             	sub    esp,0x8
  103e53:	50                   	push   eax
  103e54:	68 b8 99 10 00       	push   0x1099b8
  103e59:	e8 78 d7 ff ff       	call   1015d6 <printf>
  103e5e:	83 c4 10             	add    esp,0x10
  103e61:	c9                   	leave  
  103e62:	c3                   	ret    

00103e63 <usys_execve>:
  103e63:	55                   	push   ebp
  103e64:	89 e5                	mov    ebp,esp
  103e66:	53                   	push   ebx
  103e67:	81 ec f4 00 00 00    	sub    esp,0xf4
  103e6d:	83 ec 0c             	sub    esp,0xc
  103e70:	68 ea 00 00 00       	push   0xea
  103e75:	e8 ff e7 ff ff       	call   102679 <malloc>
  103e7a:	83 c4 10             	add    esp,0x10
  103e7d:	89 45 ec             	mov    DWORD PTR [ebp-0x14],eax
  103e80:	83 ec 0c             	sub    esp,0xc
  103e83:	ff 75 ec             	push   DWORD PTR [ebp-0x14]
  103e86:	e8 be 15 00 00       	call   105449 <read_superblock>
  103e8b:	83 c4 10             	add    esp,0x10
  103e8e:	8b 45 08             	mov    eax,DWORD PTR [ebp+0x8]
  103e91:	8b 40 18             	mov    eax,DWORD PTR [eax+0x18]
  103e94:	83 ec 08             	sub    esp,0x8
  103e97:	50                   	push   eax
  103e98:	ff 75 ec             	push   DWORD PTR [ebp-0x14]
  103e9b:	e8 ad 20 00 00       	call   105f4d <get_path_inode>
  103ea0:	83 c4 10             	add    esp,0x10
  103ea3:	89 45 e8             	mov    DWORD PTR [ebp-0x18],eax
  103ea6:	83 7d e8 00          	cmp    DWORD PTR [ebp-0x18],0x0
  103eaa:	79 40                	jns    103eec <usys_execve+0x89>
  103eac:	8b 45 08             	mov    eax,DWORD PTR [ebp+0x8]
  103eaf:	c7 40 24 00 00 00 00 	mov    DWORD PTR [eax+0x24],0x0
  103eb6:	83 ec 08             	sub    esp,0x8
  103eb9:	6a 01                	push   0x1
  103ebb:	6a 05                	push   0x5
  103ebd:	e8 81 29 00 00       	call   106843 <_log>
  103ec2:	83 c4 10             	add    esp,0x10
  103ec5:	85 c0                	test   eax,eax
  103ec7:	0f 84 31 02 00 00    	je     1040fe <usys_execve+0x29b>
  103ecd:	8b 45 08             	mov    eax,DWORD PTR [ebp+0x8]
  103ed0:	8b 40 18             	mov    eax,DWORD PTR [eax+0x18]
  103ed3:	83 ec 04             	sub    esp,0x4
  103ed6:	ff 75 e8             	push   DWORD PTR [ebp-0x18]
  103ed9:	50                   	push   eax
  103eda:	68 e8 99 10 00       	push   0x1099e8
  103edf:	e8 f2 d6 ff ff       	call   1015d6 <printf>
  103ee4:	83 c4 10             	add    esp,0x10
  103ee7:	e9 12 02 00 00       	jmp    1040fe <usys_execve+0x29b>
  103eec:	83 ec 04             	sub    esp,0x4
  103eef:	ff 75 e8             	push   DWORD PTR [ebp-0x18]
  103ef2:	8d 85 60 ff ff ff    	lea    eax,[ebp-0xa0]
  103ef8:	50                   	push   eax
  103ef9:	ff 75 ec             	push   DWORD PTR [ebp-0x14]
  103efc:	e8 16 16 00 00       	call   105517 <read_inode>
  103f01:	83 c4 10             	add    esp,0x10
  103f04:	8b 85 7c ff ff ff    	mov    eax,DWORD PTR [ebp-0x84]
  103f0a:	c1 e0 09             	shl    eax,0x9
  103f0d:	83 ec 0c             	sub    esp,0xc
  103f10:	50                   	push   eax
  103f11:	e8 63 e7 ff ff       	call   102679 <malloc>
  103f16:	83 c4 10             	add    esp,0x10
  103f19:	89 45 e4             	mov    DWORD PTR [ebp-0x1c],eax
  103f1c:	c7 45 f4 00 00 00 00 	mov    DWORD PTR [ebp-0xc],0x0
  103f23:	eb 29                	jmp    103f4e <usys_execve+0xeb>
  103f25:	8b 55 e4             	mov    edx,DWORD PTR [ebp-0x1c]
  103f28:	8b 45 f4             	mov    eax,DWORD PTR [ebp-0xc]
  103f2b:	01 d0                	add    eax,edx
  103f2d:	8b 55 f4             	mov    edx,DWORD PTR [ebp-0xc]
  103f30:	c1 ea 0a             	shr    edx,0xa
  103f33:	83 ec 04             	sub    esp,0x4
  103f36:	50                   	push   eax
  103f37:	52                   	push   edx
  103f38:	8d 85 60 ff ff ff    	lea    eax,[ebp-0xa0]
  103f3e:	50                   	push   eax
  103f3f:	e8 d7 16 00 00       	call   10561b <get_block>
  103f44:	83 c4 10             	add    esp,0x10
  103f47:	81 45 f4 00 04 00 00 	add    DWORD PTR [ebp-0xc],0x400
  103f4e:	8b 85 64 ff ff ff    	mov    eax,DWORD PTR [ebp-0x9c]
  103f54:	3b 45 f4             	cmp    eax,DWORD PTR [ebp-0xc]
  103f57:	77 cc                	ja     103f25 <usys_execve+0xc2>
  103f59:	83 ec 04             	sub    esp,0x4
  103f5c:	6a 34                	push   0x34
  103f5e:	ff 75 e4             	push   DWORD PTR [ebp-0x1c]
  103f61:	8d 85 2c ff ff ff    	lea    eax,[ebp-0xd4]
  103f67:	50                   	push   eax
  103f68:	e8 11 14 00 00       	call   10537e <memcpy>
  103f6d:	83 c4 10             	add    esp,0x10
  103f70:	c7 45 f4 00 00 00 00 	mov    DWORD PTR [ebp-0xc],0x0
  103f77:	e9 ad 00 00 00       	jmp    104029 <usys_execve+0x1c6>
  103f7c:	0f b7 85 56 ff ff ff 	movzx  eax,WORD PTR [ebp-0xaa]
  103f83:	0f b7 c0             	movzx  eax,ax
  103f86:	8b 8d 48 ff ff ff    	mov    ecx,DWORD PTR [ebp-0xb8]
  103f8c:	0f b7 95 56 ff ff ff 	movzx  edx,WORD PTR [ebp-0xaa]
  103f93:	0f b7 d2             	movzx  edx,dx
  103f96:	0f af 55 f4          	imul   edx,DWORD PTR [ebp-0xc]
  103f9a:	01 d1                	add    ecx,edx
  103f9c:	8b 55 e4             	mov    edx,DWORD PTR [ebp-0x1c]
  103f9f:	01 ca                	add    edx,ecx
  103fa1:	83 ec 04             	sub    esp,0x4
  103fa4:	50                   	push   eax
  103fa5:	52                   	push   edx
  103fa6:	8d 85 0c ff ff ff    	lea    eax,[ebp-0xf4]
  103fac:	50                   	push   eax
  103fad:	e8 cc 13 00 00       	call   10537e <memcpy>
  103fb2:	83 c4 10             	add    esp,0x10
  103fb5:	c7 45 f0 00 00 00 00 	mov    DWORD PTR [ebp-0x10],0x0
  103fbc:	eb 37                	jmp    103ff5 <usys_execve+0x192>
  103fbe:	8b 95 14 ff ff ff    	mov    edx,DWORD PTR [ebp-0xec]
  103fc4:	8b 45 f0             	mov    eax,DWORD PTR [ebp-0x10]
  103fc7:	01 d0                	add    eax,edx
  103fc9:	c1 e8 0c             	shr    eax,0xc
  103fcc:	89 c3                	mov    ebx,eax
  103fce:	a1 80 ed 17 00       	mov    eax,ds:0x17ed80
  103fd3:	83 ec 0c             	sub    esp,0xc
  103fd6:	50                   	push   eax
  103fd7:	e8 a0 09 00 00       	call   10497c <get_process_pt>
  103fdc:	83 c4 10             	add    esp,0x10
  103fdf:	83 ec 04             	sub    esp,0x4
  103fe2:	6a 01                	push   0x1
  103fe4:	53                   	push   ebx
  103fe5:	50                   	push   eax
  103fe6:	e8 64 f4 ff ff       	call   10344f <nonid_page>
  103feb:	83 c4 10             	add    esp,0x10
  103fee:	81 45 f0 00 10 00 00 	add    DWORD PTR [ebp-0x10],0x1000
  103ff5:	8b 85 20 ff ff ff    	mov    eax,DWORD PTR [ebp-0xe0]
  103ffb:	3b 45 f0             	cmp    eax,DWORD PTR [ebp-0x10]
  103ffe:	77 be                	ja     103fbe <usys_execve+0x15b>
  104000:	8b 85 1c ff ff ff    	mov    eax,DWORD PTR [ebp-0xe4]
  104006:	8b 8d 10 ff ff ff    	mov    ecx,DWORD PTR [ebp-0xf0]
  10400c:	8b 55 e4             	mov    edx,DWORD PTR [ebp-0x1c]
  10400f:	01 ca                	add    edx,ecx
  104011:	8b 8d 14 ff ff ff    	mov    ecx,DWORD PTR [ebp-0xec]
  104017:	83 ec 04             	sub    esp,0x4
  10401a:	50                   	push   eax
  10401b:	52                   	push   edx
  10401c:	51                   	push   ecx
  10401d:	e8 5c 13 00 00       	call   10537e <memcpy>
  104022:	83 c4 10             	add    esp,0x10
  104025:	83 45 f4 01          	add    DWORD PTR [ebp-0xc],0x1
  104029:	0f b7 85 58 ff ff ff 	movzx  eax,WORD PTR [ebp-0xa8]
  104030:	0f b7 c0             	movzx  eax,ax
  104033:	3b 45 f4             	cmp    eax,DWORD PTR [ebp-0xc]
  104036:	0f 87 40 ff ff ff    	ja     103f7c <usys_execve+0x119>
  10403c:	8b 95 44 ff ff ff    	mov    edx,DWORD PTR [ebp-0xbc]
  104042:	8b 45 08             	mov    eax,DWORD PTR [ebp+0x8]
  104045:	89 50 30             	mov    DWORD PTR [eax+0x30],edx
  104048:	83 ec 0c             	sub    esp,0xc
  10404b:	ff 75 e4             	push   DWORD PTR [ebp-0x1c]
  10404e:	e8 c1 eb ff ff       	call   102c14 <free>
  104053:	83 c4 10             	add    esp,0x10
  104056:	8b 45 08             	mov    eax,DWORD PTR [ebp+0x8]
  104059:	8b 40 20             	mov    eax,DWORD PTR [eax+0x20]
  10405c:	89 45 e0             	mov    DWORD PTR [ebp-0x20],eax
  10405f:	8b 45 08             	mov    eax,DWORD PTR [ebp+0x8]
  104062:	c7 40 24 00 00 00 00 	mov    DWORD PTR [eax+0x24],0x0
  104069:	eb 0f                	jmp    10407a <usys_execve+0x217>
  10406b:	8b 45 08             	mov    eax,DWORD PTR [ebp+0x8]
  10406e:	8b 40 24             	mov    eax,DWORD PTR [eax+0x24]
  104071:	8d 50 01             	lea    edx,[eax+0x1]
  104074:	8b 45 08             	mov    eax,DWORD PTR [ebp+0x8]
  104077:	89 50 24             	mov    DWORD PTR [eax+0x24],edx
  10407a:	8b 45 08             	mov    eax,DWORD PTR [ebp+0x8]
  10407d:	8b 40 24             	mov    eax,DWORD PTR [eax+0x24]
  104080:	8d 14 85 00 00 00 00 	lea    edx,[eax*4+0x0]
  104087:	8b 45 e0             	mov    eax,DWORD PTR [ebp-0x20]
  10408a:	01 d0                	add    eax,edx
  10408c:	8b 00                	mov    eax,DWORD PTR [eax]
  10408e:	85 c0                	test   eax,eax
  104090:	75 d9                	jne    10406b <usys_execve+0x208>
  104092:	8b 45 08             	mov    eax,DWORD PTR [ebp+0x8]
  104095:	8b 50 1c             	mov    edx,DWORD PTR [eax+0x1c]
  104098:	8b 45 08             	mov    eax,DWORD PTR [ebp+0x8]
  10409b:	89 50 0c             	mov    DWORD PTR [eax+0xc],edx
  10409e:	8b 45 08             	mov    eax,DWORD PTR [ebp+0x8]
  1040a1:	8b 50 20             	mov    edx,DWORD PTR [eax+0x20]
  1040a4:	8b 45 08             	mov    eax,DWORD PTR [ebp+0x8]
  1040a7:	89 50 18             	mov    DWORD PTR [eax+0x18],edx
  1040aa:	83 ec 08             	sub    esp,0x8
  1040ad:	6a 02                	push   0x2
  1040af:	6a 05                	push   0x5
  1040b1:	e8 8d 27 00 00       	call   106843 <_log>
  1040b6:	83 c4 10             	add    esp,0x10
  1040b9:	85 c0                	test   eax,eax
  1040bb:	74 1e                	je     1040db <usys_execve+0x278>
  1040bd:	8b 45 08             	mov    eax,DWORD PTR [ebp+0x8]
  1040c0:	8b 50 18             	mov    edx,DWORD PTR [eax+0x18]
  1040c3:	8b 45 08             	mov    eax,DWORD PTR [ebp+0x8]
  1040c6:	8b 40 24             	mov    eax,DWORD PTR [eax+0x24]
  1040c9:	83 ec 04             	sub    esp,0x4
  1040cc:	52                   	push   edx
  1040cd:	50                   	push   eax
  1040ce:	68 13 9a 10 00       	push   0x109a13
  1040d3:	e8 fe d4 ff ff       	call   1015d6 <printf>
  1040d8:	83 c4 10             	add    esp,0x10
  1040db:	83 ec 08             	sub    esp,0x8
  1040de:	6a 02                	push   0x2
  1040e0:	6a 05                	push   0x5
  1040e2:	e8 5c 27 00 00       	call   106843 <_log>
  1040e7:	83 c4 10             	add    esp,0x10
  1040ea:	85 c0                	test   eax,eax
  1040ec:	74 10                	je     1040fe <usys_execve+0x29b>
  1040ee:	83 ec 0c             	sub    esp,0xc
  1040f1:	68 2e 9a 10 00       	push   0x109a2e
  1040f6:	e8 db d4 ff ff       	call   1015d6 <printf>
  1040fb:	83 c4 10             	add    esp,0x10
  1040fe:	8b 5d fc             	mov    ebx,DWORD PTR [ebp-0x4]
  104101:	c9                   	leave  
  104102:	c3                   	ret    

00104103 <usys_brk>:
  104103:	55                   	push   ebp
  104104:	89 e5                	mov    ebp,esp
  104106:	83 ec 18             	sub    esp,0x18
  104109:	8b 45 08             	mov    eax,DWORD PTR [ebp+0x8]
  10410c:	8b 40 18             	mov    eax,DWORD PTR [eax+0x18]
  10410f:	3d ff 03 01 0c       	cmp    eax,0xc0103ff
  104114:	77 1a                	ja     104130 <usys_brk+0x2d>
  104116:	a1 80 ed 17 00       	mov    eax,ds:0x17ed80
  10411b:	8b 04 85 80 ed 13 00 	mov    eax,DWORD PTR [eax*4+0x13ed80]
  104122:	8b 50 04             	mov    edx,DWORD PTR [eax+0x4]
  104125:	8b 45 08             	mov    eax,DWORD PTR [ebp+0x8]
  104128:	89 50 24             	mov    DWORD PTR [eax+0x24],edx
  10412b:	e9 8a 01 00 00       	jmp    1042ba <usys_brk+0x1b7>
  104130:	8b 45 08             	mov    eax,DWORD PTR [ebp+0x8]
  104133:	8b 50 18             	mov    edx,DWORD PTR [eax+0x18]
  104136:	a1 80 ed 17 00       	mov    eax,ds:0x17ed80
  10413b:	8b 04 85 80 ed 13 00 	mov    eax,DWORD PTR [eax*4+0x13ed80]
  104142:	8b 40 04             	mov    eax,DWORD PTR [eax+0x4]
  104145:	29 c2                	sub    edx,eax
  104147:	89 d0                	mov    eax,edx
  104149:	89 45 f0             	mov    DWORD PTR [ebp-0x10],eax
  10414c:	83 7d f0 00          	cmp    DWORD PTR [ebp-0x10],0x0
  104150:	79 56                	jns    1041a8 <usys_brk+0xa5>
  104152:	f7 5d f0             	neg    DWORD PTR [ebp-0x10]
  104155:	c7 45 f4 00 00 00 00 	mov    DWORD PTR [ebp-0xc],0x0
  10415c:	eb 3d                	jmp    10419b <usys_brk+0x98>
  10415e:	a1 80 ed 17 00       	mov    eax,ds:0x17ed80
  104163:	8b 04 85 80 ed 13 00 	mov    eax,DWORD PTR [eax*4+0x13ed80]
  10416a:	8b 50 04             	mov    edx,DWORD PTR [eax+0x4]
  10416d:	8b 45 f4             	mov    eax,DWORD PTR [ebp-0xc]
  104170:	29 c2                	sub    edx,eax
  104172:	89 d0                	mov    eax,edx
  104174:	c1 e8 0c             	shr    eax,0xc
  104177:	89 c2                	mov    edx,eax
  104179:	a1 80 ed 17 00       	mov    eax,ds:0x17ed80
  10417e:	8b 04 85 80 ed 13 00 	mov    eax,DWORD PTR [eax*4+0x13ed80]
  104185:	8b 00                	mov    eax,DWORD PTR [eax]
  104187:	83 ec 08             	sub    esp,0x8
  10418a:	52                   	push   edx
  10418b:	50                   	push   eax
  10418c:	e8 13 f8 ff ff       	call   1039a4 <unmap_page>
  104191:	83 c4 10             	add    esp,0x10
  104194:	81 45 f4 00 10 00 00 	add    DWORD PTR [ebp-0xc],0x1000
  10419b:	8b 45 f4             	mov    eax,DWORD PTR [ebp-0xc]
  10419e:	3b 45 f0             	cmp    eax,DWORD PTR [ebp-0x10]
  1041a1:	7c bb                	jl     10415e <usys_brk+0x5b>
  1041a3:	e9 f4 00 00 00       	jmp    10429c <usys_brk+0x199>
  1041a8:	c7 45 f4 00 00 00 00 	mov    DWORD PTR [ebp-0xc],0x0
  1041af:	eb 75                	jmp    104226 <usys_brk+0x123>
  1041b1:	a1 80 ed 17 00       	mov    eax,ds:0x17ed80
  1041b6:	8b 04 85 80 ed 13 00 	mov    eax,DWORD PTR [eax*4+0x13ed80]
  1041bd:	8b 50 04             	mov    edx,DWORD PTR [eax+0x4]
  1041c0:	8b 45 f4             	mov    eax,DWORD PTR [ebp-0xc]
  1041c3:	01 d0                	add    eax,edx
  1041c5:	c1 e8 0c             	shr    eax,0xc
  1041c8:	89 c2                	mov    edx,eax
  1041ca:	a1 80 ed 17 00       	mov    eax,ds:0x17ed80
  1041cf:	8b 04 85 80 ed 13 00 	mov    eax,DWORD PTR [eax*4+0x13ed80]
  1041d6:	8b 00                	mov    eax,DWORD PTR [eax]
  1041d8:	83 ec 08             	sub    esp,0x8
  1041db:	52                   	push   edx
  1041dc:	50                   	push   eax
  1041dd:	e8 0c f4 ff ff       	call   1035ee <get_mapping>
  1041e2:	83 c4 10             	add    esp,0x10
  1041e5:	85 c0                	test   eax,eax
  1041e7:	75 36                	jne    10421f <usys_brk+0x11c>
  1041e9:	a1 80 ed 17 00       	mov    eax,ds:0x17ed80
  1041ee:	8b 04 85 80 ed 13 00 	mov    eax,DWORD PTR [eax*4+0x13ed80]
  1041f5:	8b 50 04             	mov    edx,DWORD PTR [eax+0x4]
  1041f8:	8b 45 f4             	mov    eax,DWORD PTR [ebp-0xc]
  1041fb:	01 d0                	add    eax,edx
  1041fd:	c1 e8 0c             	shr    eax,0xc
  104200:	89 c2                	mov    edx,eax
  104202:	a1 80 ed 17 00       	mov    eax,ds:0x17ed80
  104207:	8b 04 85 80 ed 13 00 	mov    eax,DWORD PTR [eax*4+0x13ed80]
  10420e:	8b 00                	mov    eax,DWORD PTR [eax]
  104210:	83 ec 04             	sub    esp,0x4
  104213:	6a 01                	push   0x1
  104215:	52                   	push   edx
  104216:	50                   	push   eax
  104217:	e8 33 f2 ff ff       	call   10344f <nonid_page>
  10421c:	83 c4 10             	add    esp,0x10
  10421f:	81 45 f4 00 10 00 00 	add    DWORD PTR [ebp-0xc],0x1000
  104226:	8b 45 f4             	mov    eax,DWORD PTR [ebp-0xc]
  104229:	3b 45 f0             	cmp    eax,DWORD PTR [ebp-0x10]
  10422c:	7c 83                	jl     1041b1 <usys_brk+0xae>
  10422e:	a1 80 ed 17 00       	mov    eax,ds:0x17ed80
  104233:	8b 04 85 80 ed 13 00 	mov    eax,DWORD PTR [eax*4+0x13ed80]
  10423a:	8b 50 04             	mov    edx,DWORD PTR [eax+0x4]
  10423d:	8b 45 f4             	mov    eax,DWORD PTR [ebp-0xc]
  104240:	01 d0                	add    eax,edx
  104242:	c1 e8 0c             	shr    eax,0xc
  104245:	89 c2                	mov    edx,eax
  104247:	a1 80 ed 17 00       	mov    eax,ds:0x17ed80
  10424c:	8b 04 85 80 ed 13 00 	mov    eax,DWORD PTR [eax*4+0x13ed80]
  104253:	8b 00                	mov    eax,DWORD PTR [eax]
  104255:	83 ec 08             	sub    esp,0x8
  104258:	52                   	push   edx
  104259:	50                   	push   eax
  10425a:	e8 8f f3 ff ff       	call   1035ee <get_mapping>
  10425f:	83 c4 10             	add    esp,0x10
  104262:	85 c0                	test   eax,eax
  104264:	75 36                	jne    10429c <usys_brk+0x199>
  104266:	a1 80 ed 17 00       	mov    eax,ds:0x17ed80
  10426b:	8b 04 85 80 ed 13 00 	mov    eax,DWORD PTR [eax*4+0x13ed80]
  104272:	8b 50 04             	mov    edx,DWORD PTR [eax+0x4]
  104275:	8b 45 f4             	mov    eax,DWORD PTR [ebp-0xc]
  104278:	01 d0                	add    eax,edx
  10427a:	c1 e8 0c             	shr    eax,0xc
  10427d:	89 c2                	mov    edx,eax
  10427f:	a1 80 ed 17 00       	mov    eax,ds:0x17ed80
  104284:	8b 04 85 80 ed 13 00 	mov    eax,DWORD PTR [eax*4+0x13ed80]
  10428b:	8b 00                	mov    eax,DWORD PTR [eax]
  10428d:	83 ec 04             	sub    esp,0x4
  104290:	6a 01                	push   0x1
  104292:	52                   	push   edx
  104293:	50                   	push   eax
  104294:	e8 b6 f1 ff ff       	call   10344f <nonid_page>
  104299:	83 c4 10             	add    esp,0x10
  10429c:	a1 80 ed 17 00       	mov    eax,ds:0x17ed80
  1042a1:	8b 04 85 80 ed 13 00 	mov    eax,DWORD PTR [eax*4+0x13ed80]
  1042a8:	8b 55 08             	mov    edx,DWORD PTR [ebp+0x8]
  1042ab:	8b 52 18             	mov    edx,DWORD PTR [edx+0x18]
  1042ae:	89 50 04             	mov    DWORD PTR [eax+0x4],edx
  1042b1:	8b 50 04             	mov    edx,DWORD PTR [eax+0x4]
  1042b4:	8b 45 08             	mov    eax,DWORD PTR [ebp+0x8]
  1042b7:	89 50 24             	mov    DWORD PTR [eax+0x24],edx
  1042ba:	c9                   	leave  
  1042bb:	c3                   	ret    

001042bc <usys_setpgid>:
  1042bc:	55                   	push   ebp
  1042bd:	89 e5                	mov    ebp,esp
  1042bf:	8b 45 08             	mov    eax,DWORD PTR [ebp+0x8]
  1042c2:	8b 40 24             	mov    eax,DWORD PTR [eax+0x24]
  1042c5:	85 c0                	test   eax,eax
  1042c7:	75 0d                	jne    1042d6 <usys_setpgid+0x1a>
  1042c9:	a1 80 ed 17 00       	mov    eax,ds:0x17ed80
  1042ce:	89 c2                	mov    edx,eax
  1042d0:	8b 45 08             	mov    eax,DWORD PTR [ebp+0x8]
  1042d3:	89 50 24             	mov    DWORD PTR [eax+0x24],edx
  1042d6:	8b 45 08             	mov    eax,DWORD PTR [ebp+0x8]
  1042d9:	8b 40 18             	mov    eax,DWORD PTR [eax+0x18]
  1042dc:	85 c0                	test   eax,eax
  1042de:	75 0d                	jne    1042ed <usys_setpgid+0x31>
  1042e0:	a1 80 ed 17 00       	mov    eax,ds:0x17ed80
  1042e5:	89 c2                	mov    edx,eax
  1042e7:	8b 45 08             	mov    eax,DWORD PTR [ebp+0x8]
  1042ea:	89 50 18             	mov    DWORD PTR [eax+0x18],edx
  1042ed:	8b 45 08             	mov    eax,DWORD PTR [ebp+0x8]
  1042f0:	8b 40 24             	mov    eax,DWORD PTR [eax+0x24]
  1042f3:	8b 04 85 80 ed 13 00 	mov    eax,DWORD PTR [eax*4+0x13ed80]
  1042fa:	8b 55 08             	mov    edx,DWORD PTR [ebp+0x8]
  1042fd:	8b 52 18             	mov    edx,DWORD PTR [edx+0x18]
  104300:	66 89 50 1a          	mov    WORD PTR [eax+0x1a],dx
  104304:	5d                   	pop    ebp
  104305:	c3                   	ret    

00104306 <usys_setsid>:
  104306:	55                   	push   ebp
  104307:	89 e5                	mov    ebp,esp
  104309:	a1 80 ed 17 00       	mov    eax,ds:0x17ed80
  10430e:	8b 04 85 80 ed 13 00 	mov    eax,DWORD PTR [eax*4+0x13ed80]
  104315:	8b 15 80 ed 17 00    	mov    edx,DWORD PTR ds:0x17ed80
  10431b:	66 89 50 1c          	mov    WORD PTR [eax+0x1c],dx
  10431f:	a1 80 ed 17 00       	mov    eax,ds:0x17ed80
  104324:	89 c2                	mov    edx,eax
  104326:	8b 45 08             	mov    eax,DWORD PTR [ebp+0x8]
  104329:	89 50 24             	mov    DWORD PTR [eax+0x24],edx
  10432c:	5d                   	pop    ebp
  10432d:	c3                   	ret    

0010432e <syscall_unix>:
  10432e:	55                   	push   ebp
  10432f:	89 e5                	mov    ebp,esp
  104331:	83 ec 08             	sub    esp,0x8
  104334:	8b 45 08             	mov    eax,DWORD PTR [ebp+0x8]
  104337:	8b 40 24             	mov    eax,DWORD PTR [eax+0x24]
  10433a:	8b 04 85 40 ea 13 00 	mov    eax,DWORD PTR [eax*4+0x13ea40]
  104341:	85 c0                	test   eax,eax
  104343:	74 1a                	je     10435f <syscall_unix+0x31>
  104345:	8b 45 08             	mov    eax,DWORD PTR [ebp+0x8]
  104348:	8b 40 24             	mov    eax,DWORD PTR [eax+0x24]
  10434b:	8b 04 85 40 ea 13 00 	mov    eax,DWORD PTR [eax*4+0x13ea40]
  104352:	83 ec 0c             	sub    esp,0xc
  104355:	ff 75 08             	push   DWORD PTR [ebp+0x8]
  104358:	ff d0                	call   eax
  10435a:	83 c4 10             	add    esp,0x10
  10435d:	eb 2a                	jmp    104389 <syscall_unix+0x5b>
  10435f:	83 ec 08             	sub    esp,0x8
  104362:	6a 01                	push   0x1
  104364:	6a 05                	push   0x5
  104366:	e8 d8 24 00 00       	call   106843 <_log>
  10436b:	83 c4 10             	add    esp,0x10
  10436e:	85 c0                	test   eax,eax
  104370:	74 17                	je     104389 <syscall_unix+0x5b>
  104372:	8b 45 08             	mov    eax,DWORD PTR [ebp+0x8]
  104375:	8b 40 24             	mov    eax,DWORD PTR [eax+0x24]
  104378:	83 ec 08             	sub    esp,0x8
  10437b:	50                   	push   eax
  10437c:	68 44 9a 10 00       	push   0x109a44
  104381:	e8 50 d2 ff ff       	call   1015d6 <printf>
  104386:	83 c4 10             	add    esp,0x10
  104389:	c9                   	leave  
  10438a:	c3                   	ret    

0010438b <do_syscall>:
  10438b:	55                   	push   ebp
  10438c:	89 e5                	mov    ebp,esp
  10438e:	57                   	push   edi
  10438f:	56                   	push   esi
  104390:	53                   	push   ebx
  104391:	83 ec 2c             	sub    esp,0x2c
  104394:	8b 45 08             	mov    eax,DWORD PTR [ebp+0x8]
  104397:	8b 40 24             	mov    eax,DWORD PTR [eax+0x24]
  10439a:	83 c0 30             	add    eax,0x30
  10439d:	83 ec 08             	sub    esp,0x8
  1043a0:	6a 1f                	push   0x1f
  1043a2:	50                   	push   eax
  1043a3:	e8 5e c9 ff ff       	call   100d06 <vga_statchar>
  1043a8:	83 c4 10             	add    esp,0x10
  1043ab:	a1 b8 f8 17 00       	mov    eax,ds:0x17f8b8
  1043b0:	8d 50 01             	lea    edx,[eax+0x1]
  1043b3:	89 15 b8 f8 17 00    	mov    DWORD PTR ds:0x17f8b8,edx
  1043b9:	89 45 e4             	mov    DWORD PTR [ebp-0x1c],eax
  1043bc:	83 ec 08             	sub    esp,0x8
  1043bf:	6a 02                	push   0x2
  1043c1:	6a 05                	push   0x5
  1043c3:	e8 7b 24 00 00       	call   106843 <_log>
  1043c8:	83 c4 10             	add    esp,0x10
  1043cb:	85 c0                	test   eax,eax
  1043cd:	74 6b                	je     10443a <do_syscall+0xaf>
  1043cf:	8b 0d 80 ed 17 00    	mov    ecx,DWORD PTR ds:0x17ed80
  1043d5:	8b 45 08             	mov    eax,DWORD PTR [ebp+0x8]
  1043d8:	8b 40 08             	mov    eax,DWORD PTR [eax+0x8]
  1043db:	89 45 d4             	mov    DWORD PTR [ebp-0x2c],eax
  1043de:	8b 45 08             	mov    eax,DWORD PTR [ebp+0x8]
  1043e1:	8b 40 0c             	mov    eax,DWORD PTR [eax+0xc]
  1043e4:	89 45 d0             	mov    DWORD PTR [ebp-0x30],eax
  1043e7:	8b 45 08             	mov    eax,DWORD PTR [ebp+0x8]
  1043ea:	8b 78 1c             	mov    edi,DWORD PTR [eax+0x1c]
  1043ed:	8b 45 08             	mov    eax,DWORD PTR [ebp+0x8]
  1043f0:	8b 70 20             	mov    esi,DWORD PTR [eax+0x20]
  1043f3:	8b 45 08             	mov    eax,DWORD PTR [ebp+0x8]
  1043f6:	8b 58 18             	mov    ebx,DWORD PTR [eax+0x18]
  1043f9:	8b 45 08             	mov    eax,DWORD PTR [ebp+0x8]
  1043fc:	8b 50 24             	mov    edx,DWORD PTR [eax+0x24]
  1043ff:	8b 45 08             	mov    eax,DWORD PTR [ebp+0x8]
  104402:	8b 40 28             	mov    eax,DWORD PTR [eax+0x28]
  104405:	3d 80 00 00 00       	cmp    eax,0x80
  10440a:	75 07                	jne    104413 <do_syscall+0x88>
  10440c:	b8 64 9a 10 00       	mov    eax,0x109a64
  104411:	eb 05                	jmp    104418 <do_syscall+0x8d>
  104413:	b8 69 9a 10 00       	mov    eax,0x109a69
  104418:	83 ec 04             	sub    esp,0x4
  10441b:	ff 75 e4             	push   DWORD PTR [ebp-0x1c]
  10441e:	51                   	push   ecx
  10441f:	ff 75 d4             	push   DWORD PTR [ebp-0x2c]
  104422:	ff 75 d0             	push   DWORD PTR [ebp-0x30]
  104425:	57                   	push   edi
  104426:	56                   	push   esi
  104427:	53                   	push   ebx
  104428:	52                   	push   edx
  104429:	50                   	push   eax
  10442a:	ff 75 08             	push   DWORD PTR [ebp+0x8]
  10442d:	68 70 9a 10 00       	push   0x109a70
  104432:	e8 9f d1 ff ff       	call   1015d6 <printf>
  104437:	83 c4 30             	add    esp,0x30
  10443a:	8b 45 08             	mov    eax,DWORD PTR [ebp+0x8]
  10443d:	8b 40 28             	mov    eax,DWORD PTR [eax+0x28]
  104440:	3d 80 00 00 00       	cmp    eax,0x80
  104445:	75 0e                	jne    104455 <do_syscall+0xca>
  104447:	83 ec 0c             	sub    esp,0xc
  10444a:	ff 75 08             	push   DWORD PTR [ebp+0x8]
  10444d:	e8 dc fe ff ff       	call   10432e <syscall_unix>
  104452:	83 c4 10             	add    esp,0x10
  104455:	83 ec 08             	sub    esp,0x8
  104458:	6a 02                	push   0x2
  10445a:	6a 05                	push   0x5
  10445c:	e8 e2 23 00 00       	call   106843 <_log>
  104461:	83 c4 10             	add    esp,0x10
  104464:	85 c0                	test   eax,eax
  104466:	74 13                	je     10447b <do_syscall+0xf0>
  104468:	83 ec 08             	sub    esp,0x8
  10446b:	ff 75 e4             	push   DWORD PTR [ebp-0x1c]
  10446e:	68 8f 9a 10 00       	push   0x109a8f
  104473:	e8 5e d1 ff ff       	call   1015d6 <printf>
  104478:	83 c4 10             	add    esp,0x10
  10447b:	83 ec 08             	sub    esp,0x8
  10447e:	6a 1f                	push   0x1f
  104480:	6a 2e                	push   0x2e
  104482:	e8 7f c8 ff ff       	call   100d06 <vga_statchar>
  104487:	83 c4 10             	add    esp,0x10
  10448a:	8d 65 f4             	lea    esp,[ebp-0xc]
  10448d:	5b                   	pop    ebx
  10448e:	5e                   	pop    esi
  10448f:	5f                   	pop    edi
  104490:	5d                   	pop    ebp
  104491:	c3                   	ret    

00104492 <init_syscall>:
  104492:	55                   	push   ebp
  104493:	89 e5                	mov    ebp,esp
  104495:	c7 05 44 ea 13 00 ac 	mov    DWORD PTR ds:0x13ea44,0x103cac
  10449c:	3c 10 00 
  10449f:	c7 05 48 ea 13 00 c2 	mov    DWORD PTR ds:0x13ea48,0x103cc2
  1044a6:	3c 10 00 
  1044a9:	c7 05 4c ea 13 00 00 	mov    DWORD PTR ds:0x13ea4c,0x103d00
  1044b0:	3d 10 00 
  1044b3:	c7 05 50 ea 13 00 34 	mov    DWORD PTR ds:0x13ea50,0x103d34
  1044ba:	3d 10 00 
  1044bd:	c7 05 54 ea 13 00 9f 	mov    DWORD PTR ds:0x13ea54,0x103d9f
  1044c4:	3d 10 00 
  1044c7:	c7 05 58 ea 13 00 ca 	mov    DWORD PTR ds:0x13ea58,0x103dca
  1044ce:	3d 10 00 
  1044d1:	c7 05 5c ea 13 00 ec 	mov    DWORD PTR ds:0x13ea5c,0x103dec
  1044d8:	3d 10 00 
  1044db:	c7 05 6c ea 13 00 63 	mov    DWORD PTR ds:0x13ea6c,0x103e63
  1044e2:	3e 10 00 
  1044e5:	c7 05 f4 ea 13 00 03 	mov    DWORD PTR ds:0x13eaf4,0x104103
  1044ec:	41 10 00 
  1044ef:	c7 05 24 eb 13 00 bc 	mov    DWORD PTR ds:0x13eb24,0x1042bc
  1044f6:	42 10 00 
  1044f9:	c7 05 48 eb 13 00 06 	mov    DWORD PTR ds:0x13eb48,0x104306
  104500:	43 10 00 
  104503:	5d                   	pop    ebp
  104504:	c3                   	ret    

00104505 <timer_intr>:
  104505:	55                   	push   ebp
  104506:	89 e5                	mov    ebp,esp
  104508:	83 ec 08             	sub    esp,0x8
  10450b:	a1 c8 f8 17 00       	mov    eax,ds:0x17f8c8
  104510:	8b 15 cc f8 17 00    	mov    edx,DWORD PTR ds:0x17f8cc
  104516:	83 c0 01             	add    eax,0x1
  104519:	83 d2 00             	adc    edx,0x0
  10451c:	a3 c8 f8 17 00       	mov    ds:0x17f8c8,eax
  104521:	89 15 cc f8 17 00    	mov    DWORD PTR ds:0x17f8cc,edx
  104527:	a1 c0 f8 17 00       	mov    eax,ds:0x17f8c0
  10452c:	83 c0 01             	add    eax,0x1
  10452f:	a3 c0 f8 17 00       	mov    ds:0x17f8c0,eax
  104534:	8b 0d c0 f8 17 00    	mov    ecx,DWORD PTR ds:0x17f8c0
  10453a:	ba 1f 85 eb 51       	mov    edx,0x51eb851f
  10453f:	89 c8                	mov    eax,ecx
  104541:	f7 ea                	imul   edx
  104543:	c1 fa 04             	sar    edx,0x4
  104546:	89 c8                	mov    eax,ecx
  104548:	c1 f8 1f             	sar    eax,0x1f
  10454b:	29 c2                	sub    edx,eax
  10454d:	89 d0                	mov    eax,edx
  10454f:	6b c0 32             	imul   eax,eax,0x32
  104552:	29 c1                	sub    ecx,eax
  104554:	89 c8                	mov    eax,ecx
  104556:	83 f8 31             	cmp    eax,0x31
  104559:	75 17                	jne    104572 <timer_intr+0x6d>
  10455b:	a1 08 e0 10 00       	mov    eax,ds:0x10e008
  104560:	85 c0                	test   eax,eax
  104562:	0f 94 c0             	sete   al
  104565:	0f b6 c0             	movzx  eax,al
  104568:	a3 08 e0 10 00       	mov    ds:0x10e008,eax
  10456d:	e8 f0 c5 ff ff       	call   100b62 <vga_redraw>
  104572:	83 ec 0c             	sub    esp,0xc
  104575:	ff 75 08             	push   DWORD PTR [ebp+0x8]
  104578:	e8 7a 07 00 00       	call   104cf7 <switch_ctx>
  10457d:	83 c4 10             	add    esp,0x10
  104580:	c9                   	leave  
  104581:	c3                   	ret    

00104582 <timer_init>:
  104582:	55                   	push   ebp
  104583:	89 e5                	mov    ebp,esp
  104585:	83 ec 18             	sub    esp,0x18
  104588:	b8 dc 34 12 00       	mov    eax,0x1234dc
  10458d:	99                   	cdq    
  10458e:	f7 7d 08             	idiv   DWORD PTR [ebp+0x8]
  104591:	89 45 f4             	mov    DWORD PTR [ebp-0xc],eax
  104594:	83 ec 08             	sub    esp,0x8
  104597:	6a 36                	push   0x36
  104599:	6a 43                	push   0x43
  10459b:	e8 0e c2 ff ff       	call   1007ae <outb>
  1045a0:	83 c4 10             	add    esp,0x10
  1045a3:	8b 45 f4             	mov    eax,DWORD PTR [ebp-0xc]
  1045a6:	0f b6 c0             	movzx  eax,al
  1045a9:	83 ec 08             	sub    esp,0x8
  1045ac:	50                   	push   eax
  1045ad:	6a 40                	push   0x40
  1045af:	e8 fa c1 ff ff       	call   1007ae <outb>
  1045b4:	83 c4 10             	add    esp,0x10
  1045b7:	8b 45 f4             	mov    eax,DWORD PTR [ebp-0xc]
  1045ba:	c1 f8 08             	sar    eax,0x8
  1045bd:	0f b6 c0             	movzx  eax,al
  1045c0:	83 ec 08             	sub    esp,0x8
  1045c3:	50                   	push   eax
  1045c4:	6a 40                	push   0x40
  1045c6:	e8 e3 c1 ff ff       	call   1007ae <outb>
  1045cb:	83 c4 10             	add    esp,0x10
  1045ce:	83 ec 0c             	sub    esp,0xc
  1045d1:	6a 00                	push   0x0
  1045d3:	e8 99 1f 00 00       	call   106571 <PIC_clear_line>
  1045d8:	83 c4 10             	add    esp,0x10
  1045db:	83 ec 08             	sub    esp,0x8
  1045de:	68 05 45 10 00       	push   0x104505
  1045e3:	6a 00                	push   0x0
  1045e5:	e8 ee 1f 00 00       	call   1065d8 <register_irq_handler>
  1045ea:	83 c4 10             	add    esp,0x10
  1045ed:	c9                   	leave  
  1045ee:	c3                   	ret    

001045ef <init_mt>:
  1045ef:	55                   	push   ebp
  1045f0:	89 e5                	mov    ebp,esp
  1045f2:	83 ec 18             	sub    esp,0x18
  1045f5:	c7 45 f4 00 00 00 00 	mov    DWORD PTR [ebp-0xc],0x0
  1045fc:	eb 12                	jmp    104610 <init_mt+0x21>
  1045fe:	8b 45 f4             	mov    eax,DWORD PTR [ebp-0xc]
  104601:	c7 04 85 80 ed 13 00 	mov    DWORD PTR [eax*4+0x13ed80],0x0
  104608:	00 00 00 00 
  10460c:	83 45 f4 01          	add    DWORD PTR [ebp-0xc],0x1
  104610:	81 7d f4 ff ff 00 00 	cmp    DWORD PTR [ebp-0xc],0xffff
  104617:	7e e5                	jle    1045fe <init_mt+0xf>
  104619:	83 ec 0c             	sub    esp,0xc
  10461c:	6a 28                	push   0x28
  10461e:	e8 56 e0 ff ff       	call   102679 <malloc>
  104623:	83 c4 10             	add    esp,0x10
  104626:	a3 80 ed 13 00       	mov    ds:0x13ed80,eax
  10462b:	c7 05 80 ed 17 00 00 	mov    DWORD PTR ds:0x17ed80,0x0
  104632:	00 00 00 
  104635:	c9                   	leave  
  104636:	c3                   	ret    

00104637 <enable_mt>:
  104637:	55                   	push   ebp
  104638:	89 e5                	mov    ebp,esp
  10463a:	83 ec 08             	sub    esp,0x8
  10463d:	c7 05 d0 f8 17 00 01 	mov    DWORD PTR ds:0x17f8d0,0x1
  104644:	00 00 00 
  104647:	e8 d4 f5 ff ff       	call   103c20 <tss_flush>
  10464c:	83 ec 0c             	sub    esp,0xc
  10464f:	68 9c 9a 10 00       	push   0x109a9c
  104654:	e8 7d cf ff ff       	call   1015d6 <printf>
  104659:	83 c4 10             	add    esp,0x10
  10465c:	cd 20                	int    0x20
  10465e:	c9                   	leave  
  10465f:	c3                   	ret    

00104660 <new_process>:
  104660:	55                   	push   ebp
  104661:	89 e5                	mov    ebp,esp
  104663:	53                   	push   ebx
  104664:	83 ec 14             	sub    esp,0x14
  104667:	c7 45 f4 01 00 00 00 	mov    DWORD PTR [ebp-0xc],0x1
  10466e:	eb 04                	jmp    104674 <new_process+0x14>
  104670:	83 45 f4 01          	add    DWORD PTR [ebp-0xc],0x1
  104674:	8b 45 f4             	mov    eax,DWORD PTR [ebp-0xc]
  104677:	8b 04 85 80 ed 13 00 	mov    eax,DWORD PTR [eax*4+0x13ed80]
  10467e:	85 c0                	test   eax,eax
  104680:	75 ee                	jne    104670 <new_process+0x10>
  104682:	83 ec 0c             	sub    esp,0xc
  104685:	6a 28                	push   0x28
  104687:	e8 ed df ff ff       	call   102679 <malloc>
  10468c:	83 c4 10             	add    esp,0x10
  10468f:	89 c2                	mov    edx,eax
  104691:	8b 45 f4             	mov    eax,DWORD PTR [ebp-0xc]
  104694:	89 14 85 80 ed 13 00 	mov    DWORD PTR [eax*4+0x13ed80],edx
  10469b:	8b 45 f4             	mov    eax,DWORD PTR [ebp-0xc]
  10469e:	8b 04 85 80 ed 13 00 	mov    eax,DWORD PTR [eax*4+0x13ed80]
  1046a5:	83 ec 04             	sub    esp,0x4
  1046a8:	6a 28                	push   0x28
  1046aa:	6a 00                	push   0x0
  1046ac:	50                   	push   eax
  1046ad:	e8 9f 0c 00 00       	call   105351 <memset>
  1046b2:	83 c4 10             	add    esp,0x10
  1046b5:	8b 45 f4             	mov    eax,DWORD PTR [ebp-0xc]
  1046b8:	8b 1c 85 80 ed 13 00 	mov    ebx,DWORD PTR [eax*4+0x13ed80]
  1046bf:	83 ec 0c             	sub    esp,0xc
  1046c2:	6a 44                	push   0x44
  1046c4:	e8 b0 df ff ff       	call   102679 <malloc>
  1046c9:	83 c4 10             	add    esp,0x10
  1046cc:	89 43 08             	mov    DWORD PTR [ebx+0x8],eax
  1046cf:	8b 45 f4             	mov    eax,DWORD PTR [ebp-0xc]
  1046d2:	8b 04 85 80 ed 13 00 	mov    eax,DWORD PTR [eax*4+0x13ed80]
  1046d9:	8b 40 08             	mov    eax,DWORD PTR [eax+0x8]
  1046dc:	8b 55 08             	mov    edx,DWORD PTR [ebp+0x8]
  1046df:	89 50 30             	mov    DWORD PTR [eax+0x30],edx
  1046e2:	8b 45 f4             	mov    eax,DWORD PTR [ebp-0xc]
  1046e5:	8b 04 85 80 ed 13 00 	mov    eax,DWORD PTR [eax*4+0x13ed80]
  1046ec:	8b 40 08             	mov    eax,DWORD PTR [eax+0x8]
  1046ef:	c7 40 34 2b 00 00 00 	mov    DWORD PTR [eax+0x34],0x2b
  1046f6:	8b 45 f4             	mov    eax,DWORD PTR [ebp-0xc]
  1046f9:	8b 04 85 80 ed 13 00 	mov    eax,DWORD PTR [eax*4+0x13ed80]
  104700:	8b 58 08             	mov    ebx,DWORD PTR [eax+0x8]
  104703:	8b 45 f4             	mov    eax,DWORD PTR [ebp-0xc]
  104706:	8b 04 85 80 ed 13 00 	mov    eax,DWORD PTR [eax*4+0x13ed80]
  10470d:	8b 40 08             	mov    eax,DWORD PTR [eax+0x8]
  104710:	8b 55 f4             	mov    edx,DWORD PTR [ebp-0xc]
  104713:	8b 14 95 80 ed 13 00 	mov    edx,DWORD PTR [edx*4+0x13ed80]
  10471a:	8b 52 08             	mov    edx,DWORD PTR [edx+0x8]
  10471d:	8b 4d f4             	mov    ecx,DWORD PTR [ebp-0xc]
  104720:	8b 0c 8d 80 ed 13 00 	mov    ecx,DWORD PTR [ecx*4+0x13ed80]
  104727:	8b 49 08             	mov    ecx,DWORD PTR [ecx+0x8]
  10472a:	c7 41 40 33 00 00 00 	mov    DWORD PTR [ecx+0x40],0x33
  104731:	8b 4d f4             	mov    ecx,DWORD PTR [ebp-0xc]
  104734:	8b 0c 8d 80 ed 13 00 	mov    ecx,DWORD PTR [ecx*4+0x13ed80]
  10473b:	8b 49 08             	mov    ecx,DWORD PTR [ecx+0x8]
  10473e:	66 c7 01 33 00       	mov    WORD PTR [ecx],0x33
  104743:	0f b7 09             	movzx  ecx,WORD PTR [ecx]
  104746:	66 89 4a 02          	mov    WORD PTR [edx+0x2],cx
  10474a:	0f b7 52 02          	movzx  edx,WORD PTR [edx+0x2]
  10474e:	66 89 50 04          	mov    WORD PTR [eax+0x4],dx
  104752:	0f b7 40 04          	movzx  eax,WORD PTR [eax+0x4]
  104756:	66 89 43 06          	mov    WORD PTR [ebx+0x6],ax
  10475a:	8b 45 f4             	mov    eax,DWORD PTR [ebp-0xc]
  10475d:	8b 04 85 80 ed 13 00 	mov    eax,DWORD PTR [eax*4+0x13ed80]
  104764:	8b 40 08             	mov    eax,DWORD PTR [eax+0x8]
  104767:	c7 40 3c f0 ff 00 0c 	mov    DWORD PTR [eax+0x3c],0xc00fff0
  10476e:	8b 45 f4             	mov    eax,DWORD PTR [ebp-0xc]
  104771:	8b 04 85 80 ed 13 00 	mov    eax,DWORD PTR [eax*4+0x13ed80]
  104778:	8b 40 08             	mov    eax,DWORD PTR [eax+0x8]
  10477b:	c7 40 38 00 02 00 00 	mov    DWORD PTR [eax+0x38],0x200
  104782:	8b 45 f4             	mov    eax,DWORD PTR [ebp-0xc]
  104785:	8b 1c 85 80 ed 13 00 	mov    ebx,DWORD PTR [eax*4+0x13ed80]
  10478c:	83 ec 0c             	sub    esp,0xc
  10478f:	6a 0c                	push   0xc
  104791:	e8 e3 de ff ff       	call   102679 <malloc>
  104796:	83 c4 10             	add    esp,0x10
  104799:	89 03                	mov    DWORD PTR [ebx],eax
  10479b:	8b 45 f4             	mov    eax,DWORD PTR [ebp-0xc]
  10479e:	8b 04 85 80 ed 13 00 	mov    eax,DWORD PTR [eax*4+0x13ed80]
  1047a5:	8b 00                	mov    eax,DWORD PTR [eax]
  1047a7:	83 ec 04             	sub    esp,0x4
  1047aa:	6a 0c                	push   0xc
  1047ac:	6a 00                	push   0x0
  1047ae:	50                   	push   eax
  1047af:	e8 9d 0b 00 00       	call   105351 <memset>
  1047b4:	83 c4 10             	add    esp,0x10
  1047b7:	8b 45 f4             	mov    eax,DWORD PTR [ebp-0xc]
  1047ba:	8b 1c 85 80 ed 13 00 	mov    ebx,DWORD PTR [eax*4+0x13ed80]
  1047c1:	83 ec 0c             	sub    esp,0xc
  1047c4:	68 00 10 00 00       	push   0x1000
  1047c9:	e8 ab de ff ff       	call   102679 <malloc>
  1047ce:	83 c4 10             	add    esp,0x10
  1047d1:	89 43 20             	mov    DWORD PTR [ebx+0x20],eax
  1047d4:	8b 45 f4             	mov    eax,DWORD PTR [ebp-0xc]
  1047d7:	8b 04 85 80 ed 13 00 	mov    eax,DWORD PTR [eax*4+0x13ed80]
  1047de:	8b 40 20             	mov    eax,DWORD PTR [eax+0x20]
  1047e1:	83 ec 04             	sub    esp,0x4
  1047e4:	68 00 10 00 00       	push   0x1000
  1047e9:	6a 00                	push   0x0
  1047eb:	50                   	push   eax
  1047ec:	e8 60 0b 00 00       	call   105351 <memset>
  1047f1:	83 c4 10             	add    esp,0x10
  1047f4:	8b 45 f4             	mov    eax,DWORD PTR [ebp-0xc]
  1047f7:	8b 04 85 80 ed 13 00 	mov    eax,DWORD PTR [eax*4+0x13ed80]
  1047fe:	c6 40 10 00          	mov    BYTE PTR [eax+0x10],0x0
  104802:	8b 45 f4             	mov    eax,DWORD PTR [ebp-0xc]
  104805:	8b 04 85 80 ed 13 00 	mov    eax,DWORD PTR [eax*4+0x13ed80]
  10480c:	66 c7 40 16 00 00    	mov    WORD PTR [eax+0x16],0x0
  104812:	8b 45 f4             	mov    eax,DWORD PTR [ebp-0xc]
  104815:	8b 1c 85 80 ed 13 00 	mov    ebx,DWORD PTR [eax*4+0x13ed80]
  10481c:	83 ec 08             	sub    esp,0x8
  10481f:	68 00 10 00 00       	push   0x1000
  104824:	68 00 00 01 00       	push   0x10000
  104829:	e8 44 e0 ff ff       	call   102872 <malloc_a>
  10482e:	83 c4 10             	add    esp,0x10
  104831:	05 00 00 01 00       	add    eax,0x10000
  104836:	89 43 24             	mov    DWORD PTR [ebx+0x24],eax
  104839:	c7 45 f0 00 00 00 0c 	mov    DWORD PTR [ebp-0x10],0xc000000
  104840:	eb 2a                	jmp    10486c <new_process+0x20c>
  104842:	8b 45 f0             	mov    eax,DWORD PTR [ebp-0x10]
  104845:	c1 e8 0c             	shr    eax,0xc
  104848:	89 c2                	mov    edx,eax
  10484a:	8b 45 f4             	mov    eax,DWORD PTR [ebp-0xc]
  10484d:	8b 04 85 80 ed 13 00 	mov    eax,DWORD PTR [eax*4+0x13ed80]
  104854:	8b 00                	mov    eax,DWORD PTR [eax]
  104856:	83 ec 04             	sub    esp,0x4
  104859:	6a 00                	push   0x0
  10485b:	52                   	push   edx
  10485c:	50                   	push   eax
  10485d:	e8 ed eb ff ff       	call   10344f <nonid_page>
  104862:	83 c4 10             	add    esp,0x10
  104865:	81 45 f0 00 10 00 00 	add    DWORD PTR [ebp-0x10],0x1000
  10486c:	81 7d f0 ff ff 00 0c 	cmp    DWORD PTR [ebp-0x10],0xc00ffff
  104873:	76 cd                	jbe    104842 <new_process+0x1e2>
  104875:	c7 45 f0 00 04 01 0c 	mov    DWORD PTR [ebp-0x10],0xc010400
  10487c:	eb 2a                	jmp    1048a8 <new_process+0x248>
  10487e:	8b 45 f0             	mov    eax,DWORD PTR [ebp-0x10]
  104881:	c1 e8 0c             	shr    eax,0xc
  104884:	89 c2                	mov    edx,eax
  104886:	8b 45 f4             	mov    eax,DWORD PTR [ebp-0xc]
  104889:	8b 04 85 80 ed 13 00 	mov    eax,DWORD PTR [eax*4+0x13ed80]
  104890:	8b 00                	mov    eax,DWORD PTR [eax]
  104892:	83 ec 04             	sub    esp,0x4
  104895:	6a 00                	push   0x0
  104897:	52                   	push   edx
  104898:	50                   	push   eax
  104899:	e8 b1 eb ff ff       	call   10344f <nonid_page>
  10489e:	83 c4 10             	add    esp,0x10
  1048a1:	81 45 f0 00 10 00 00 	add    DWORD PTR [ebp-0x10],0x1000
  1048a8:	81 7d f0 ff 03 02 0c 	cmp    DWORD PTR [ebp-0x10],0xc0203ff
  1048af:	76 cd                	jbe    10487e <new_process+0x21e>
  1048b1:	8b 45 f4             	mov    eax,DWORD PTR [ebp-0xc]
  1048b4:	8b 04 85 80 ed 13 00 	mov    eax,DWORD PTR [eax*4+0x13ed80]
  1048bb:	c7 40 04 00 04 02 0c 	mov    DWORD PTR [eax+0x4],0xc020400
  1048c2:	8b 45 f4             	mov    eax,DWORD PTR [ebp-0xc]
  1048c5:	8b 5d fc             	mov    ebx,DWORD PTR [ebp-0x4]
  1048c8:	c9                   	leave  
  1048c9:	c3                   	ret    

001048ca <dump_process_pt>:
  1048ca:	55                   	push   ebp
  1048cb:	89 e5                	mov    ebp,esp
  1048cd:	83 ec 18             	sub    esp,0x18
  1048d0:	e9 9b 00 00 00       	jmp    104970 <dump_process_pt+0xa6>
  1048d5:	8b 45 08             	mov    eax,DWORD PTR [ebp+0x8]
  1048d8:	8b 40 04             	mov    eax,DWORD PTR [eax+0x4]
  1048db:	83 ec 08             	sub    esp,0x8
  1048de:	50                   	push   eax
  1048df:	68 a6 9a 10 00       	push   0x109aa6
  1048e4:	e8 ed cc ff ff       	call   1015d6 <printf>
  1048e9:	83 c4 10             	add    esp,0x10
  1048ec:	c7 45 f4 00 00 00 00 	mov    DWORD PTR [ebp-0xc],0x0
  1048f3:	eb 6a                	jmp    10495f <dump_process_pt+0x95>
  1048f5:	8b 45 08             	mov    eax,DWORD PTR [ebp+0x8]
  1048f8:	8b 40 04             	mov    eax,DWORD PTR [eax+0x4]
  1048fb:	c1 e0 0a             	shl    eax,0xa
  1048fe:	89 c2                	mov    edx,eax
  104900:	8b 45 f4             	mov    eax,DWORD PTR [ebp-0xc]
  104903:	01 d0                	add    eax,edx
  104905:	83 ec 08             	sub    esp,0x8
  104908:	50                   	push   eax
  104909:	ff 75 08             	push   DWORD PTR [ebp+0x8]
  10490c:	e8 dd ec ff ff       	call   1035ee <get_mapping>
  104911:	83 c4 10             	add    esp,0x10
  104914:	85 c0                	test   eax,eax
  104916:	74 43                	je     10495b <dump_process_pt+0x91>
  104918:	8b 45 08             	mov    eax,DWORD PTR [ebp+0x8]
  10491b:	8b 40 04             	mov    eax,DWORD PTR [eax+0x4]
  10491e:	c1 e0 0a             	shl    eax,0xa
  104921:	89 c2                	mov    edx,eax
  104923:	8b 45 f4             	mov    eax,DWORD PTR [ebp-0xc]
  104926:	01 d0                	add    eax,edx
  104928:	83 ec 08             	sub    esp,0x8
  10492b:	50                   	push   eax
  10492c:	ff 75 08             	push   DWORD PTR [ebp+0x8]
  10492f:	e8 ba ec ff ff       	call   1035ee <get_mapping>
  104934:	83 c4 10             	add    esp,0x10
  104937:	89 c2                	mov    edx,eax
  104939:	8b 45 08             	mov    eax,DWORD PTR [ebp+0x8]
  10493c:	8b 40 04             	mov    eax,DWORD PTR [eax+0x4]
  10493f:	c1 e0 0a             	shl    eax,0xa
  104942:	89 c1                	mov    ecx,eax
  104944:	8b 45 f4             	mov    eax,DWORD PTR [ebp-0xc]
  104947:	01 c8                	add    eax,ecx
  104949:	83 ec 04             	sub    esp,0x4
  10494c:	52                   	push   edx
  10494d:	50                   	push   eax
  10494e:	68 b3 9a 10 00       	push   0x109ab3
  104953:	e8 7e cc ff ff       	call   1015d6 <printf>
  104958:	83 c4 10             	add    esp,0x10
  10495b:	83 45 f4 01          	add    DWORD PTR [ebp-0xc],0x1
  10495f:	81 7d f4 ff 03 00 00 	cmp    DWORD PTR [ebp-0xc],0x3ff
  104966:	7e 8d                	jle    1048f5 <dump_process_pt+0x2b>
  104968:	8b 45 08             	mov    eax,DWORD PTR [ebp+0x8]
  10496b:	8b 00                	mov    eax,DWORD PTR [eax]
  10496d:	89 45 08             	mov    DWORD PTR [ebp+0x8],eax
  104970:	83 7d 08 00          	cmp    DWORD PTR [ebp+0x8],0x0
  104974:	0f 85 5b ff ff ff    	jne    1048d5 <dump_process_pt+0xb>
  10497a:	c9                   	leave  
  10497b:	c3                   	ret    

0010497c <get_process_pt>:
  10497c:	55                   	push   ebp
  10497d:	89 e5                	mov    ebp,esp
  10497f:	8b 45 08             	mov    eax,DWORD PTR [ebp+0x8]
  104982:	8b 04 85 80 ed 13 00 	mov    eax,DWORD PTR [eax*4+0x13ed80]
  104989:	8b 00                	mov    eax,DWORD PTR [eax]
  10498b:	5d                   	pop    ebp
  10498c:	c3                   	ret    

0010498d <fork>:
  10498d:	55                   	push   ebp
  10498e:	89 e5                	mov    ebp,esp
  104990:	83 ec 28             	sub    esp,0x28
  104993:	8b 45 08             	mov    eax,DWORD PTR [ebp+0x8]
  104996:	8b 40 30             	mov    eax,DWORD PTR [eax+0x30]
  104999:	83 ec 0c             	sub    esp,0xc
  10499c:	50                   	push   eax
  10499d:	e8 be fc ff ff       	call   104660 <new_process>
  1049a2:	83 c4 10             	add    esp,0x10
  1049a5:	89 45 e8             	mov    DWORD PTR [ebp-0x18],eax
  1049a8:	8b 45 e8             	mov    eax,DWORD PTR [ebp-0x18]
  1049ab:	8b 04 85 80 ed 13 00 	mov    eax,DWORD PTR [eax*4+0x13ed80]
  1049b2:	8b 40 08             	mov    eax,DWORD PTR [eax+0x8]
  1049b5:	83 ec 04             	sub    esp,0x4
  1049b8:	6a 44                	push   0x44
  1049ba:	ff 75 08             	push   DWORD PTR [ebp+0x8]
  1049bd:	50                   	push   eax
  1049be:	e8 bb 09 00 00       	call   10537e <memcpy>
  1049c3:	83 c4 10             	add    esp,0x10
  1049c6:	a1 80 ed 17 00       	mov    eax,ds:0x17ed80
  1049cb:	83 ec 0c             	sub    esp,0xc
  1049ce:	50                   	push   eax
  1049cf:	e8 a8 ff ff ff       	call   10497c <get_process_pt>
  1049d4:	83 c4 10             	add    esp,0x10
  1049d7:	89 45 f4             	mov    DWORD PTR [ebp-0xc],eax
  1049da:	e9 72 01 00 00       	jmp    104b51 <fork+0x1c4>
  1049df:	c7 45 f0 00 00 00 00 	mov    DWORD PTR [ebp-0x10],0x0
  1049e6:	eb 4e                	jmp    104a36 <fork+0xa9>
  1049e8:	8b 45 f4             	mov    eax,DWORD PTR [ebp-0xc]
  1049eb:	8b 40 04             	mov    eax,DWORD PTR [eax+0x4]
  1049ee:	c1 e0 0a             	shl    eax,0xa
  1049f1:	89 c2                	mov    edx,eax
  1049f3:	8b 45 f0             	mov    eax,DWORD PTR [ebp-0x10]
  1049f6:	01 d0                	add    eax,edx
  1049f8:	83 ec 08             	sub    esp,0x8
  1049fb:	50                   	push   eax
  1049fc:	ff 75 f4             	push   DWORD PTR [ebp-0xc]
  1049ff:	e8 ea eb ff ff       	call   1035ee <get_mapping>
  104a04:	83 c4 10             	add    esp,0x10
  104a07:	89 c1                	mov    ecx,eax
  104a09:	8b 45 f4             	mov    eax,DWORD PTR [ebp-0xc]
  104a0c:	8b 40 04             	mov    eax,DWORD PTR [eax+0x4]
  104a0f:	c1 e0 0a             	shl    eax,0xa
  104a12:	89 c2                	mov    edx,eax
  104a14:	8b 45 f0             	mov    eax,DWORD PTR [ebp-0x10]
  104a17:	01 c2                	add    edx,eax
  104a19:	8b 45 e8             	mov    eax,DWORD PTR [ebp-0x18]
  104a1c:	8b 04 85 80 ed 13 00 	mov    eax,DWORD PTR [eax*4+0x13ed80]
  104a23:	8b 00                	mov    eax,DWORD PTR [eax]
  104a25:	6a 01                	push   0x1
  104a27:	51                   	push   ecx
  104a28:	52                   	push   edx
  104a29:	50                   	push   eax
  104a2a:	e8 a7 ed ff ff       	call   1037d6 <mapped_page>
  104a2f:	83 c4 10             	add    esp,0x10
  104a32:	83 45 f0 01          	add    DWORD PTR [ebp-0x10],0x1
  104a36:	81 7d f0 ff 03 00 00 	cmp    DWORD PTR [ebp-0x10],0x3ff
  104a3d:	7e a9                	jle    1049e8 <fork+0x5b>
  104a3f:	c7 45 f0 00 00 00 00 	mov    DWORD PTR [ebp-0x10],0x0
  104a46:	e9 f1 00 00 00       	jmp    104b3c <fork+0x1af>
  104a4b:	8b 45 f4             	mov    eax,DWORD PTR [ebp-0xc]
  104a4e:	8b 40 08             	mov    eax,DWORD PTR [eax+0x8]
  104a51:	8b 55 f0             	mov    edx,DWORD PTR [ebp-0x10]
  104a54:	c1 e2 02             	shl    edx,0x2
  104a57:	01 d0                	add    eax,edx
  104a59:	8b 00                	mov    eax,DWORD PTR [eax]
  104a5b:	85 c0                	test   eax,eax
  104a5d:	75 05                	jne    104a64 <fork+0xd7>
  104a5f:	e9 d4 00 00 00       	jmp    104b38 <fork+0x1ab>
  104a64:	8b 45 f4             	mov    eax,DWORD PTR [ebp-0xc]
  104a67:	8b 40 04             	mov    eax,DWORD PTR [eax+0x4]
  104a6a:	c1 e0 0a             	shl    eax,0xa
  104a6d:	89 c2                	mov    edx,eax
  104a6f:	8b 45 f0             	mov    eax,DWORD PTR [ebp-0x10]
  104a72:	01 d0                	add    eax,edx
  104a74:	83 ec 08             	sub    esp,0x8
  104a77:	50                   	push   eax
  104a78:	ff 75 f4             	push   DWORD PTR [ebp-0xc]
  104a7b:	e8 6e eb ff ff       	call   1035ee <get_mapping>
  104a80:	83 c4 10             	add    esp,0x10
  104a83:	85 c0                	test   eax,eax
  104a85:	75 05                	jne    104a8c <fork+0xff>
  104a87:	e9 ac 00 00 00       	jmp    104b38 <fork+0x1ab>
  104a8c:	8b 45 e8             	mov    eax,DWORD PTR [ebp-0x18]
  104a8f:	8b 04 85 80 ed 13 00 	mov    eax,DWORD PTR [eax*4+0x13ed80]
  104a96:	8b 00                	mov    eax,DWORD PTR [eax]
  104a98:	83 ec 04             	sub    esp,0x4
  104a9b:	6a 01                	push   0x1
  104a9d:	68 00 30 00 00       	push   0x3000
  104aa2:	50                   	push   eax
  104aa3:	e8 a7 e9 ff ff       	call   10344f <nonid_page>
  104aa8:	83 c4 10             	add    esp,0x10
  104aab:	89 45 e4             	mov    DWORD PTR [ebp-0x1c],eax
  104aae:	8b 45 f0             	mov    eax,DWORD PTR [ebp-0x10]
  104ab1:	c1 e0 0c             	shl    eax,0xc
  104ab4:	89 c2                	mov    edx,eax
  104ab6:	8b 45 f4             	mov    eax,DWORD PTR [ebp-0xc]
  104ab9:	8b 40 04             	mov    eax,DWORD PTR [eax+0x4]
  104abc:	c1 e0 16             	shl    eax,0x16
  104abf:	01 d0                	add    eax,edx
  104ac1:	83 ec 04             	sub    esp,0x4
  104ac4:	68 00 10 00 00       	push   0x1000
  104ac9:	50                   	push   eax
  104aca:	68 00 00 00 03       	push   0x3000000
  104acf:	e8 aa 08 00 00       	call   10537e <memcpy>
  104ad4:	83 c4 10             	add    esp,0x10
  104ad7:	8b 45 f4             	mov    eax,DWORD PTR [ebp-0xc]
  104ada:	8b 40 04             	mov    eax,DWORD PTR [eax+0x4]
  104add:	c1 e0 0a             	shl    eax,0xa
  104ae0:	89 c2                	mov    edx,eax
  104ae2:	8b 45 f0             	mov    eax,DWORD PTR [ebp-0x10]
  104ae5:	01 c2                	add    edx,eax
  104ae7:	8b 45 e8             	mov    eax,DWORD PTR [ebp-0x18]
  104aea:	8b 04 85 80 ed 13 00 	mov    eax,DWORD PTR [eax*4+0x13ed80]
  104af1:	8b 00                	mov    eax,DWORD PTR [eax]
  104af3:	6a 00                	push   0x0
  104af5:	ff 75 e4             	push   DWORD PTR [ebp-0x1c]
  104af8:	52                   	push   edx
  104af9:	50                   	push   eax
  104afa:	e8 d7 ec ff ff       	call   1037d6 <mapped_page>
  104aff:	83 c4 10             	add    esp,0x10
  104b02:	8b 45 e8             	mov    eax,DWORD PTR [ebp-0x18]
  104b05:	8b 04 85 80 ed 13 00 	mov    eax,DWORD PTR [eax*4+0x13ed80]
  104b0c:	8b 00                	mov    eax,DWORD PTR [eax]
  104b0e:	6a 00                	push   0x0
  104b10:	6a 00                	push   0x0
  104b12:	68 00 30 00 00       	push   0x3000
  104b17:	50                   	push   eax
  104b18:	e8 b9 ec ff ff       	call   1037d6 <mapped_page>
  104b1d:	83 c4 10             	add    esp,0x10
  104b20:	8b 45 e8             	mov    eax,DWORD PTR [ebp-0x18]
  104b23:	8b 04 85 80 ed 13 00 	mov    eax,DWORD PTR [eax*4+0x13ed80]
  104b2a:	8b 00                	mov    eax,DWORD PTR [eax]
  104b2c:	83 ec 0c             	sub    esp,0xc
  104b2f:	50                   	push   eax
  104b30:	e8 fa e8 ff ff       	call   10342f <update_page_table>
  104b35:	83 c4 10             	add    esp,0x10
  104b38:	83 45 f0 01          	add    DWORD PTR [ebp-0x10],0x1
  104b3c:	81 7d f0 ff 03 00 00 	cmp    DWORD PTR [ebp-0x10],0x3ff
  104b43:	0f 8e 02 ff ff ff    	jle    104a4b <fork+0xbe>
  104b49:	8b 45 f4             	mov    eax,DWORD PTR [ebp-0xc]
  104b4c:	8b 00                	mov    eax,DWORD PTR [eax]
  104b4e:	89 45 f4             	mov    DWORD PTR [ebp-0xc],eax
  104b51:	83 7d f4 00          	cmp    DWORD PTR [ebp-0xc],0x0
  104b55:	0f 85 84 fe ff ff    	jne    1049df <fork+0x52>
  104b5b:	8b 45 e8             	mov    eax,DWORD PTR [ebp-0x18]
  104b5e:	8b 04 85 80 ed 13 00 	mov    eax,DWORD PTR [eax*4+0x13ed80]
  104b65:	8b 00                	mov    eax,DWORD PTR [eax]
  104b67:	83 ec 0c             	sub    esp,0xc
  104b6a:	50                   	push   eax
  104b6b:	e8 bf e8 ff ff       	call   10342f <update_page_table>
  104b70:	83 c4 10             	add    esp,0x10
  104b73:	c7 45 ec 00 00 00 00 	mov    DWORD PTR [ebp-0x14],0x0
  104b7a:	eb 3f                	jmp    104bbb <fork+0x22e>
  104b7c:	a1 80 ed 17 00       	mov    eax,ds:0x17ed80
  104b81:	8b 04 85 80 ed 13 00 	mov    eax,DWORD PTR [eax*4+0x13ed80]
  104b88:	8b 40 20             	mov    eax,DWORD PTR [eax+0x20]
  104b8b:	8b 55 ec             	mov    edx,DWORD PTR [ebp-0x14]
  104b8e:	c1 e2 04             	shl    edx,0x4
  104b91:	01 c2                	add    edx,eax
  104b93:	8b 45 e8             	mov    eax,DWORD PTR [ebp-0x18]
  104b96:	8b 04 85 80 ed 13 00 	mov    eax,DWORD PTR [eax*4+0x13ed80]
  104b9d:	8b 40 20             	mov    eax,DWORD PTR [eax+0x20]
  104ba0:	8b 4d ec             	mov    ecx,DWORD PTR [ebp-0x14]
  104ba3:	c1 e1 04             	shl    ecx,0x4
  104ba6:	01 c8                	add    eax,ecx
  104ba8:	83 ec 04             	sub    esp,0x4
  104bab:	6a 10                	push   0x10
  104bad:	52                   	push   edx
  104bae:	50                   	push   eax
  104baf:	e8 ca 07 00 00       	call   10537e <memcpy>
  104bb4:	83 c4 10             	add    esp,0x10
  104bb7:	83 45 ec 01          	add    DWORD PTR [ebp-0x14],0x1
  104bbb:	81 7d ec ff 00 00 00 	cmp    DWORD PTR [ebp-0x14],0xff
  104bc2:	7e b8                	jle    104b7c <fork+0x1ef>
  104bc4:	8b 45 e8             	mov    eax,DWORD PTR [ebp-0x18]
  104bc7:	8b 04 85 80 ed 13 00 	mov    eax,DWORD PTR [eax*4+0x13ed80]
  104bce:	8b 15 80 ed 17 00    	mov    edx,DWORD PTR ds:0x17ed80
  104bd4:	66 89 50 18          	mov    WORD PTR [eax+0x18],dx
  104bd8:	8b 45 e8             	mov    eax,DWORD PTR [ebp-0x18]
  104bdb:	8b 04 85 80 ed 13 00 	mov    eax,DWORD PTR [eax*4+0x13ed80]
  104be2:	8b 15 80 ed 17 00    	mov    edx,DWORD PTR ds:0x17ed80
  104be8:	8b 14 95 80 ed 13 00 	mov    edx,DWORD PTR [edx*4+0x13ed80]
  104bef:	0f b7 52 1a          	movzx  edx,WORD PTR [edx+0x1a]
  104bf3:	66 89 50 1a          	mov    WORD PTR [eax+0x1a],dx
  104bf7:	8b 45 e8             	mov    eax,DWORD PTR [ebp-0x18]
  104bfa:	8b 04 85 80 ed 13 00 	mov    eax,DWORD PTR [eax*4+0x13ed80]
  104c01:	8b 15 80 ed 17 00    	mov    edx,DWORD PTR ds:0x17ed80
  104c07:	8b 14 95 80 ed 13 00 	mov    edx,DWORD PTR [edx*4+0x13ed80]
  104c0e:	0f b7 52 1c          	movzx  edx,WORD PTR [edx+0x1c]
  104c12:	66 89 50 1c          	mov    WORD PTR [eax+0x1c],dx
  104c16:	8b 45 e8             	mov    eax,DWORD PTR [ebp-0x18]
  104c19:	8b 04 85 80 ed 13 00 	mov    eax,DWORD PTR [eax*4+0x13ed80]
  104c20:	c6 40 10 00          	mov    BYTE PTR [eax+0x10],0x0
  104c24:	a1 80 ed 17 00       	mov    eax,ds:0x17ed80
  104c29:	83 ec 04             	sub    esp,0x4
  104c2c:	50                   	push   eax
  104c2d:	ff 75 e8             	push   DWORD PTR [ebp-0x18]
  104c30:	68 c5 9a 10 00       	push   0x109ac5
  104c35:	e8 9c c9 ff ff       	call   1015d6 <printf>
  104c3a:	83 c4 10             	add    esp,0x10
  104c3d:	8b 45 e8             	mov    eax,DWORD PTR [ebp-0x18]
  104c40:	8b 04 85 80 ed 13 00 	mov    eax,DWORD PTR [eax*4+0x13ed80]
  104c47:	8b 40 08             	mov    eax,DWORD PTR [eax+0x8]
  104c4a:	c7 40 24 00 00 00 00 	mov    DWORD PTR [eax+0x24],0x0
  104c51:	8b 45 e8             	mov    eax,DWORD PTR [ebp-0x18]
  104c54:	c9                   	leave  
  104c55:	c3                   	ret    

00104c56 <set_process_entry>:
  104c56:	55                   	push   ebp
  104c57:	89 e5                	mov    ebp,esp
  104c59:	8b 45 08             	mov    eax,DWORD PTR [ebp+0x8]
  104c5c:	8b 04 85 80 ed 13 00 	mov    eax,DWORD PTR [eax*4+0x13ed80]
  104c63:	8b 40 08             	mov    eax,DWORD PTR [eax+0x8]
  104c66:	8b 55 0c             	mov    edx,DWORD PTR [ebp+0xc]
  104c69:	89 50 30             	mov    DWORD PTR [eax+0x30],edx
  104c6c:	5d                   	pop    ebp
  104c6d:	c3                   	ret    

00104c6e <shutdown>:
  104c6e:	55                   	push   ebp
  104c6f:	89 e5                	mov    ebp,esp
  104c71:	83 ec 08             	sub    esp,0x8
  104c74:	83 ec 0c             	sub    esp,0xc
  104c77:	68 e0 9a 10 00       	push   0x109ae0
  104c7c:	e8 55 c9 ff ff       	call   1015d6 <printf>
  104c81:	83 c4 10             	add    esp,0x10
  104c84:	83 ec 0c             	sub    esp,0xc
  104c87:	68 08 9b 10 00       	push   0x109b08
  104c8c:	e8 45 c9 ff ff       	call   1015d6 <printf>
  104c91:	83 c4 10             	add    esp,0x10
  104c94:	fa                   	cli    
  104c95:	f4                   	hlt    
  104c96:	eb fc                	jmp    104c94 <shutdown+0x26>

00104c98 <calc_regs_cksum>:
  104c98:	55                   	push   ebp
  104c99:	89 e5                	mov    ebp,esp
  104c9b:	53                   	push   ebx
  104c9c:	83 ec 10             	sub    esp,0x10
  104c9f:	c7 45 f8 00 00 00 00 	mov    DWORD PTR [ebp-0x8],0x0
  104ca6:	c7 45 f4 00 00 00 00 	mov    DWORD PTR [ebp-0xc],0x0
  104cad:	eb 39                	jmp    104ce8 <calc_regs_cksum+0x50>
  104caf:	8b 55 08             	mov    edx,DWORD PTR [ebp+0x8]
  104cb2:	8b 45 f4             	mov    eax,DWORD PTR [ebp-0xc]
  104cb5:	01 d0                	add    eax,edx
  104cb7:	0f b6 00             	movzx  eax,BYTE PTR [eax]
  104cba:	0f be d8             	movsx  ebx,al
  104cbd:	8b 4d f4             	mov    ecx,DWORD PTR [ebp-0xc]
  104cc0:	ba ab aa aa aa       	mov    edx,0xaaaaaaab
  104cc5:	89 c8                	mov    eax,ecx
  104cc7:	f7 e2                	mul    edx
  104cc9:	c1 ea 04             	shr    edx,0x4
  104ccc:	89 d0                	mov    eax,edx
  104cce:	01 c0                	add    eax,eax
  104cd0:	01 d0                	add    eax,edx
  104cd2:	c1 e0 03             	shl    eax,0x3
  104cd5:	29 c1                	sub    ecx,eax
  104cd7:	89 ca                	mov    edx,ecx
  104cd9:	89 d0                	mov    eax,edx
  104cdb:	89 c1                	mov    ecx,eax
  104cdd:	d3 e3                	shl    ebx,cl
  104cdf:	89 d8                	mov    eax,ebx
  104ce1:	31 45 f8             	xor    DWORD PTR [ebp-0x8],eax
  104ce4:	83 45 f4 01          	add    DWORD PTR [ebp-0xc],0x1
  104ce8:	83 7d f4 43          	cmp    DWORD PTR [ebp-0xc],0x43
  104cec:	76 c1                	jbe    104caf <calc_regs_cksum+0x17>
  104cee:	8b 45 f8             	mov    eax,DWORD PTR [ebp-0x8]
  104cf1:	83 c4 10             	add    esp,0x10
  104cf4:	5b                   	pop    ebx
  104cf5:	5d                   	pop    ebp
  104cf6:	c3                   	ret    

00104cf7 <switch_ctx>:
  104cf7:	55                   	push   ebp
  104cf8:	89 e5                	mov    ebp,esp
  104cfa:	53                   	push   ebx
  104cfb:	83 ec 14             	sub    esp,0x14
  104cfe:	a1 d0 f8 17 00       	mov    eax,ds:0x17f8d0
  104d03:	85 c0                	test   eax,eax
  104d05:	75 05                	jne    104d0c <switch_ctx+0x15>
  104d07:	e9 d6 02 00 00       	jmp    104fe2 <switch_ctx+0x2eb>
  104d0c:	a1 84 ed 17 00       	mov    eax,ds:0x17ed84
  104d11:	8d 50 01             	lea    edx,[eax+0x1]
  104d14:	89 15 84 ed 17 00    	mov    DWORD PTR ds:0x17ed84,edx
  104d1a:	83 c0 20             	add    eax,0x20
  104d1d:	83 ec 08             	sub    esp,0x8
  104d20:	6a 1e                	push   0x1e
  104d22:	50                   	push   eax
  104d23:	e8 de bf ff ff       	call   100d06 <vga_statchar>
  104d28:	83 c4 10             	add    esp,0x10
  104d2b:	c7 45 f4 00 00 00 00 	mov    DWORD PTR [ebp-0xc],0x0
  104d32:	eb 3b                	jmp    104d6f <switch_ctx+0x78>
  104d34:	8b 45 f4             	mov    eax,DWORD PTR [ebp-0xc]
  104d37:	8d 50 28             	lea    edx,[eax+0x28]
  104d3a:	8b 45 08             	mov    eax,DWORD PTR [ebp+0x8]
  104d3d:	8b 58 30             	mov    ebx,DWORD PTR [eax+0x30]
  104d40:	b8 07 00 00 00       	mov    eax,0x7
  104d45:	2b 45 f4             	sub    eax,DWORD PTR [ebp-0xc]
  104d48:	c1 e0 02             	shl    eax,0x2
  104d4b:	89 c1                	mov    ecx,eax
  104d4d:	d3 eb                	shr    ebx,cl
  104d4f:	89 d8                	mov    eax,ebx
  104d51:	83 e0 0f             	and    eax,0xf
  104d54:	0f b6 80 2d 9b 10 00 	movzx  eax,BYTE PTR [eax+0x109b2d]
  104d5b:	0f be c0             	movsx  eax,al
  104d5e:	83 ec 08             	sub    esp,0x8
  104d61:	52                   	push   edx
  104d62:	50                   	push   eax
  104d63:	e8 9e bf ff ff       	call   100d06 <vga_statchar>
  104d68:	83 c4 10             	add    esp,0x10
  104d6b:	83 45 f4 01          	add    DWORD PTR [ebp-0xc],0x1
  104d6f:	83 7d f4 07          	cmp    DWORD PTR [ebp-0xc],0x7
  104d73:	7e bf                	jle    104d34 <switch_ctx+0x3d>
  104d75:	8b 0d 84 ed 17 00    	mov    ecx,DWORD PTR ds:0x17ed84
  104d7b:	ba 67 66 66 66       	mov    edx,0x66666667
  104d80:	89 c8                	mov    eax,ecx
  104d82:	f7 ea                	imul   edx
  104d84:	c1 fa 05             	sar    edx,0x5
  104d87:	89 c8                	mov    eax,ecx
  104d89:	c1 f8 1f             	sar    eax,0x1f
  104d8c:	29 c2                	sub    edx,eax
  104d8e:	89 d0                	mov    eax,edx
  104d90:	c1 e0 02             	shl    eax,0x2
  104d93:	01 d0                	add    eax,edx
  104d95:	c1 e0 04             	shl    eax,0x4
  104d98:	29 c1                	sub    ecx,eax
  104d9a:	89 ca                	mov    edx,ecx
  104d9c:	89 15 84 ed 17 00    	mov    DWORD PTR ds:0x17ed84,edx
  104da2:	a1 d0 f8 17 00       	mov    eax,ds:0x17f8d0
  104da7:	83 f8 01             	cmp    eax,0x1
  104daa:	7e 4d                	jle    104df9 <switch_ctx+0x102>
  104dac:	a1 80 ed 17 00       	mov    eax,ds:0x17ed80
  104db1:	8b 04 85 80 ed 13 00 	mov    eax,DWORD PTR [eax*4+0x13ed80]
  104db8:	85 c0                	test   eax,eax
  104dba:	74 3d                	je     104df9 <switch_ctx+0x102>
  104dbc:	a1 80 ed 17 00       	mov    eax,ds:0x17ed80
  104dc1:	8b 1c 85 80 ed 13 00 	mov    ebx,DWORD PTR [eax*4+0x13ed80]
  104dc8:	83 ec 0c             	sub    esp,0xc
  104dcb:	ff 75 08             	push   DWORD PTR [ebp+0x8]
  104dce:	e8 c5 fe ff ff       	call   104c98 <calc_regs_cksum>
  104dd3:	83 c4 10             	add    esp,0x10
  104dd6:	89 43 0c             	mov    DWORD PTR [ebx+0xc],eax
  104dd9:	a1 80 ed 17 00       	mov    eax,ds:0x17ed80
  104dde:	8b 04 85 80 ed 13 00 	mov    eax,DWORD PTR [eax*4+0x13ed80]
  104de5:	8b 40 08             	mov    eax,DWORD PTR [eax+0x8]
  104de8:	83 ec 04             	sub    esp,0x4
  104deb:	6a 44                	push   0x44
  104ded:	ff 75 08             	push   DWORD PTR [ebp+0x8]
  104df0:	50                   	push   eax
  104df1:	e8 88 05 00 00       	call   10537e <memcpy>
  104df6:	83 c4 10             	add    esp,0x10
  104df9:	a1 80 ed 17 00       	mov    eax,ds:0x17ed80
  104dfe:	83 c0 01             	add    eax,0x1
  104e01:	89 45 f4             	mov    DWORD PTR [ebp-0xc],eax
  104e04:	eb 26                	jmp    104e2c <switch_ctx+0x135>
  104e06:	8b 45 f4             	mov    eax,DWORD PTR [ebp-0xc]
  104e09:	8b 04 85 80 ed 13 00 	mov    eax,DWORD PTR [eax*4+0x13ed80]
  104e10:	85 c0                	test   eax,eax
  104e12:	74 14                	je     104e28 <switch_ctx+0x131>
  104e14:	8b 45 f4             	mov    eax,DWORD PTR [ebp-0xc]
  104e17:	8b 04 85 80 ed 13 00 	mov    eax,DWORD PTR [eax*4+0x13ed80]
  104e1e:	0f b6 40 10          	movzx  eax,BYTE PTR [eax+0x10]
  104e22:	84 c0                	test   al,al
  104e24:	75 02                	jne    104e28 <switch_ctx+0x131>
  104e26:	eb 51                	jmp    104e79 <switch_ctx+0x182>
  104e28:	83 45 f4 01          	add    DWORD PTR [ebp-0xc],0x1
  104e2c:	81 7d f4 ff ff 00 00 	cmp    DWORD PTR [ebp-0xc],0xffff
  104e33:	7e d1                	jle    104e06 <switch_ctx+0x10f>
  104e35:	c7 45 f4 01 00 00 00 	mov    DWORD PTR [ebp-0xc],0x1
  104e3c:	eb 04                	jmp    104e42 <switch_ctx+0x14b>
  104e3e:	83 45 f4 01          	add    DWORD PTR [ebp-0xc],0x1
  104e42:	8b 45 f4             	mov    eax,DWORD PTR [ebp-0xc]
  104e45:	8b 04 85 80 ed 13 00 	mov    eax,DWORD PTR [eax*4+0x13ed80]
  104e4c:	85 c0                	test   eax,eax
  104e4e:	74 12                	je     104e62 <switch_ctx+0x16b>
  104e50:	8b 45 f4             	mov    eax,DWORD PTR [ebp-0xc]
  104e53:	8b 04 85 80 ed 13 00 	mov    eax,DWORD PTR [eax*4+0x13ed80]
  104e5a:	0f b6 40 10          	movzx  eax,BYTE PTR [eax+0x10]
  104e5e:	84 c0                	test   al,al
  104e60:	74 09                	je     104e6b <switch_ctx+0x174>
  104e62:	81 7d f4 ff ff 00 00 	cmp    DWORD PTR [ebp-0xc],0xffff
  104e69:	7e d3                	jle    104e3e <switch_ctx+0x147>
  104e6b:	81 7d f4 ff ff 00 00 	cmp    DWORD PTR [ebp-0xc],0xffff
  104e72:	7e 05                	jle    104e79 <switch_ctx+0x182>
  104e74:	e9 69 01 00 00       	jmp    104fe2 <switch_ctx+0x2eb>
  104e79:	a1 80 ed 17 00       	mov    eax,ds:0x17ed80
  104e7e:	39 45 f4             	cmp    DWORD PTR [ebp-0xc],eax
  104e81:	74 53                	je     104ed6 <switch_ctx+0x1df>
  104e83:	a1 80 ed 17 00       	mov    eax,ds:0x17ed80
  104e88:	8b 04 85 80 ed 13 00 	mov    eax,DWORD PTR [eax*4+0x13ed80]
  104e8f:	85 c0                	test   eax,eax
  104e91:	74 29                	je     104ebc <switch_ctx+0x1c5>
  104e93:	8b 45 f4             	mov    eax,DWORD PTR [ebp-0xc]
  104e96:	8b 04 85 80 ed 13 00 	mov    eax,DWORD PTR [eax*4+0x13ed80]
  104e9d:	8b 10                	mov    edx,DWORD PTR [eax]
  104e9f:	a1 80 ed 17 00       	mov    eax,ds:0x17ed80
  104ea4:	8b 04 85 80 ed 13 00 	mov    eax,DWORD PTR [eax*4+0x13ed80]
  104eab:	8b 00                	mov    eax,DWORD PTR [eax]
  104ead:	83 ec 08             	sub    esp,0x8
  104eb0:	52                   	push   edx
  104eb1:	50                   	push   eax
  104eb2:	e8 4c e5 ff ff       	call   103403 <swap_page_table>
  104eb7:	83 c4 10             	add    esp,0x10
  104eba:	eb 1a                	jmp    104ed6 <switch_ctx+0x1df>
  104ebc:	8b 45 f4             	mov    eax,DWORD PTR [ebp-0xc]
  104ebf:	8b 04 85 80 ed 13 00 	mov    eax,DWORD PTR [eax*4+0x13ed80]
  104ec6:	8b 00                	mov    eax,DWORD PTR [eax]
  104ec8:	83 ec 08             	sub    esp,0x8
  104ecb:	50                   	push   eax
  104ecc:	6a 00                	push   0x0
  104ece:	e8 30 e5 ff ff       	call   103403 <swap_page_table>
  104ed3:	83 c4 10             	add    esp,0x10
  104ed6:	c7 45 f0 01 00 00 00 	mov    DWORD PTR [ebp-0x10],0x1
  104edd:	eb 37                	jmp    104f16 <switch_ctx+0x21f>
  104edf:	83 ec 08             	sub    esp,0x8
  104ee2:	ff 75 f0             	push   DWORD PTR [ebp-0x10]
  104ee5:	6a 2e                	push   0x2e
  104ee7:	e8 1a be ff ff       	call   100d06 <vga_statchar>
  104eec:	83 c4 10             	add    esp,0x10
  104eef:	8b 45 f0             	mov    eax,DWORD PTR [ebp-0x10]
  104ef2:	8b 04 85 80 ed 13 00 	mov    eax,DWORD PTR [eax*4+0x13ed80]
  104ef9:	85 c0                	test   eax,eax
  104efb:	74 15                	je     104f12 <switch_ctx+0x21b>
  104efd:	8b 45 f0             	mov    eax,DWORD PTR [ebp-0x10]
  104f00:	83 c0 30             	add    eax,0x30
  104f03:	83 ec 08             	sub    esp,0x8
  104f06:	ff 75 f0             	push   DWORD PTR [ebp-0x10]
  104f09:	50                   	push   eax
  104f0a:	e8 f7 bd ff ff       	call   100d06 <vga_statchar>
  104f0f:	83 c4 10             	add    esp,0x10
  104f12:	83 45 f0 01          	add    DWORD PTR [ebp-0x10],0x1
  104f16:	83 7d f0 0f          	cmp    DWORD PTR [ebp-0x10],0xf
  104f1a:	7e c3                	jle    104edf <switch_ctx+0x1e8>
  104f1c:	83 ec 08             	sub    esp,0x8
  104f1f:	ff 75 f4             	push   DWORD PTR [ebp-0xc]
  104f22:	6a 2a                	push   0x2a
  104f24:	e8 dd bd ff ff       	call   100d06 <vga_statchar>
  104f29:	83 c4 10             	add    esp,0x10
  104f2c:	8b 45 f4             	mov    eax,DWORD PTR [ebp-0xc]
  104f2f:	8b 04 85 80 ed 13 00 	mov    eax,DWORD PTR [eax*4+0x13ed80]
  104f36:	0f b6 40 10          	movzx  eax,BYTE PTR [eax+0x10]
  104f3a:	0f b6 c0             	movzx  eax,al
  104f3d:	83 c0 30             	add    eax,0x30
  104f40:	83 ec 08             	sub    esp,0x8
  104f43:	6a 23                	push   0x23
  104f45:	50                   	push   eax
  104f46:	e8 bb bd ff ff       	call   100d06 <vga_statchar>
  104f4b:	83 c4 10             	add    esp,0x10
  104f4e:	8b 45 f4             	mov    eax,DWORD PTR [ebp-0xc]
  104f51:	8b 04 85 80 ed 13 00 	mov    eax,DWORD PTR [eax*4+0x13ed80]
  104f58:	8b 40 08             	mov    eax,DWORD PTR [eax+0x8]
  104f5b:	83 ec 04             	sub    esp,0x4
  104f5e:	6a 44                	push   0x44
  104f60:	50                   	push   eax
  104f61:	ff 75 08             	push   DWORD PTR [ebp+0x8]
  104f64:	e8 15 04 00 00       	call   10537e <memcpy>
  104f69:	83 c4 10             	add    esp,0x10
  104f6c:	8b 45 f4             	mov    eax,DWORD PTR [ebp-0xc]
  104f6f:	8b 1c 85 80 ed 13 00 	mov    ebx,DWORD PTR [eax*4+0x13ed80]
  104f76:	83 ec 0c             	sub    esp,0xc
  104f79:	ff 75 08             	push   DWORD PTR [ebp+0x8]
  104f7c:	e8 17 fd ff ff       	call   104c98 <calc_regs_cksum>
  104f81:	83 c4 10             	add    esp,0x10
  104f84:	89 43 0c             	mov    DWORD PTR [ebx+0xc],eax
  104f87:	83 ec 08             	sub    esp,0x8
  104f8a:	6a 03                	push   0x3
  104f8c:	6a 04                	push   0x4
  104f8e:	e8 b0 18 00 00       	call   106843 <_log>
  104f93:	83 c4 10             	add    esp,0x10
  104f96:	85 c0                	test   eax,eax
  104f98:	74 1d                	je     104fb7 <switch_ctx+0x2c0>
  104f9a:	8b 45 08             	mov    eax,DWORD PTR [ebp+0x8]
  104f9d:	8b 50 30             	mov    edx,DWORD PTR [eax+0x30]
  104fa0:	a1 80 ed 17 00       	mov    eax,ds:0x17ed80
  104fa5:	83 ec 04             	sub    esp,0x4
  104fa8:	52                   	push   edx
  104fa9:	50                   	push   eax
  104faa:	68 18 9b 10 00       	push   0x109b18
  104faf:	e8 22 c6 ff ff       	call   1015d6 <printf>
  104fb4:	83 c4 10             	add    esp,0x10
  104fb7:	8b 45 f4             	mov    eax,DWORD PTR [ebp-0xc]
  104fba:	8b 04 85 80 ed 13 00 	mov    eax,DWORD PTR [eax*4+0x13ed80]
  104fc1:	8b 40 24             	mov    eax,DWORD PTR [eax+0x24]
  104fc4:	83 ec 0c             	sub    esp,0xc
  104fc7:	50                   	push   eax
  104fc8:	e8 41 ec ff ff       	call   103c0e <set_kernel_stack>
  104fcd:	83 c4 10             	add    esp,0x10
  104fd0:	8b 45 f4             	mov    eax,DWORD PTR [ebp-0xc]
  104fd3:	a3 80 ed 17 00       	mov    ds:0x17ed80,eax
  104fd8:	c7 05 d0 f8 17 00 02 	mov    DWORD PTR ds:0x17f8d0,0x2
  104fdf:	00 00 00 
  104fe2:	8b 5d fc             	mov    ebx,DWORD PTR [ebp-0x4]
  104fe5:	c9                   	leave  
  104fe6:	c3                   	ret    

00104fe7 <free_ptab>:
  104fe7:	55                   	push   ebp
  104fe8:	89 e5                	mov    ebp,esp
  104fea:	83 ec 08             	sub    esp,0x8
  104fed:	8b 45 08             	mov    eax,DWORD PTR [ebp+0x8]
  104ff0:	8b 00                	mov    eax,DWORD PTR [eax]
  104ff2:	85 c0                	test   eax,eax
  104ff4:	74 11                	je     105007 <free_ptab+0x20>
  104ff6:	8b 45 08             	mov    eax,DWORD PTR [ebp+0x8]
  104ff9:	8b 00                	mov    eax,DWORD PTR [eax]
  104ffb:	83 ec 0c             	sub    esp,0xc
  104ffe:	50                   	push   eax
  104fff:	e8 e3 ff ff ff       	call   104fe7 <free_ptab>
  105004:	83 c4 10             	add    esp,0x10
  105007:	8b 45 08             	mov    eax,DWORD PTR [ebp+0x8]
  10500a:	8b 40 08             	mov    eax,DWORD PTR [eax+0x8]
  10500d:	83 ec 0c             	sub    esp,0xc
  105010:	50                   	push   eax
  105011:	e8 fe db ff ff       	call   102c14 <free>
  105016:	83 c4 10             	add    esp,0x10
  105019:	83 ec 0c             	sub    esp,0xc
  10501c:	ff 75 08             	push   DWORD PTR [ebp+0x8]
  10501f:	e8 f0 db ff ff       	call   102c14 <free>
  105024:	83 c4 10             	add    esp,0x10
  105027:	c9                   	leave  
  105028:	c3                   	ret    

00105029 <proc_exit>:
  105029:	55                   	push   ebp
  10502a:	89 e5                	mov    ebp,esp
  10502c:	83 ec 08             	sub    esp,0x8
  10502f:	83 ec 08             	sub    esp,0x8
  105032:	6a 02                	push   0x2
  105034:	6a 04                	push   0x4
  105036:	e8 08 18 00 00       	call   106843 <_log>
  10503b:	83 c4 10             	add    esp,0x10
  10503e:	85 c0                	test   eax,eax
  105040:	74 16                	je     105058 <proc_exit+0x2f>
  105042:	a1 80 ed 17 00       	mov    eax,ds:0x17ed80
  105047:	83 ec 08             	sub    esp,0x8
  10504a:	50                   	push   eax
  10504b:	68 3d 9b 10 00       	push   0x109b3d
  105050:	e8 81 c5 ff ff       	call   1015d6 <printf>
  105055:	83 c4 10             	add    esp,0x10
  105058:	a1 80 ed 17 00       	mov    eax,ds:0x17ed80
  10505d:	0f b7 c0             	movzx  eax,ax
  105060:	83 ec 08             	sub    esp,0x8
  105063:	68 00 01 00 00       	push   0x100
  105068:	50                   	push   eax
  105069:	e8 39 01 00 00       	call   1051a7 <clear_wait>
  10506e:	83 c4 10             	add    esp,0x10
  105071:	a1 80 ed 17 00       	mov    eax,ds:0x17ed80
  105076:	8b 04 85 80 ed 13 00 	mov    eax,DWORD PTR [eax*4+0x13ed80]
  10507d:	8b 40 20             	mov    eax,DWORD PTR [eax+0x20]
  105080:	83 ec 0c             	sub    esp,0xc
  105083:	50                   	push   eax
  105084:	e8 8b db ff ff       	call   102c14 <free>
  105089:	83 c4 10             	add    esp,0x10
  10508c:	a1 80 ed 17 00       	mov    eax,ds:0x17ed80
  105091:	8b 04 85 80 ed 13 00 	mov    eax,DWORD PTR [eax*4+0x13ed80]
  105098:	8b 00                	mov    eax,DWORD PTR [eax]
  10509a:	83 ec 0c             	sub    esp,0xc
  10509d:	50                   	push   eax
  10509e:	e8 44 ff ff ff       	call   104fe7 <free_ptab>
  1050a3:	83 c4 10             	add    esp,0x10
  1050a6:	83 ec 08             	sub    esp,0x8
  1050a9:	6a 03                	push   0x3
  1050ab:	6a 04                	push   0x4
  1050ad:	e8 91 17 00 00       	call   106843 <_log>
  1050b2:	83 c4 10             	add    esp,0x10
  1050b5:	85 c0                	test   eax,eax
  1050b7:	74 10                	je     1050c9 <proc_exit+0xa0>
  1050b9:	83 ec 0c             	sub    esp,0xc
  1050bc:	68 54 9b 10 00       	push   0x109b54
  1050c1:	e8 10 c5 ff ff       	call   1015d6 <printf>
  1050c6:	83 c4 10             	add    esp,0x10
  1050c9:	a1 80 ed 17 00       	mov    eax,ds:0x17ed80
  1050ce:	8b 04 85 80 ed 13 00 	mov    eax,DWORD PTR [eax*4+0x13ed80]
  1050d5:	8b 40 08             	mov    eax,DWORD PTR [eax+0x8]
  1050d8:	83 ec 0c             	sub    esp,0xc
  1050db:	50                   	push   eax
  1050dc:	e8 33 db ff ff       	call   102c14 <free>
  1050e1:	83 c4 10             	add    esp,0x10
  1050e4:	83 ec 08             	sub    esp,0x8
  1050e7:	6a 03                	push   0x3
  1050e9:	6a 04                	push   0x4
  1050eb:	e8 53 17 00 00       	call   106843 <_log>
  1050f0:	83 c4 10             	add    esp,0x10
  1050f3:	85 c0                	test   eax,eax
  1050f5:	74 10                	je     105107 <proc_exit+0xde>
  1050f7:	83 ec 0c             	sub    esp,0xc
  1050fa:	68 66 9b 10 00       	push   0x109b66
  1050ff:	e8 d2 c4 ff ff       	call   1015d6 <printf>
  105104:	83 c4 10             	add    esp,0x10
  105107:	a1 80 ed 17 00       	mov    eax,ds:0x17ed80
  10510c:	8b 04 85 80 ed 13 00 	mov    eax,DWORD PTR [eax*4+0x13ed80]
  105113:	8b 40 24             	mov    eax,DWORD PTR [eax+0x24]
  105116:	83 ec 0c             	sub    esp,0xc
  105119:	50                   	push   eax
  10511a:	e8 f5 da ff ff       	call   102c14 <free>
  10511f:	83 c4 10             	add    esp,0x10
  105122:	a1 80 ed 17 00       	mov    eax,ds:0x17ed80
  105127:	8b 04 85 80 ed 13 00 	mov    eax,DWORD PTR [eax*4+0x13ed80]
  10512e:	83 ec 0c             	sub    esp,0xc
  105131:	50                   	push   eax
  105132:	e8 dd da ff ff       	call   102c14 <free>
  105137:	83 c4 10             	add    esp,0x10
  10513a:	a1 80 ed 17 00       	mov    eax,ds:0x17ed80
  10513f:	c7 04 85 80 ed 13 00 	mov    DWORD PTR [eax*4+0x13ed80],0x0
  105146:	00 00 00 00 
  10514a:	83 ec 08             	sub    esp,0x8
  10514d:	6a 02                	push   0x2
  10514f:	6a 04                	push   0x4
  105151:	e8 ed 16 00 00       	call   106843 <_log>
  105156:	83 c4 10             	add    esp,0x10
  105159:	85 c0                	test   eax,eax
  10515b:	74 10                	je     10516d <proc_exit+0x144>
  10515d:	83 ec 0c             	sub    esp,0xc
  105160:	68 72 9b 10 00       	push   0x109b72
  105165:	e8 6c c4 ff ff       	call   1015d6 <printf>
  10516a:	83 c4 10             	add    esp,0x10
  10516d:	83 ec 0c             	sub    esp,0xc
  105170:	ff 75 08             	push   DWORD PTR [ebp+0x8]
  105173:	e8 7f fb ff ff       	call   104cf7 <switch_ctx>
  105178:	83 c4 10             	add    esp,0x10
  10517b:	c9                   	leave  
  10517c:	c3                   	ret    

0010517d <set_foreground>:
  10517d:	55                   	push   ebp
  10517e:	89 e5                	mov    ebp,esp
  105180:	83 ec 04             	sub    esp,0x4
  105183:	8b 45 08             	mov    eax,DWORD PTR [ebp+0x8]
  105186:	66 89 45 fc          	mov    WORD PTR [ebp-0x4],ax
  10518a:	0f b7 45 fc          	movzx  eax,WORD PTR [ebp-0x4]
  10518e:	66 a3 40 ed 13 00    	mov    ds:0x13ed40,ax
  105194:	c9                   	leave  
  105195:	c3                   	ret    

00105196 <get_foreground>:
  105196:	55                   	push   ebp
  105197:	89 e5                	mov    ebp,esp
  105199:	0f b7 05 40 ed 13 00 	movzx  eax,WORD PTR ds:0x13ed40
  1051a0:	5d                   	pop    ebp
  1051a1:	c3                   	ret    

001051a2 <signal_foreground>:
  1051a2:	55                   	push   ebp
  1051a3:	89 e5                	mov    ebp,esp
  1051a5:	5d                   	pop    ebp
  1051a6:	c3                   	ret    

001051a7 <clear_wait>:
  1051a7:	55                   	push   ebp
  1051a8:	89 e5                	mov    ebp,esp
  1051aa:	83 ec 18             	sub    esp,0x18
  1051ad:	8b 55 08             	mov    edx,DWORD PTR [ebp+0x8]
  1051b0:	8b 45 0c             	mov    eax,DWORD PTR [ebp+0xc]
  1051b3:	66 89 55 f4          	mov    WORD PTR [ebp-0xc],dx
  1051b7:	66 89 45 f0          	mov    WORD PTR [ebp-0x10],ax
  1051bb:	0f b7 45 f4          	movzx  eax,WORD PTR [ebp-0xc]
  1051bf:	8b 04 85 80 ed 13 00 	mov    eax,DWORD PTR [eax*4+0x13ed80]
  1051c6:	0f b7 40 18          	movzx  eax,WORD PTR [eax+0x18]
  1051ca:	0f b7 c0             	movzx  eax,ax
  1051cd:	8b 04 85 80 ed 13 00 	mov    eax,DWORD PTR [eax*4+0x13ed80]
  1051d4:	85 c0                	test   eax,eax
  1051d6:	75 2d                	jne    105205 <clear_wait+0x5e>
  1051d8:	83 ec 08             	sub    esp,0x8
  1051db:	6a 02                	push   0x2
  1051dd:	6a 04                	push   0x4
  1051df:	e8 5f 16 00 00       	call   106843 <_log>
  1051e4:	83 c4 10             	add    esp,0x10
  1051e7:	85 c0                	test   eax,eax
  1051e9:	74 15                	je     105200 <clear_wait+0x59>
  1051eb:	0f b7 45 f4          	movzx  eax,WORD PTR [ebp-0xc]
  1051ef:	83 ec 08             	sub    esp,0x8
  1051f2:	50                   	push   eax
  1051f3:	68 78 9b 10 00       	push   0x109b78
  1051f8:	e8 d9 c3 ff ff       	call   1015d6 <printf>
  1051fd:	83 c4 10             	add    esp,0x10
  105200:	e9 4a 01 00 00       	jmp    10534f <clear_wait+0x1a8>
  105205:	0f b7 45 f4          	movzx  eax,WORD PTR [ebp-0xc]
  105209:	8b 04 85 80 ed 13 00 	mov    eax,DWORD PTR [eax*4+0x13ed80]
  105210:	0f b7 40 18          	movzx  eax,WORD PTR [eax+0x18]
  105214:	0f b7 c0             	movzx  eax,ax
  105217:	8b 04 85 80 ed 13 00 	mov    eax,DWORD PTR [eax*4+0x13ed80]
  10521e:	66 c7 40 12 00 00    	mov    WORD PTR [eax+0x12],0x0
  105224:	0f b7 45 f4          	movzx  eax,WORD PTR [ebp-0xc]
  105228:	8b 04 85 80 ed 13 00 	mov    eax,DWORD PTR [eax*4+0x13ed80]
  10522f:	0f b7 40 18          	movzx  eax,WORD PTR [eax+0x18]
  105233:	0f b7 c0             	movzx  eax,ax
  105236:	8b 04 85 80 ed 13 00 	mov    eax,DWORD PTR [eax*4+0x13ed80]
  10523d:	66 c7 40 14 00 00    	mov    WORD PTR [eax+0x14],0x0
  105243:	0f b7 45 f4          	movzx  eax,WORD PTR [ebp-0xc]
  105247:	8b 04 85 80 ed 13 00 	mov    eax,DWORD PTR [eax*4+0x13ed80]
  10524e:	0f b7 40 18          	movzx  eax,WORD PTR [eax+0x18]
  105252:	0f b7 c0             	movzx  eax,ax
  105255:	8b 04 85 80 ed 13 00 	mov    eax,DWORD PTR [eax*4+0x13ed80]
  10525c:	0f b6 40 10          	movzx  eax,BYTE PTR [eax+0x10]
  105260:	0f b6 c0             	movzx  eax,al
  105263:	83 e0 02             	and    eax,0x2
  105266:	85 c0                	test   eax,eax
  105268:	74 2e                	je     105298 <clear_wait+0xf1>
  10526a:	0f b7 45 f4          	movzx  eax,WORD PTR [ebp-0xc]
  10526e:	8b 04 85 80 ed 13 00 	mov    eax,DWORD PTR [eax*4+0x13ed80]
  105275:	0f b7 40 18          	movzx  eax,WORD PTR [eax+0x18]
  105279:	0f b7 c0             	movzx  eax,ax
  10527c:	8b 04 85 80 ed 13 00 	mov    eax,DWORD PTR [eax*4+0x13ed80]
  105283:	8b 40 08             	mov    eax,DWORD PTR [eax+0x8]
  105286:	0f b7 55 f0          	movzx  edx,WORD PTR [ebp-0x10]
  10528a:	89 d1                	mov    ecx,edx
  10528c:	c1 e1 10             	shl    ecx,0x10
  10528f:	0f b7 55 f4          	movzx  edx,WORD PTR [ebp-0xc]
  105293:	09 ca                	or     edx,ecx
  105295:	89 50 20             	mov    DWORD PTR [eax+0x20],edx
  105298:	0f b7 45 f4          	movzx  eax,WORD PTR [ebp-0xc]
  10529c:	8b 04 85 80 ed 13 00 	mov    eax,DWORD PTR [eax*4+0x13ed80]
  1052a3:	0f b7 40 18          	movzx  eax,WORD PTR [eax+0x18]
  1052a7:	0f b7 c0             	movzx  eax,ax
  1052aa:	8b 04 85 80 ed 13 00 	mov    eax,DWORD PTR [eax*4+0x13ed80]
  1052b1:	0f b7 50 16          	movzx  edx,WORD PTR [eax+0x16]
  1052b5:	83 c2 01             	add    edx,0x1
  1052b8:	66 89 50 16          	mov    WORD PTR [eax+0x16],dx
  1052bc:	83 ec 08             	sub    esp,0x8
  1052bf:	6a 02                	push   0x2
  1052c1:	6a 04                	push   0x4
  1052c3:	e8 7b 15 00 00       	call   106843 <_log>
  1052c8:	83 c4 10             	add    esp,0x10
  1052cb:	85 c0                	test   eax,eax
  1052cd:	74 44                	je     105313 <clear_wait+0x16c>
  1052cf:	0f b7 45 f4          	movzx  eax,WORD PTR [ebp-0xc]
  1052d3:	8b 04 85 80 ed 13 00 	mov    eax,DWORD PTR [eax*4+0x13ed80]
  1052da:	0f b7 40 18          	movzx  eax,WORD PTR [eax+0x18]
  1052de:	0f b7 c0             	movzx  eax,ax
  1052e1:	8b 04 85 80 ed 13 00 	mov    eax,DWORD PTR [eax*4+0x13ed80]
  1052e8:	0f b7 40 16          	movzx  eax,WORD PTR [eax+0x16]
  1052ec:	0f b7 d0             	movzx  edx,ax
  1052ef:	0f b7 45 f4          	movzx  eax,WORD PTR [ebp-0xc]
  1052f3:	8b 04 85 80 ed 13 00 	mov    eax,DWORD PTR [eax*4+0x13ed80]
  1052fa:	0f b7 40 18          	movzx  eax,WORD PTR [eax+0x18]
  1052fe:	0f b7 c0             	movzx  eax,ax
  105301:	83 ec 04             	sub    esp,0x4
  105304:	52                   	push   edx
  105305:	50                   	push   eax
  105306:	68 99 9b 10 00       	push   0x109b99
  10530b:	e8 c6 c2 ff ff       	call   1015d6 <printf>
  105310:	83 c4 10             	add    esp,0x10
  105313:	0f b7 45 f4          	movzx  eax,WORD PTR [ebp-0xc]
  105317:	8b 04 85 80 ed 13 00 	mov    eax,DWORD PTR [eax*4+0x13ed80]
  10531e:	0f b7 40 18          	movzx  eax,WORD PTR [eax+0x18]
  105322:	0f b7 c0             	movzx  eax,ax
  105325:	8b 04 85 80 ed 13 00 	mov    eax,DWORD PTR [eax*4+0x13ed80]
  10532c:	0f b7 55 f4          	movzx  edx,WORD PTR [ebp-0xc]
  105330:	8b 14 95 80 ed 13 00 	mov    edx,DWORD PTR [edx*4+0x13ed80]
  105337:	0f b7 52 18          	movzx  edx,WORD PTR [edx+0x18]
  10533b:	0f b7 d2             	movzx  edx,dx
  10533e:	8b 14 95 80 ed 13 00 	mov    edx,DWORD PTR [edx*4+0x13ed80]
  105345:	0f b6 52 10          	movzx  edx,BYTE PTR [edx+0x10]
  105349:	83 e2 fd             	and    edx,0xfffffffd
  10534c:	88 50 10             	mov    BYTE PTR [eax+0x10],dl
  10534f:	c9                   	leave  
  105350:	c3                   	ret    

00105351 <memset>:
  105351:	55                   	push   ebp
  105352:	89 e5                	mov    ebp,esp
  105354:	83 ec 10             	sub    esp,0x10
  105357:	c7 45 fc 00 00 00 00 	mov    DWORD PTR [ebp-0x4],0x0
  10535e:	eb 11                	jmp    105371 <memset+0x20>
  105360:	8b 55 08             	mov    edx,DWORD PTR [ebp+0x8]
  105363:	8b 45 fc             	mov    eax,DWORD PTR [ebp-0x4]
  105366:	01 d0                	add    eax,edx
  105368:	8b 55 0c             	mov    edx,DWORD PTR [ebp+0xc]
  10536b:	88 10                	mov    BYTE PTR [eax],dl
  10536d:	83 45 fc 01          	add    DWORD PTR [ebp-0x4],0x1
  105371:	8b 45 fc             	mov    eax,DWORD PTR [ebp-0x4]
  105374:	3b 45 10             	cmp    eax,DWORD PTR [ebp+0x10]
  105377:	72 e7                	jb     105360 <memset+0xf>
  105379:	8b 45 08             	mov    eax,DWORD PTR [ebp+0x8]
  10537c:	c9                   	leave  
  10537d:	c3                   	ret    

0010537e <memcpy>:
  10537e:	55                   	push   ebp
  10537f:	89 e5                	mov    ebp,esp
  105381:	83 ec 10             	sub    esp,0x10
  105384:	c7 45 fc 00 00 00 00 	mov    DWORD PTR [ebp-0x4],0x0
  10538b:	eb 19                	jmp    1053a6 <memcpy+0x28>
  10538d:	8b 55 08             	mov    edx,DWORD PTR [ebp+0x8]
  105390:	8b 45 fc             	mov    eax,DWORD PTR [ebp-0x4]
  105393:	01 c2                	add    edx,eax
  105395:	8b 4d 0c             	mov    ecx,DWORD PTR [ebp+0xc]
  105398:	8b 45 fc             	mov    eax,DWORD PTR [ebp-0x4]
  10539b:	01 c8                	add    eax,ecx
  10539d:	0f b6 00             	movzx  eax,BYTE PTR [eax]
  1053a0:	88 02                	mov    BYTE PTR [edx],al
  1053a2:	83 45 fc 01          	add    DWORD PTR [ebp-0x4],0x1
  1053a6:	8b 45 fc             	mov    eax,DWORD PTR [ebp-0x4]
  1053a9:	3b 45 10             	cmp    eax,DWORD PTR [ebp+0x10]
  1053ac:	72 df                	jb     10538d <memcpy+0xf>
  1053ae:	8b 45 08             	mov    eax,DWORD PTR [ebp+0x8]
  1053b1:	c9                   	leave  
  1053b2:	c3                   	ret    

001053b3 <strlen>:
  1053b3:	55                   	push   ebp
  1053b4:	89 e5                	mov    ebp,esp
  1053b6:	83 ec 10             	sub    esp,0x10
  1053b9:	c7 45 fc 00 00 00 00 	mov    DWORD PTR [ebp-0x4],0x0
  1053c0:	eb 04                	jmp    1053c6 <strlen+0x13>
  1053c2:	83 45 fc 01          	add    DWORD PTR [ebp-0x4],0x1
  1053c6:	8b 45 08             	mov    eax,DWORD PTR [ebp+0x8]
  1053c9:	8d 50 01             	lea    edx,[eax+0x1]
  1053cc:	89 55 08             	mov    DWORD PTR [ebp+0x8],edx
  1053cf:	0f b6 00             	movzx  eax,BYTE PTR [eax]
  1053d2:	84 c0                	test   al,al
  1053d4:	75 ec                	jne    1053c2 <strlen+0xf>
  1053d6:	8b 45 fc             	mov    eax,DWORD PTR [ebp-0x4]
  1053d9:	c9                   	leave  
  1053da:	c3                   	ret    

001053db <streq>:
  1053db:	55                   	push   ebp
  1053dc:	89 e5                	mov    ebp,esp
  1053de:	83 ec 10             	sub    esp,0x10
  1053e1:	ff 75 08             	push   DWORD PTR [ebp+0x8]
  1053e4:	e8 ca ff ff ff       	call   1053b3 <strlen>
  1053e9:	83 c4 04             	add    esp,0x4
  1053ec:	89 45 f8             	mov    DWORD PTR [ebp-0x8],eax
  1053ef:	ff 75 0c             	push   DWORD PTR [ebp+0xc]
  1053f2:	e8 bc ff ff ff       	call   1053b3 <strlen>
  1053f7:	83 c4 04             	add    esp,0x4
  1053fa:	89 45 f4             	mov    DWORD PTR [ebp-0xc],eax
  1053fd:	8b 45 f8             	mov    eax,DWORD PTR [ebp-0x8]
  105400:	3b 45 f4             	cmp    eax,DWORD PTR [ebp-0xc]
  105403:	74 07                	je     10540c <streq+0x31>
  105405:	b8 00 00 00 00       	mov    eax,0x0
  10540a:	eb 3b                	jmp    105447 <streq+0x6c>
  10540c:	c7 45 fc 00 00 00 00 	mov    DWORD PTR [ebp-0x4],0x0
  105413:	eb 25                	jmp    10543a <streq+0x5f>
  105415:	8b 55 fc             	mov    edx,DWORD PTR [ebp-0x4]
  105418:	8b 45 08             	mov    eax,DWORD PTR [ebp+0x8]
  10541b:	01 d0                	add    eax,edx
  10541d:	0f b6 10             	movzx  edx,BYTE PTR [eax]
  105420:	8b 4d fc             	mov    ecx,DWORD PTR [ebp-0x4]
  105423:	8b 45 0c             	mov    eax,DWORD PTR [ebp+0xc]
  105426:	01 c8                	add    eax,ecx
  105428:	0f b6 00             	movzx  eax,BYTE PTR [eax]
  10542b:	38 c2                	cmp    dl,al
  10542d:	74 07                	je     105436 <streq+0x5b>
  10542f:	b8 00 00 00 00       	mov    eax,0x0
  105434:	eb 11                	jmp    105447 <streq+0x6c>
  105436:	83 45 fc 01          	add    DWORD PTR [ebp-0x4],0x1
  10543a:	8b 45 fc             	mov    eax,DWORD PTR [ebp-0x4]
  10543d:	3b 45 f8             	cmp    eax,DWORD PTR [ebp-0x8]
  105440:	7c d3                	jl     105415 <streq+0x3a>
  105442:	b8 01 00 00 00       	mov    eax,0x1
  105447:	c9                   	leave  
  105448:	c3                   	ret    

00105449 <read_superblock>:
  105449:	55                   	push   ebp
  10544a:	89 e5                	mov    ebp,esp
  10544c:	83 ec 08             	sub    esp,0x8
  10544f:	83 ec 04             	sub    esp,0x4
  105452:	68 00 04 00 00       	push   0x400
  105457:	6a 00                	push   0x0
  105459:	ff 75 08             	push   DWORD PTR [ebp+0x8]
  10545c:	e8 f0 fe ff ff       	call   105351 <memset>
  105461:	83 c4 10             	add    esp,0x10
  105464:	83 ec 08             	sub    esp,0x8
  105467:	ff 75 08             	push   DWORD PTR [ebp+0x8]
  10546a:	6a 02                	push   0x2
  10546c:	e8 d6 0b 00 00       	call   106047 <read_sector>
  105471:	83 c4 10             	add    esp,0x10
  105474:	8b 45 08             	mov    eax,DWORD PTR [ebp+0x8]
  105477:	8b 40 18             	mov    eax,DWORD PTR [eax+0x18]
  10547a:	ba 00 04 00 00       	mov    edx,0x400
  10547f:	89 c1                	mov    ecx,eax
  105481:	d3 e2                	shl    edx,cl
  105483:	89 d0                	mov    eax,edx
  105485:	89 c2                	mov    edx,eax
  105487:	8b 45 08             	mov    eax,DWORD PTR [ebp+0x8]
  10548a:	89 50 18             	mov    DWORD PTR [eax+0x18],edx
  10548d:	c9                   	leave  
  10548e:	c3                   	ret    

0010548f <read_block_group>:
  10548f:	55                   	push   ebp
  105490:	89 e5                	mov    ebp,esp
  105492:	81 ec 18 02 00 00    	sub    esp,0x218
  105498:	83 ec 04             	sub    esp,0x4
  10549b:	6a 20                	push   0x20
  10549d:	6a 00                	push   0x0
  10549f:	ff 75 0c             	push   DWORD PTR [ebp+0xc]
  1054a2:	e8 aa fe ff ff       	call   105351 <memset>
  1054a7:	83 c4 10             	add    esp,0x10
  1054aa:	8b 45 10             	mov    eax,DWORD PTR [ebp+0x10]
  1054ad:	8b 55 08             	mov    edx,DWORD PTR [ebp+0x8]
  1054b0:	8b 52 18             	mov    edx,DWORD PTR [edx+0x18]
  1054b3:	89 d1                	mov    ecx,edx
  1054b5:	c1 e9 05             	shr    ecx,0x5
  1054b8:	ba 00 00 00 00       	mov    edx,0x0
  1054bd:	f7 f1                	div    ecx
  1054bf:	89 45 f4             	mov    DWORD PTR [ebp-0xc],eax
  1054c2:	8b 45 10             	mov    eax,DWORD PTR [ebp+0x10]
  1054c5:	99                   	cdq    
  1054c6:	c1 ea 1b             	shr    edx,0x1b
  1054c9:	01 d0                	add    eax,edx
  1054cb:	83 e0 1f             	and    eax,0x1f
  1054ce:	29 d0                	sub    eax,edx
  1054d0:	89 45 f0             	mov    DWORD PTR [ebp-0x10],eax
  1054d3:	8b 45 f4             	mov    eax,DWORD PTR [ebp-0xc]
  1054d6:	83 c0 02             	add    eax,0x2
  1054d9:	01 c0                	add    eax,eax
  1054db:	89 45 ec             	mov    DWORD PTR [ebp-0x14],eax
  1054de:	8b 45 ec             	mov    eax,DWORD PTR [ebp-0x14]
  1054e1:	83 ec 08             	sub    esp,0x8
  1054e4:	8d 95 ec fd ff ff    	lea    edx,[ebp-0x214]
  1054ea:	52                   	push   edx
  1054eb:	50                   	push   eax
  1054ec:	e8 56 0b 00 00       	call   106047 <read_sector>
  1054f1:	83 c4 10             	add    esp,0x10
  1054f4:	8b 45 f0             	mov    eax,DWORD PTR [ebp-0x10]
  1054f7:	c1 e0 05             	shl    eax,0x5
  1054fa:	89 c2                	mov    edx,eax
  1054fc:	8d 85 ec fd ff ff    	lea    eax,[ebp-0x214]
  105502:	01 d0                	add    eax,edx
  105504:	83 ec 04             	sub    esp,0x4
  105507:	6a 20                	push   0x20
  105509:	50                   	push   eax
  10550a:	ff 75 0c             	push   DWORD PTR [ebp+0xc]
  10550d:	e8 6c fe ff ff       	call   10537e <memcpy>
  105512:	83 c4 10             	add    esp,0x10
  105515:	c9                   	leave  
  105516:	c3                   	ret    

00105517 <read_inode>:
  105517:	55                   	push   ebp
  105518:	89 e5                	mov    ebp,esp
  10551a:	53                   	push   ebx
  10551b:	81 ec 44 02 00 00    	sub    esp,0x244
  105521:	8b 45 10             	mov    eax,DWORD PTR [ebp+0x10]
  105524:	83 e8 01             	sub    eax,0x1
  105527:	89 c1                	mov    ecx,eax
  105529:	8b 45 08             	mov    eax,DWORD PTR [ebp+0x8]
  10552c:	8b 58 28             	mov    ebx,DWORD PTR [eax+0x28]
  10552f:	89 c8                	mov    eax,ecx
  105531:	ba 00 00 00 00       	mov    edx,0x0
  105536:	f7 f3                	div    ebx
  105538:	89 45 f4             	mov    DWORD PTR [ebp-0xc],eax
  10553b:	8b 45 10             	mov    eax,DWORD PTR [ebp+0x10]
  10553e:	83 e8 01             	sub    eax,0x1
  105541:	89 c2                	mov    edx,eax
  105543:	8b 45 08             	mov    eax,DWORD PTR [ebp+0x8]
  105546:	8b 48 28             	mov    ecx,DWORD PTR [eax+0x28]
  105549:	89 d0                	mov    eax,edx
  10554b:	ba 00 00 00 00       	mov    edx,0x0
  105550:	f7 f1                	div    ecx
  105552:	89 d0                	mov    eax,edx
  105554:	89 45 f0             	mov    DWORD PTR [ebp-0x10],eax
  105557:	83 ec 04             	sub    esp,0x4
  10555a:	ff 75 f4             	push   DWORD PTR [ebp-0xc]
  10555d:	8d 45 c4             	lea    eax,[ebp-0x3c]
  105560:	50                   	push   eax
  105561:	ff 75 08             	push   DWORD PTR [ebp+0x8]
  105564:	e8 26 ff ff ff       	call   10548f <read_block_group>
  105569:	83 c4 10             	add    esp,0x10
  10556c:	8b 45 f0             	mov    eax,DWORD PTR [ebp-0x10]
  10556f:	c1 e0 07             	shl    eax,0x7
  105572:	89 45 ec             	mov    DWORD PTR [ebp-0x14],eax
  105575:	83 ec 08             	sub    esp,0x8
  105578:	6a 02                	push   0x2
  10557a:	6a 06                	push   0x6
  10557c:	e8 c2 12 00 00       	call   106843 <_log>
  105581:	83 c4 10             	add    esp,0x10
  105584:	85 c0                	test   eax,eax
  105586:	74 2a                	je     1055b2 <read_inode+0x9b>
  105588:	8b 45 f0             	mov    eax,DWORD PTR [ebp-0x10]
  10558b:	c1 e0 07             	shl    eax,0x7
  10558e:	c1 e8 0a             	shr    eax,0xa
  105591:	89 c2                	mov    edx,eax
  105593:	8b 45 cc             	mov    eax,DWORD PTR [ebp-0x34]
  105596:	01 d0                	add    eax,edx
  105598:	83 ec 0c             	sub    esp,0xc
  10559b:	ff 75 ec             	push   DWORD PTR [ebp-0x14]
  10559e:	50                   	push   eax
  10559f:	ff 75 f4             	push   DWORD PTR [ebp-0xc]
  1055a2:	ff 75 10             	push   DWORD PTR [ebp+0x10]
  1055a5:	68 b4 9b 10 00       	push   0x109bb4
  1055aa:	e8 27 c0 ff ff       	call   1015d6 <printf>
  1055af:	83 c4 20             	add    esp,0x20
  1055b2:	8b 45 ec             	mov    eax,DWORD PTR [ebp-0x14]
  1055b5:	99                   	cdq    
  1055b6:	c1 ea 17             	shr    edx,0x17
  1055b9:	01 d0                	add    eax,edx
  1055bb:	25 ff 01 00 00       	and    eax,0x1ff
  1055c0:	29 d0                	sub    eax,edx
  1055c2:	89 45 e8             	mov    DWORD PTR [ebp-0x18],eax
  1055c5:	8b 45 cc             	mov    eax,DWORD PTR [ebp-0x34]
  1055c8:	8d 0c 00             	lea    ecx,[eax+eax*1]
  1055cb:	8b 45 ec             	mov    eax,DWORD PTR [ebp-0x14]
  1055ce:	8d 90 ff 01 00 00    	lea    edx,[eax+0x1ff]
  1055d4:	85 c0                	test   eax,eax
  1055d6:	0f 48 c2             	cmovs  eax,edx
  1055d9:	c1 f8 09             	sar    eax,0x9
  1055dc:	01 c8                	add    eax,ecx
  1055de:	89 45 e4             	mov    DWORD PTR [ebp-0x1c],eax
  1055e1:	8b 45 e4             	mov    eax,DWORD PTR [ebp-0x1c]
  1055e4:	83 ec 08             	sub    esp,0x8
  1055e7:	8d 95 c4 fd ff ff    	lea    edx,[ebp-0x23c]
  1055ed:	52                   	push   edx
  1055ee:	50                   	push   eax
  1055ef:	e8 53 0a 00 00       	call   106047 <read_sector>
  1055f4:	83 c4 10             	add    esp,0x10
  1055f7:	8b 45 e8             	mov    eax,DWORD PTR [ebp-0x18]
  1055fa:	8d 95 c4 fd ff ff    	lea    edx,[ebp-0x23c]
  105600:	01 d0                	add    eax,edx
  105602:	83 ec 04             	sub    esp,0x4
  105605:	68 80 00 00 00       	push   0x80
  10560a:	50                   	push   eax
  10560b:	ff 75 0c             	push   DWORD PTR [ebp+0xc]
  10560e:	e8 6b fd ff ff       	call   10537e <memcpy>
  105613:	83 c4 10             	add    esp,0x10
  105616:	8b 5d fc             	mov    ebx,DWORD PTR [ebp-0x4]
  105619:	c9                   	leave  
  10561a:	c3                   	ret    

0010561b <get_block>:
  10561b:	55                   	push   ebp
  10561c:	89 e5                	mov    ebp,esp
  10561e:	83 ec 18             	sub    esp,0x18
  105621:	83 7d 0c 0b          	cmp    DWORD PTR [ebp+0xc],0xb
  105625:	7f 15                	jg     10563c <get_block+0x21>
  105627:	8b 45 08             	mov    eax,DWORD PTR [ebp+0x8]
  10562a:	8b 55 0c             	mov    edx,DWORD PTR [ebp+0xc]
  10562d:	83 c2 08             	add    edx,0x8
  105630:	8b 44 90 08          	mov    eax,DWORD PTR [eax+edx*4+0x8]
  105634:	89 45 f4             	mov    DWORD PTR [ebp-0xc],eax
  105637:	e9 83 00 00 00       	jmp    1056bf <get_block+0xa4>
  10563c:	81 7d 0c 0b 01 00 00 	cmp    DWORD PTR [ebp+0xc],0x10b
  105643:	7f 57                	jg     10569c <get_block+0x81>
  105645:	8b 45 08             	mov    eax,DWORD PTR [ebp+0x8]
  105648:	8b 40 58             	mov    eax,DWORD PTR [eax+0x58]
  10564b:	01 c0                	add    eax,eax
  10564d:	83 ec 08             	sub    esp,0x8
  105650:	ff 75 10             	push   DWORD PTR [ebp+0x10]
  105653:	50                   	push   eax
  105654:	e8 ee 09 00 00       	call   106047 <read_sector>
  105659:	83 c4 10             	add    esp,0x10
  10565c:	8b 45 10             	mov    eax,DWORD PTR [ebp+0x10]
  10565f:	8d 90 00 02 00 00    	lea    edx,[eax+0x200]
  105665:	8b 45 08             	mov    eax,DWORD PTR [ebp+0x8]
  105668:	8b 40 58             	mov    eax,DWORD PTR [eax+0x58]
  10566b:	01 c0                	add    eax,eax
  10566d:	83 c0 01             	add    eax,0x1
  105670:	83 ec 08             	sub    esp,0x8
  105673:	52                   	push   edx
  105674:	50                   	push   eax
  105675:	e8 cd 09 00 00       	call   106047 <read_sector>
  10567a:	83 c4 10             	add    esp,0x10
  10567d:	8b 45 0c             	mov    eax,DWORD PTR [ebp+0xc]
  105680:	83 e8 0c             	sub    eax,0xc
  105683:	89 45 f0             	mov    DWORD PTR [ebp-0x10],eax
  105686:	8b 45 f0             	mov    eax,DWORD PTR [ebp-0x10]
  105689:	8d 14 85 00 00 00 00 	lea    edx,[eax*4+0x0]
  105690:	8b 45 10             	mov    eax,DWORD PTR [ebp+0x10]
  105693:	01 d0                	add    eax,edx
  105695:	8b 00                	mov    eax,DWORD PTR [eax]
  105697:	89 45 f4             	mov    DWORD PTR [ebp-0xc],eax
  10569a:	eb 23                	jmp    1056bf <get_block+0xa4>
  10569c:	83 ec 08             	sub    esp,0x8
  10569f:	6a 01                	push   0x1
  1056a1:	6a 00                	push   0x0
  1056a3:	e8 9b 11 00 00       	call   106843 <_log>
  1056a8:	83 c4 10             	add    esp,0x10
  1056ab:	85 c0                	test   eax,eax
  1056ad:	74 10                	je     1056bf <get_block+0xa4>
  1056af:	83 ec 0c             	sub    esp,0xc
  1056b2:	68 e0 9b 10 00       	push   0x109be0
  1056b7:	e8 1a bf ff ff       	call   1015d6 <printf>
  1056bc:	83 c4 10             	add    esp,0x10
  1056bf:	8b 45 f4             	mov    eax,DWORD PTR [ebp-0xc]
  1056c2:	01 c0                	add    eax,eax
  1056c4:	83 ec 08             	sub    esp,0x8
  1056c7:	ff 75 10             	push   DWORD PTR [ebp+0x10]
  1056ca:	50                   	push   eax
  1056cb:	e8 77 09 00 00       	call   106047 <read_sector>
  1056d0:	83 c4 10             	add    esp,0x10
  1056d3:	8b 45 10             	mov    eax,DWORD PTR [ebp+0x10]
  1056d6:	8d 90 00 02 00 00    	lea    edx,[eax+0x200]
  1056dc:	8b 45 f4             	mov    eax,DWORD PTR [ebp-0xc]
  1056df:	01 c0                	add    eax,eax
  1056e1:	83 c0 01             	add    eax,0x1
  1056e4:	83 ec 08             	sub    esp,0x8
  1056e7:	52                   	push   edx
  1056e8:	50                   	push   eax
  1056e9:	e8 59 09 00 00       	call   106047 <read_sector>
  1056ee:	83 c4 10             	add    esp,0x10
  1056f1:	c9                   	leave  
  1056f2:	c3                   	ret    

001056f3 <get_block_direct>:
  1056f3:	55                   	push   ebp
  1056f4:	89 e5                	mov    ebp,esp
  1056f6:	83 ec 08             	sub    esp,0x8
  1056f9:	8b 45 08             	mov    eax,DWORD PTR [ebp+0x8]
  1056fc:	01 c0                	add    eax,eax
  1056fe:	83 ec 08             	sub    esp,0x8
  105701:	ff 75 0c             	push   DWORD PTR [ebp+0xc]
  105704:	50                   	push   eax
  105705:	e8 3d 09 00 00       	call   106047 <read_sector>
  10570a:	83 c4 10             	add    esp,0x10
  10570d:	8b 45 0c             	mov    eax,DWORD PTR [ebp+0xc]
  105710:	05 00 02 00 00       	add    eax,0x200
  105715:	8b 55 08             	mov    edx,DWORD PTR [ebp+0x8]
  105718:	01 d2                	add    edx,edx
  10571a:	83 c2 01             	add    edx,0x1
  10571d:	83 ec 08             	sub    esp,0x8
  105720:	50                   	push   eax
  105721:	52                   	push   edx
  105722:	e8 20 09 00 00       	call   106047 <read_sector>
  105727:	83 c4 10             	add    esp,0x10
  10572a:	c9                   	leave  
  10572b:	c3                   	ret    

0010572c <allocate_bitmaps>:
  10572c:	55                   	push   ebp
  10572d:	89 e5                	mov    ebp,esp
  10572f:	83 ec 08             	sub    esp,0x8
  105732:	8b 45 08             	mov    eax,DWORD PTR [ebp+0x8]
  105735:	8b 40 20             	mov    eax,DWORD PTR [eax+0x20]
  105738:	c1 e8 03             	shr    eax,0x3
  10573b:	c1 e0 0a             	shl    eax,0xa
  10573e:	c1 e8 0a             	shr    eax,0xa
  105741:	83 ec 0c             	sub    esp,0xc
  105744:	50                   	push   eax
  105745:	e8 2f cf ff ff       	call   102679 <malloc>
  10574a:	83 c4 10             	add    esp,0x10
  10574d:	89 c2                	mov    edx,eax
  10574f:	8b 45 0c             	mov    eax,DWORD PTR [ebp+0xc]
  105752:	89 10                	mov    DWORD PTR [eax],edx
  105754:	8b 45 08             	mov    eax,DWORD PTR [ebp+0x8]
  105757:	8b 40 28             	mov    eax,DWORD PTR [eax+0x28]
  10575a:	c1 e8 03             	shr    eax,0x3
  10575d:	c1 e0 0a             	shl    eax,0xa
  105760:	c1 e8 0a             	shr    eax,0xa
  105763:	83 ec 0c             	sub    esp,0xc
  105766:	50                   	push   eax
  105767:	e8 0d cf ff ff       	call   102679 <malloc>
  10576c:	83 c4 10             	add    esp,0x10
  10576f:	89 c2                	mov    edx,eax
  105771:	8b 45 0c             	mov    eax,DWORD PTR [ebp+0xc]
  105774:	89 50 04             	mov    DWORD PTR [eax+0x4],edx
  105777:	c9                   	leave  
  105778:	c3                   	ret    

00105779 <free_bitmaps>:
  105779:	55                   	push   ebp
  10577a:	89 e5                	mov    ebp,esp
  10577c:	83 ec 08             	sub    esp,0x8
  10577f:	8b 45 08             	mov    eax,DWORD PTR [ebp+0x8]
  105782:	8b 00                	mov    eax,DWORD PTR [eax]
  105784:	83 ec 0c             	sub    esp,0xc
  105787:	50                   	push   eax
  105788:	e8 87 d4 ff ff       	call   102c14 <free>
  10578d:	83 c4 10             	add    esp,0x10
  105790:	8b 45 08             	mov    eax,DWORD PTR [ebp+0x8]
  105793:	8b 40 04             	mov    eax,DWORD PTR [eax+0x4]
  105796:	83 ec 0c             	sub    esp,0xc
  105799:	50                   	push   eax
  10579a:	e8 75 d4 ff ff       	call   102c14 <free>
  10579f:	83 c4 10             	add    esp,0x10
  1057a2:	c9                   	leave  
  1057a3:	c3                   	ret    

001057a4 <read_bitmaps>:
  1057a4:	55                   	push   ebp
  1057a5:	89 e5                	mov    ebp,esp
  1057a7:	83 ec 18             	sub    esp,0x18
  1057aa:	8b 45 08             	mov    eax,DWORD PTR [ebp+0x8]
  1057ad:	8b 40 20             	mov    eax,DWORD PTR [eax+0x20]
  1057b0:	c1 e8 03             	shr    eax,0x3
  1057b3:	c1 e0 0a             	shl    eax,0xa
  1057b6:	c1 e8 0a             	shr    eax,0xa
  1057b9:	89 45 f0             	mov    DWORD PTR [ebp-0x10],eax
  1057bc:	8b 45 08             	mov    eax,DWORD PTR [ebp+0x8]
  1057bf:	8b 40 28             	mov    eax,DWORD PTR [eax+0x28]
  1057c2:	c1 e8 03             	shr    eax,0x3
  1057c5:	c1 e0 0a             	shl    eax,0xa
  1057c8:	c1 e8 0a             	shr    eax,0xa
  1057cb:	89 45 ec             	mov    DWORD PTR [ebp-0x14],eax
  1057ce:	c7 45 f4 00 00 00 00 	mov    DWORD PTR [ebp-0xc],0x0
  1057d5:	eb 28                	jmp    1057ff <read_bitmaps+0x5b>
  1057d7:	8b 45 10             	mov    eax,DWORD PTR [ebp+0x10]
  1057da:	8b 00                	mov    eax,DWORD PTR [eax]
  1057dc:	8b 55 f4             	mov    edx,DWORD PTR [ebp-0xc]
  1057df:	c1 e2 0a             	shl    edx,0xa
  1057e2:	01 c2                	add    edx,eax
  1057e4:	8b 45 0c             	mov    eax,DWORD PTR [ebp+0xc]
  1057e7:	8b 08                	mov    ecx,DWORD PTR [eax]
  1057e9:	8b 45 f4             	mov    eax,DWORD PTR [ebp-0xc]
  1057ec:	01 c8                	add    eax,ecx
  1057ee:	83 ec 08             	sub    esp,0x8
  1057f1:	52                   	push   edx
  1057f2:	50                   	push   eax
  1057f3:	e8 fb fe ff ff       	call   1056f3 <get_block_direct>
  1057f8:	83 c4 10             	add    esp,0x10
  1057fb:	83 45 f4 01          	add    DWORD PTR [ebp-0xc],0x1
  1057ff:	8b 45 f4             	mov    eax,DWORD PTR [ebp-0xc]
  105802:	3b 45 f0             	cmp    eax,DWORD PTR [ebp-0x10]
  105805:	7c d0                	jl     1057d7 <read_bitmaps+0x33>
  105807:	c7 45 f4 00 00 00 00 	mov    DWORD PTR [ebp-0xc],0x0
  10580e:	eb 2a                	jmp    10583a <read_bitmaps+0x96>
  105810:	8b 45 10             	mov    eax,DWORD PTR [ebp+0x10]
  105813:	8b 40 04             	mov    eax,DWORD PTR [eax+0x4]
  105816:	8b 55 f4             	mov    edx,DWORD PTR [ebp-0xc]
  105819:	c1 e2 0a             	shl    edx,0xa
  10581c:	01 c2                	add    edx,eax
  10581e:	8b 45 0c             	mov    eax,DWORD PTR [ebp+0xc]
  105821:	8b 48 04             	mov    ecx,DWORD PTR [eax+0x4]
  105824:	8b 45 f4             	mov    eax,DWORD PTR [ebp-0xc]
  105827:	01 c8                	add    eax,ecx
  105829:	83 ec 08             	sub    esp,0x8
  10582c:	52                   	push   edx
  10582d:	50                   	push   eax
  10582e:	e8 c0 fe ff ff       	call   1056f3 <get_block_direct>
  105833:	83 c4 10             	add    esp,0x10
  105836:	83 45 f4 01          	add    DWORD PTR [ebp-0xc],0x1
  10583a:	8b 45 f4             	mov    eax,DWORD PTR [ebp-0xc]
  10583d:	3b 45 ec             	cmp    eax,DWORD PTR [ebp-0x14]
  105840:	7c ce                	jl     105810 <read_bitmaps+0x6c>
  105842:	c9                   	leave  
  105843:	c3                   	ret    

00105844 <get_bitmap>:
  105844:	55                   	push   ebp
  105845:	89 e5                	mov    ebp,esp
  105847:	53                   	push   ebx
  105848:	8b 45 0c             	mov    eax,DWORD PTR [ebp+0xc]
  10584b:	8d 50 07             	lea    edx,[eax+0x7]
  10584e:	85 c0                	test   eax,eax
  105850:	0f 48 c2             	cmovs  eax,edx
  105853:	c1 f8 03             	sar    eax,0x3
  105856:	89 c2                	mov    edx,eax
  105858:	8b 45 08             	mov    eax,DWORD PTR [ebp+0x8]
  10585b:	01 d0                	add    eax,edx
  10585d:	0f b6 00             	movzx  eax,BYTE PTR [eax]
  105860:	0f b6 d8             	movzx  ebx,al
  105863:	8b 45 0c             	mov    eax,DWORD PTR [ebp+0xc]
  105866:	99                   	cdq    
  105867:	c1 ea 1d             	shr    edx,0x1d
  10586a:	01 d0                	add    eax,edx
  10586c:	83 e0 07             	and    eax,0x7
  10586f:	29 d0                	sub    eax,edx
  105871:	89 c1                	mov    ecx,eax
  105873:	d3 fb                	sar    ebx,cl
  105875:	89 d8                	mov    eax,ebx
  105877:	83 e0 01             	and    eax,0x1
  10587a:	5b                   	pop    ebx
  10587b:	5d                   	pop    ebp
  10587c:	c3                   	ret    

0010587d <set_bitmap>:
  10587d:	55                   	push   ebp
  10587e:	89 e5                	mov    ebp,esp
  105880:	57                   	push   edi
  105881:	56                   	push   esi
  105882:	53                   	push   ebx
  105883:	8b 45 0c             	mov    eax,DWORD PTR [ebp+0xc]
  105886:	8d 50 07             	lea    edx,[eax+0x7]
  105889:	85 c0                	test   eax,eax
  10588b:	0f 48 c2             	cmovs  eax,edx
  10588e:	c1 f8 03             	sar    eax,0x3
  105891:	89 c1                	mov    ecx,eax
  105893:	8b 55 08             	mov    edx,DWORD PTR [ebp+0x8]
  105896:	8d 1c 11             	lea    ebx,[ecx+edx*1]
  105899:	89 c2                	mov    edx,eax
  10589b:	8b 45 08             	mov    eax,DWORD PTR [ebp+0x8]
  10589e:	01 d0                	add    eax,edx
  1058a0:	0f b6 00             	movzx  eax,BYTE PTR [eax]
  1058a3:	89 c6                	mov    esi,eax
  1058a5:	8b 45 0c             	mov    eax,DWORD PTR [ebp+0xc]
  1058a8:	99                   	cdq    
  1058a9:	c1 ea 1d             	shr    edx,0x1d
  1058ac:	01 d0                	add    eax,edx
  1058ae:	83 e0 07             	and    eax,0x7
  1058b1:	29 d0                	sub    eax,edx
  1058b3:	ba 01 00 00 00       	mov    edx,0x1
  1058b8:	89 c1                	mov    ecx,eax
  1058ba:	d3 e2                	shl    edx,cl
  1058bc:	89 d0                	mov    eax,edx
  1058be:	f7 d0                	not    eax
  1058c0:	21 f0                	and    eax,esi
  1058c2:	88 03                	mov    BYTE PTR [ebx],al
  1058c4:	8b 45 0c             	mov    eax,DWORD PTR [ebp+0xc]
  1058c7:	8d 50 07             	lea    edx,[eax+0x7]
  1058ca:	85 c0                	test   eax,eax
  1058cc:	0f 48 c2             	cmovs  eax,edx
  1058cf:	c1 f8 03             	sar    eax,0x3
  1058d2:	89 c1                	mov    ecx,eax
  1058d4:	8b 55 08             	mov    edx,DWORD PTR [ebp+0x8]
  1058d7:	8d 1c 11             	lea    ebx,[ecx+edx*1]
  1058da:	89 c2                	mov    edx,eax
  1058dc:	8b 45 08             	mov    eax,DWORD PTR [ebp+0x8]
  1058df:	01 d0                	add    eax,edx
  1058e1:	0f b6 00             	movzx  eax,BYTE PTR [eax]
  1058e4:	89 c7                	mov    edi,eax
  1058e6:	83 7d 10 00          	cmp    DWORD PTR [ebp+0x10],0x0
  1058ea:	0f 95 c0             	setne  al
  1058ed:	0f b6 f0             	movzx  esi,al
  1058f0:	8b 45 0c             	mov    eax,DWORD PTR [ebp+0xc]
  1058f3:	99                   	cdq    
  1058f4:	c1 ea 1d             	shr    edx,0x1d
  1058f7:	01 d0                	add    eax,edx
  1058f9:	83 e0 07             	and    eax,0x7
  1058fc:	29 d0                	sub    eax,edx
  1058fe:	89 c1                	mov    ecx,eax
  105900:	d3 e6                	shl    esi,cl
  105902:	89 f0                	mov    eax,esi
  105904:	09 f8                	or     eax,edi
  105906:	88 03                	mov    BYTE PTR [ebx],al
  105908:	5b                   	pop    ebx
  105909:	5e                   	pop    esi
  10590a:	5f                   	pop    edi
  10590b:	5d                   	pop    ebp
  10590c:	c3                   	ret    

0010590d <opendir>:
  10590d:	55                   	push   ebp
  10590e:	89 e5                	mov    ebp,esp
  105910:	83 ec 18             	sub    esp,0x18
  105913:	83 ec 0c             	sub    esp,0xc
  105916:	6a 10                	push   0x10
  105918:	e8 5c cd ff ff       	call   102679 <malloc>
  10591d:	83 c4 10             	add    esp,0x10
  105920:	89 45 f4             	mov    DWORD PTR [ebp-0xc],eax
  105923:	83 ec 0c             	sub    esp,0xc
  105926:	68 80 00 00 00       	push   0x80
  10592b:	e8 49 cd ff ff       	call   102679 <malloc>
  105930:	83 c4 10             	add    esp,0x10
  105933:	89 c2                	mov    edx,eax
  105935:	8b 45 f4             	mov    eax,DWORD PTR [ebp-0xc]
  105938:	89 50 08             	mov    DWORD PTR [eax+0x8],edx
  10593b:	8b 45 f4             	mov    eax,DWORD PTR [ebp-0xc]
  10593e:	c7 00 00 00 00 00    	mov    DWORD PTR [eax],0x0
  105944:	8b 45 f4             	mov    eax,DWORD PTR [ebp-0xc]
  105947:	c7 40 0c 00 00 00 00 	mov    DWORD PTR [eax+0xc],0x0
  10594e:	8b 45 08             	mov    eax,DWORD PTR [ebp+0x8]
  105951:	8b 40 04             	mov    eax,DWORD PTR [eax+0x4]
  105954:	ba ab aa aa aa       	mov    edx,0xaaaaaaab
  105959:	f7 e2                	mul    edx
  10595b:	c1 ea 03             	shr    edx,0x3
  10595e:	8b 45 f4             	mov    eax,DWORD PTR [ebp-0xc]
  105961:	89 50 04             	mov    DWORD PTR [eax+0x4],edx
  105964:	8b 45 f4             	mov    eax,DWORD PTR [ebp-0xc]
  105967:	8b 40 08             	mov    eax,DWORD PTR [eax+0x8]
  10596a:	83 ec 04             	sub    esp,0x4
  10596d:	68 80 00 00 00       	push   0x80
  105972:	ff 75 08             	push   DWORD PTR [ebp+0x8]
  105975:	50                   	push   eax
  105976:	e8 03 fa ff ff       	call   10537e <memcpy>
  10597b:	83 c4 10             	add    esp,0x10
  10597e:	8b 45 f4             	mov    eax,DWORD PTR [ebp-0xc]
  105981:	c9                   	leave  
  105982:	c3                   	ret    

00105983 <dirwalk>:
  105983:	55                   	push   ebp
  105984:	89 e5                	mov    ebp,esp
  105986:	81 ec 38 04 00 00    	sub    esp,0x438
  10598c:	8b 45 08             	mov    eax,DWORD PTR [ebp+0x8]
  10598f:	8b 40 0c             	mov    eax,DWORD PTR [eax+0xc]
  105992:	85 c0                	test   eax,eax
  105994:	74 27                	je     1059bd <dirwalk+0x3a>
  105996:	8b 45 08             	mov    eax,DWORD PTR [ebp+0x8]
  105999:	8b 40 0c             	mov    eax,DWORD PTR [eax+0xc]
  10599c:	8b 40 08             	mov    eax,DWORD PTR [eax+0x8]
  10599f:	83 ec 0c             	sub    esp,0xc
  1059a2:	50                   	push   eax
  1059a3:	e8 6c d2 ff ff       	call   102c14 <free>
  1059a8:	83 c4 10             	add    esp,0x10
  1059ab:	8b 45 08             	mov    eax,DWORD PTR [ebp+0x8]
  1059ae:	8b 40 0c             	mov    eax,DWORD PTR [eax+0xc]
  1059b1:	83 ec 0c             	sub    esp,0xc
  1059b4:	50                   	push   eax
  1059b5:	e8 5a d2 ff ff       	call   102c14 <free>
  1059ba:	83 c4 10             	add    esp,0x10
  1059bd:	c7 45 f0 00 00 00 00 	mov    DWORD PTR [ebp-0x10],0x0
  1059c4:	c7 45 ec 00 00 00 00 	mov    DWORD PTR [ebp-0x14],0x0
  1059cb:	c7 45 f4 00 00 00 00 	mov    DWORD PTR [ebp-0xc],0x0
  1059d2:	eb 76                	jmp    105a4a <dirwalk+0xc7>
  1059d4:	8b 55 f0             	mov    edx,DWORD PTR [ebp-0x10]
  1059d7:	8b 45 08             	mov    eax,DWORD PTR [ebp+0x8]
  1059da:	8b 40 08             	mov    eax,DWORD PTR [eax+0x8]
  1059dd:	83 ec 04             	sub    esp,0x4
  1059e0:	8d 8d cc fb ff ff    	lea    ecx,[ebp-0x434]
  1059e6:	51                   	push   ecx
  1059e7:	52                   	push   edx
  1059e8:	50                   	push   eax
  1059e9:	e8 2d fc ff ff       	call   10561b <get_block>
  1059ee:	83 c4 10             	add    esp,0x10
  1059f1:	8b 45 ec             	mov    eax,DWORD PTR [ebp-0x14]
  1059f4:	83 c0 04             	add    eax,0x4
  1059f7:	0f b6 84 05 cc fb ff 	movzx  eax,BYTE PTR [ebp+eax*1-0x434]
  1059fe:	ff 
  1059ff:	0f b6 c0             	movzx  eax,al
  105a02:	89 45 e8             	mov    DWORD PTR [ebp-0x18],eax
  105a05:	8b 45 ec             	mov    eax,DWORD PTR [ebp-0x14]
  105a08:	83 c0 05             	add    eax,0x5
  105a0b:	0f b6 84 05 cc fb ff 	movzx  eax,BYTE PTR [ebp+eax*1-0x434]
  105a12:	ff 
  105a13:	0f b6 c0             	movzx  eax,al
  105a16:	c1 e0 08             	shl    eax,0x8
  105a19:	01 45 e8             	add    DWORD PTR [ebp-0x18],eax
  105a1c:	83 7d e8 00          	cmp    DWORD PTR [ebp-0x18],0x0
  105a20:	75 0a                	jne    105a2c <dirwalk+0xa9>
  105a22:	b8 00 00 00 00       	mov    eax,0x0
  105a27:	e9 fd 00 00 00       	jmp    105b29 <dirwalk+0x1a6>
  105a2c:	8b 45 e8             	mov    eax,DWORD PTR [ebp-0x18]
  105a2f:	01 45 ec             	add    DWORD PTR [ebp-0x14],eax
  105a32:	81 7d ec 00 04 00 00 	cmp    DWORD PTR [ebp-0x14],0x400
  105a39:	76 0b                	jbe    105a46 <dirwalk+0xc3>
  105a3b:	c7 45 ec 00 00 00 00 	mov    DWORD PTR [ebp-0x14],0x0
  105a42:	83 45 f0 01          	add    DWORD PTR [ebp-0x10],0x1
  105a46:	83 45 f4 01          	add    DWORD PTR [ebp-0xc],0x1
  105a4a:	8b 45 08             	mov    eax,DWORD PTR [ebp+0x8]
  105a4d:	8b 00                	mov    eax,DWORD PTR [eax]
  105a4f:	3b 45 f4             	cmp    eax,DWORD PTR [ebp-0xc]
  105a52:	77 80                	ja     1059d4 <dirwalk+0x51>
  105a54:	8b 45 08             	mov    eax,DWORD PTR [ebp+0x8]
  105a57:	8b 40 08             	mov    eax,DWORD PTR [eax+0x8]
  105a5a:	8b 40 1c             	mov    eax,DWORD PTR [eax+0x1c]
  105a5d:	d1 e8                	shr    eax,1
  105a5f:	3b 45 f0             	cmp    eax,DWORD PTR [ebp-0x10]
  105a62:	73 0a                	jae    105a6e <dirwalk+0xeb>
  105a64:	b8 00 00 00 00       	mov    eax,0x0
  105a69:	e9 bb 00 00 00       	jmp    105b29 <dirwalk+0x1a6>
  105a6e:	83 ec 0c             	sub    esp,0xc
  105a71:	6a 0c                	push   0xc
  105a73:	e8 01 cc ff ff       	call   102679 <malloc>
  105a78:	83 c4 10             	add    esp,0x10
  105a7b:	89 45 e4             	mov    DWORD PTR [ebp-0x1c],eax
  105a7e:	8b 45 08             	mov    eax,DWORD PTR [ebp+0x8]
  105a81:	8b 00                	mov    eax,DWORD PTR [eax]
  105a83:	8d 50 01             	lea    edx,[eax+0x1]
  105a86:	8b 45 08             	mov    eax,DWORD PTR [ebp+0x8]
  105a89:	89 10                	mov    DWORD PTR [eax],edx
  105a8b:	8b 55 f0             	mov    edx,DWORD PTR [ebp-0x10]
  105a8e:	8b 45 08             	mov    eax,DWORD PTR [ebp+0x8]
  105a91:	8b 40 08             	mov    eax,DWORD PTR [eax+0x8]
  105a94:	83 ec 04             	sub    esp,0x4
  105a97:	8d 8d cc fb ff ff    	lea    ecx,[ebp-0x434]
  105a9d:	51                   	push   ecx
  105a9e:	52                   	push   edx
  105a9f:	50                   	push   eax
  105aa0:	e8 76 fb ff ff       	call   10561b <get_block>
  105aa5:	83 c4 10             	add    esp,0x10
  105aa8:	8d 95 cc fb ff ff    	lea    edx,[ebp-0x434]
  105aae:	8b 45 ec             	mov    eax,DWORD PTR [ebp-0x14]
  105ab1:	01 d0                	add    eax,edx
  105ab3:	83 ec 04             	sub    esp,0x4
  105ab6:	6a 08                	push   0x8
  105ab8:	50                   	push   eax
  105ab9:	ff 75 e4             	push   DWORD PTR [ebp-0x1c]
  105abc:	e8 bd f8 ff ff       	call   10537e <memcpy>
  105ac1:	83 c4 10             	add    esp,0x10
  105ac4:	8b 45 e4             	mov    eax,DWORD PTR [ebp-0x1c]
  105ac7:	0f b6 40 06          	movzx  eax,BYTE PTR [eax+0x6]
  105acb:	0f b6 c0             	movzx  eax,al
  105ace:	83 c0 01             	add    eax,0x1
  105ad1:	83 ec 0c             	sub    esp,0xc
  105ad4:	50                   	push   eax
  105ad5:	e8 9f cb ff ff       	call   102679 <malloc>
  105ada:	83 c4 10             	add    esp,0x10
  105add:	89 c2                	mov    edx,eax
  105adf:	8b 45 e4             	mov    eax,DWORD PTR [ebp-0x1c]
  105ae2:	89 50 08             	mov    DWORD PTR [eax+0x8],edx
  105ae5:	8b 45 e4             	mov    eax,DWORD PTR [ebp-0x1c]
  105ae8:	8b 50 08             	mov    edx,DWORD PTR [eax+0x8]
  105aeb:	8b 45 e4             	mov    eax,DWORD PTR [ebp-0x1c]
  105aee:	0f b6 40 06          	movzx  eax,BYTE PTR [eax+0x6]
  105af2:	0f b6 c0             	movzx  eax,al
  105af5:	01 d0                	add    eax,edx
  105af7:	c6 00 00             	mov    BYTE PTR [eax],0x0
  105afa:	8b 45 e4             	mov    eax,DWORD PTR [ebp-0x1c]
  105afd:	0f b6 40 06          	movzx  eax,BYTE PTR [eax+0x6]
  105b01:	0f b6 d0             	movzx  edx,al
  105b04:	8b 45 ec             	mov    eax,DWORD PTR [ebp-0x14]
  105b07:	8d 48 08             	lea    ecx,[eax+0x8]
  105b0a:	8d 85 cc fb ff ff    	lea    eax,[ebp-0x434]
  105b10:	01 c1                	add    ecx,eax
  105b12:	8b 45 e4             	mov    eax,DWORD PTR [ebp-0x1c]
  105b15:	8b 40 08             	mov    eax,DWORD PTR [eax+0x8]
  105b18:	83 ec 04             	sub    esp,0x4
  105b1b:	52                   	push   edx
  105b1c:	51                   	push   ecx
  105b1d:	50                   	push   eax
  105b1e:	e8 5b f8 ff ff       	call   10537e <memcpy>
  105b23:	83 c4 10             	add    esp,0x10
  105b26:	8b 45 e4             	mov    eax,DWORD PTR [ebp-0x1c]
  105b29:	c9                   	leave  
  105b2a:	c3                   	ret    

00105b2b <closedir>:
  105b2b:	55                   	push   ebp
  105b2c:	89 e5                	mov    ebp,esp
  105b2e:	83 ec 08             	sub    esp,0x8
  105b31:	8b 45 08             	mov    eax,DWORD PTR [ebp+0x8]
  105b34:	8b 40 0c             	mov    eax,DWORD PTR [eax+0xc]
  105b37:	85 c0                	test   eax,eax
  105b39:	74 27                	je     105b62 <closedir+0x37>
  105b3b:	8b 45 08             	mov    eax,DWORD PTR [ebp+0x8]
  105b3e:	8b 40 0c             	mov    eax,DWORD PTR [eax+0xc]
  105b41:	8b 40 08             	mov    eax,DWORD PTR [eax+0x8]
  105b44:	83 ec 0c             	sub    esp,0xc
  105b47:	50                   	push   eax
  105b48:	e8 c7 d0 ff ff       	call   102c14 <free>
  105b4d:	83 c4 10             	add    esp,0x10
  105b50:	8b 45 08             	mov    eax,DWORD PTR [ebp+0x8]
  105b53:	8b 40 0c             	mov    eax,DWORD PTR [eax+0xc]
  105b56:	83 ec 0c             	sub    esp,0xc
  105b59:	50                   	push   eax
  105b5a:	e8 b5 d0 ff ff       	call   102c14 <free>
  105b5f:	83 c4 10             	add    esp,0x10
  105b62:	8b 45 08             	mov    eax,DWORD PTR [ebp+0x8]
  105b65:	8b 40 08             	mov    eax,DWORD PTR [eax+0x8]
  105b68:	85 c0                	test   eax,eax
  105b6a:	74 12                	je     105b7e <closedir+0x53>
  105b6c:	8b 45 08             	mov    eax,DWORD PTR [ebp+0x8]
  105b6f:	8b 40 08             	mov    eax,DWORD PTR [eax+0x8]
  105b72:	83 ec 0c             	sub    esp,0xc
  105b75:	50                   	push   eax
  105b76:	e8 99 d0 ff ff       	call   102c14 <free>
  105b7b:	83 c4 10             	add    esp,0x10
  105b7e:	83 ec 0c             	sub    esp,0xc
  105b81:	ff 75 08             	push   DWORD PTR [ebp+0x8]
  105b84:	e8 8b d0 ff ff       	call   102c14 <free>
  105b89:	83 c4 10             	add    esp,0x10
  105b8c:	c9                   	leave  
  105b8d:	c3                   	ret    

00105b8e <parse_inode_type>:
  105b8e:	55                   	push   ebp
  105b8f:	89 e5                	mov    ebp,esp
  105b91:	83 ec 14             	sub    esp,0x14
  105b94:	8b 45 08             	mov    eax,DWORD PTR [ebp+0x8]
  105b97:	66 89 45 ec          	mov    WORD PTR [ebp-0x14],ax
  105b9b:	0f b7 45 ec          	movzx  eax,WORD PTR [ebp-0x14]
  105b9f:	25 00 10 00 00       	and    eax,0x1000
  105ba4:	85 c0                	test   eax,eax
  105ba6:	74 08                	je     105bb0 <parse_inode_type+0x22>
  105ba8:	8b 45 0c             	mov    eax,DWORD PTR [ebp+0xc]
  105bab:	c6 00 66             	mov    BYTE PTR [eax],0x66
  105bae:	eb 78                	jmp    105c28 <parse_inode_type+0x9a>
  105bb0:	0f b7 45 ec          	movzx  eax,WORD PTR [ebp-0x14]
  105bb4:	25 00 20 00 00       	and    eax,0x2000
  105bb9:	85 c0                	test   eax,eax
  105bbb:	74 08                	je     105bc5 <parse_inode_type+0x37>
  105bbd:	8b 45 0c             	mov    eax,DWORD PTR [ebp+0xc]
  105bc0:	c6 00 63             	mov    BYTE PTR [eax],0x63
  105bc3:	eb 63                	jmp    105c28 <parse_inode_type+0x9a>
  105bc5:	0f b7 45 ec          	movzx  eax,WORD PTR [ebp-0x14]
  105bc9:	25 00 40 00 00       	and    eax,0x4000
  105bce:	85 c0                	test   eax,eax
  105bd0:	74 08                	je     105bda <parse_inode_type+0x4c>
  105bd2:	8b 45 0c             	mov    eax,DWORD PTR [ebp+0xc]
  105bd5:	c6 00 64             	mov    BYTE PTR [eax],0x64
  105bd8:	eb 4e                	jmp    105c28 <parse_inode_type+0x9a>
  105bda:	0f b7 45 ec          	movzx  eax,WORD PTR [ebp-0x14]
  105bde:	25 00 60 00 00       	and    eax,0x6000
  105be3:	85 c0                	test   eax,eax
  105be5:	74 08                	je     105bef <parse_inode_type+0x61>
  105be7:	8b 45 0c             	mov    eax,DWORD PTR [ebp+0xc]
  105bea:	c6 00 62             	mov    BYTE PTR [eax],0x62
  105bed:	eb 39                	jmp    105c28 <parse_inode_type+0x9a>
  105bef:	0f b7 45 ec          	movzx  eax,WORD PTR [ebp-0x14]
  105bf3:	66 85 c0             	test   ax,ax
  105bf6:	79 08                	jns    105c00 <parse_inode_type+0x72>
  105bf8:	8b 45 0c             	mov    eax,DWORD PTR [ebp+0xc]
  105bfb:	c6 00 2d             	mov    BYTE PTR [eax],0x2d
  105bfe:	eb 28                	jmp    105c28 <parse_inode_type+0x9a>
  105c00:	0f b7 45 ec          	movzx  eax,WORD PTR [ebp-0x14]
  105c04:	25 00 a0 00 00       	and    eax,0xa000
  105c09:	85 c0                	test   eax,eax
  105c0b:	74 08                	je     105c15 <parse_inode_type+0x87>
  105c0d:	8b 45 0c             	mov    eax,DWORD PTR [ebp+0xc]
  105c10:	c6 00 6c             	mov    BYTE PTR [eax],0x6c
  105c13:	eb 13                	jmp    105c28 <parse_inode_type+0x9a>
  105c15:	0f b7 45 ec          	movzx  eax,WORD PTR [ebp-0x14]
  105c19:	25 00 c0 00 00       	and    eax,0xc000
  105c1e:	85 c0                	test   eax,eax
  105c20:	74 06                	je     105c28 <parse_inode_type+0x9a>
  105c22:	8b 45 0c             	mov    eax,DWORD PTR [ebp+0xc]
  105c25:	c6 00 73             	mov    BYTE PTR [eax],0x73
  105c28:	c7 45 fc 00 00 00 00 	mov    DWORD PTR [ebp-0x4],0x0
  105c2f:	eb 12                	jmp    105c43 <parse_inode_type+0xb5>
  105c31:	8b 45 fc             	mov    eax,DWORD PTR [ebp-0x4]
  105c34:	8d 50 01             	lea    edx,[eax+0x1]
  105c37:	8b 45 0c             	mov    eax,DWORD PTR [ebp+0xc]
  105c3a:	01 d0                	add    eax,edx
  105c3c:	c6 00 2d             	mov    BYTE PTR [eax],0x2d
  105c3f:	83 45 fc 01          	add    DWORD PTR [ebp-0x4],0x1
  105c43:	83 7d fc 08          	cmp    DWORD PTR [ebp-0x4],0x8
  105c47:	7e e8                	jle    105c31 <parse_inode_type+0xa3>
  105c49:	0f b7 45 ec          	movzx  eax,WORD PTR [ebp-0x14]
  105c4d:	25 00 01 00 00       	and    eax,0x100
  105c52:	85 c0                	test   eax,eax
  105c54:	74 09                	je     105c5f <parse_inode_type+0xd1>
  105c56:	8b 45 0c             	mov    eax,DWORD PTR [ebp+0xc]
  105c59:	83 c0 01             	add    eax,0x1
  105c5c:	c6 00 72             	mov    BYTE PTR [eax],0x72
  105c5f:	0f b7 45 ec          	movzx  eax,WORD PTR [ebp-0x14]
  105c63:	25 80 00 00 00       	and    eax,0x80
  105c68:	85 c0                	test   eax,eax
  105c6a:	74 09                	je     105c75 <parse_inode_type+0xe7>
  105c6c:	8b 45 0c             	mov    eax,DWORD PTR [ebp+0xc]
  105c6f:	83 c0 02             	add    eax,0x2
  105c72:	c6 00 77             	mov    BYTE PTR [eax],0x77
  105c75:	0f b7 45 ec          	movzx  eax,WORD PTR [ebp-0x14]
  105c79:	83 e0 40             	and    eax,0x40
  105c7c:	85 c0                	test   eax,eax
  105c7e:	74 09                	je     105c89 <parse_inode_type+0xfb>
  105c80:	8b 45 0c             	mov    eax,DWORD PTR [ebp+0xc]
  105c83:	83 c0 03             	add    eax,0x3
  105c86:	c6 00 78             	mov    BYTE PTR [eax],0x78
  105c89:	0f b7 45 ec          	movzx  eax,WORD PTR [ebp-0x14]
  105c8d:	83 e0 20             	and    eax,0x20
  105c90:	85 c0                	test   eax,eax
  105c92:	74 09                	je     105c9d <parse_inode_type+0x10f>
  105c94:	8b 45 0c             	mov    eax,DWORD PTR [ebp+0xc]
  105c97:	83 c0 04             	add    eax,0x4
  105c9a:	c6 00 72             	mov    BYTE PTR [eax],0x72
  105c9d:	0f b7 45 ec          	movzx  eax,WORD PTR [ebp-0x14]
  105ca1:	83 e0 10             	and    eax,0x10
  105ca4:	85 c0                	test   eax,eax
  105ca6:	74 09                	je     105cb1 <parse_inode_type+0x123>
  105ca8:	8b 45 0c             	mov    eax,DWORD PTR [ebp+0xc]
  105cab:	83 c0 05             	add    eax,0x5
  105cae:	c6 00 77             	mov    BYTE PTR [eax],0x77
  105cb1:	0f b7 45 ec          	movzx  eax,WORD PTR [ebp-0x14]
  105cb5:	83 e0 08             	and    eax,0x8
  105cb8:	85 c0                	test   eax,eax
  105cba:	74 09                	je     105cc5 <parse_inode_type+0x137>
  105cbc:	8b 45 0c             	mov    eax,DWORD PTR [ebp+0xc]
  105cbf:	83 c0 06             	add    eax,0x6
  105cc2:	c6 00 78             	mov    BYTE PTR [eax],0x78
  105cc5:	0f b7 45 ec          	movzx  eax,WORD PTR [ebp-0x14]
  105cc9:	83 e0 04             	and    eax,0x4
  105ccc:	85 c0                	test   eax,eax
  105cce:	74 09                	je     105cd9 <parse_inode_type+0x14b>
  105cd0:	8b 45 0c             	mov    eax,DWORD PTR [ebp+0xc]
  105cd3:	83 c0 07             	add    eax,0x7
  105cd6:	c6 00 72             	mov    BYTE PTR [eax],0x72
  105cd9:	0f b7 45 ec          	movzx  eax,WORD PTR [ebp-0x14]
  105cdd:	83 e0 02             	and    eax,0x2
  105ce0:	85 c0                	test   eax,eax
  105ce2:	74 09                	je     105ced <parse_inode_type+0x15f>
  105ce4:	8b 45 0c             	mov    eax,DWORD PTR [ebp+0xc]
  105ce7:	83 c0 08             	add    eax,0x8
  105cea:	c6 00 77             	mov    BYTE PTR [eax],0x77
  105ced:	0f b7 45 ec          	movzx  eax,WORD PTR [ebp-0x14]
  105cf1:	83 e0 01             	and    eax,0x1
  105cf4:	85 c0                	test   eax,eax
  105cf6:	74 09                	je     105d01 <parse_inode_type+0x173>
  105cf8:	8b 45 0c             	mov    eax,DWORD PTR [ebp+0xc]
  105cfb:	83 c0 09             	add    eax,0x9
  105cfe:	c6 00 78             	mov    BYTE PTR [eax],0x78
  105d01:	0f b7 45 ec          	movzx  eax,WORD PTR [ebp-0x14]
  105d05:	25 00 02 00 00       	and    eax,0x200
  105d0a:	85 c0                	test   eax,eax
  105d0c:	74 09                	je     105d17 <parse_inode_type+0x189>
  105d0e:	8b 45 0c             	mov    eax,DWORD PTR [ebp+0xc]
  105d11:	83 c0 0a             	add    eax,0xa
  105d14:	c6 00 73             	mov    BYTE PTR [eax],0x73
  105d17:	0f b7 45 ec          	movzx  eax,WORD PTR [ebp-0x14]
  105d1b:	25 00 04 00 00       	and    eax,0x400
  105d20:	85 c0                	test   eax,eax
  105d22:	74 09                	je     105d2d <parse_inode_type+0x19f>
  105d24:	8b 45 0c             	mov    eax,DWORD PTR [ebp+0xc]
  105d27:	83 c0 0a             	add    eax,0xa
  105d2a:	c6 00 47             	mov    BYTE PTR [eax],0x47
  105d2d:	0f b7 45 ec          	movzx  eax,WORD PTR [ebp-0x14]
  105d31:	25 00 08 00 00       	and    eax,0x800
  105d36:	85 c0                	test   eax,eax
  105d38:	74 09                	je     105d43 <parse_inode_type+0x1b5>
  105d3a:	8b 45 0c             	mov    eax,DWORD PTR [ebp+0xc]
  105d3d:	83 c0 0a             	add    eax,0xa
  105d40:	c6 00 55             	mov    BYTE PTR [eax],0x55
  105d43:	0f b7 45 ec          	movzx  eax,WORD PTR [ebp-0x14]
  105d47:	25 00 0c 00 00       	and    eax,0xc00
  105d4c:	85 c0                	test   eax,eax
  105d4e:	74 09                	je     105d59 <parse_inode_type+0x1cb>
  105d50:	8b 45 0c             	mov    eax,DWORD PTR [ebp+0xc]
  105d53:	83 c0 0a             	add    eax,0xa
  105d56:	c6 00 53             	mov    BYTE PTR [eax],0x53
  105d59:	c9                   	leave  
  105d5a:	c3                   	ret    

00105d5b <get_file_inode>:
  105d5b:	55                   	push   ebp
  105d5c:	89 e5                	mov    ebp,esp
  105d5e:	81 ec 98 00 00 00    	sub    esp,0x98
  105d64:	83 ec 04             	sub    esp,0x4
  105d67:	ff 75 0c             	push   DWORD PTR [ebp+0xc]
  105d6a:	8d 85 6c ff ff ff    	lea    eax,[ebp-0x94]
  105d70:	50                   	push   eax
  105d71:	ff 75 08             	push   DWORD PTR [ebp+0x8]
  105d74:	e8 9e f7 ff ff       	call   105517 <read_inode>
  105d79:	83 c4 10             	add    esp,0x10
  105d7c:	83 ec 0c             	sub    esp,0xc
  105d7f:	8d 85 6c ff ff ff    	lea    eax,[ebp-0x94]
  105d85:	50                   	push   eax
  105d86:	e8 82 fb ff ff       	call   10590d <opendir>
  105d8b:	83 c4 10             	add    esp,0x10
  105d8e:	89 45 f0             	mov    DWORD PTR [ebp-0x10],eax
  105d91:	eb 38                	jmp    105dcb <get_file_inode+0x70>
  105d93:	8b 45 ec             	mov    eax,DWORD PTR [ebp-0x14]
  105d96:	0f b6 40 06          	movzx  eax,BYTE PTR [eax+0x6]
  105d9a:	84 c0                	test   al,al
  105d9c:	74 1b                	je     105db9 <get_file_inode+0x5e>
  105d9e:	8b 45 ec             	mov    eax,DWORD PTR [ebp-0x14]
  105da1:	8b 40 08             	mov    eax,DWORD PTR [eax+0x8]
  105da4:	83 ec 08             	sub    esp,0x8
  105da7:	ff 75 10             	push   DWORD PTR [ebp+0x10]
  105daa:	50                   	push   eax
  105dab:	e8 2b f6 ff ff       	call   1053db <streq>
  105db0:	83 c4 10             	add    esp,0x10
  105db3:	85 c0                	test   eax,eax
  105db5:	74 02                	je     105db9 <get_file_inode+0x5e>
  105db7:	eb 29                	jmp    105de2 <get_file_inode+0x87>
  105db9:	8b 45 ec             	mov    eax,DWORD PTR [ebp-0x14]
  105dbc:	0f b6 40 06          	movzx  eax,BYTE PTR [eax+0x6]
  105dc0:	84 c0                	test   al,al
  105dc2:	75 07                	jne    105dcb <get_file_inode+0x70>
  105dc4:	b8 ff ff ff ff       	mov    eax,0xffffffff
  105dc9:	eb 3f                	jmp    105e0a <get_file_inode+0xaf>
  105dcb:	83 ec 0c             	sub    esp,0xc
  105dce:	ff 75 f0             	push   DWORD PTR [ebp-0x10]
  105dd1:	e8 ad fb ff ff       	call   105983 <dirwalk>
  105dd6:	83 c4 10             	add    esp,0x10
  105dd9:	89 45 ec             	mov    DWORD PTR [ebp-0x14],eax
  105ddc:	83 7d ec 00          	cmp    DWORD PTR [ebp-0x14],0x0
  105de0:	75 b1                	jne    105d93 <get_file_inode+0x38>
  105de2:	83 7d ec 00          	cmp    DWORD PTR [ebp-0x14],0x0
  105de6:	75 09                	jne    105df1 <get_file_inode+0x96>
  105de8:	c7 45 f4 ff ff ff ff 	mov    DWORD PTR [ebp-0xc],0xffffffff
  105def:	eb 08                	jmp    105df9 <get_file_inode+0x9e>
  105df1:	8b 45 ec             	mov    eax,DWORD PTR [ebp-0x14]
  105df4:	8b 00                	mov    eax,DWORD PTR [eax]
  105df6:	89 45 f4             	mov    DWORD PTR [ebp-0xc],eax
  105df9:	83 ec 0c             	sub    esp,0xc
  105dfc:	ff 75 f0             	push   DWORD PTR [ebp-0x10]
  105dff:	e8 27 fd ff ff       	call   105b2b <closedir>
  105e04:	83 c4 10             	add    esp,0x10
  105e07:	8b 45 f4             	mov    eax,DWORD PTR [ebp-0xc]
  105e0a:	c9                   	leave  
  105e0b:	c3                   	ret    

00105e0c <path_tokenize>:
  105e0c:	55                   	push   ebp
  105e0d:	89 e5                	mov    ebp,esp
  105e0f:	83 ec 10             	sub    esp,0x10
  105e12:	8b 45 08             	mov    eax,DWORD PTR [ebp+0x8]
  105e15:	0f b6 00             	movzx  eax,BYTE PTR [eax]
  105e18:	84 c0                	test   al,al
  105e1a:	75 07                	jne    105e23 <path_tokenize+0x17>
  105e1c:	b8 00 00 00 00       	mov    eax,0x0
  105e21:	eb 44                	jmp    105e67 <path_tokenize+0x5b>
  105e23:	eb 04                	jmp    105e29 <path_tokenize+0x1d>
  105e25:	83 45 08 01          	add    DWORD PTR [ebp+0x8],0x1
  105e29:	8b 45 08             	mov    eax,DWORD PTR [ebp+0x8]
  105e2c:	0f b6 00             	movzx  eax,BYTE PTR [eax]
  105e2f:	3c 2f                	cmp    al,0x2f
  105e31:	74 f2                	je     105e25 <path_tokenize+0x19>
  105e33:	8b 45 08             	mov    eax,DWORD PTR [ebp+0x8]
  105e36:	89 45 fc             	mov    DWORD PTR [ebp-0x4],eax
  105e39:	eb 04                	jmp    105e3f <path_tokenize+0x33>
  105e3b:	83 45 08 01          	add    DWORD PTR [ebp+0x8],0x1
  105e3f:	8b 45 08             	mov    eax,DWORD PTR [ebp+0x8]
  105e42:	0f b6 00             	movzx  eax,BYTE PTR [eax]
  105e45:	3c 2f                	cmp    al,0x2f
  105e47:	74 0a                	je     105e53 <path_tokenize+0x47>
  105e49:	8b 45 08             	mov    eax,DWORD PTR [ebp+0x8]
  105e4c:	0f b6 00             	movzx  eax,BYTE PTR [eax]
  105e4f:	84 c0                	test   al,al
  105e51:	75 e8                	jne    105e3b <path_tokenize+0x2f>
  105e53:	8b 45 08             	mov    eax,DWORD PTR [ebp+0x8]
  105e56:	c6 00 00             	mov    BYTE PTR [eax],0x0
  105e59:	8b 45 08             	mov    eax,DWORD PTR [ebp+0x8]
  105e5c:	8d 50 01             	lea    edx,[eax+0x1]
  105e5f:	8b 45 0c             	mov    eax,DWORD PTR [ebp+0xc]
  105e62:	89 10                	mov    DWORD PTR [eax],edx
  105e64:	8b 45 fc             	mov    eax,DWORD PTR [ebp-0x4]
  105e67:	c9                   	leave  
  105e68:	c3                   	ret    

00105e69 <list_directory>:
  105e69:	55                   	push   ebp
  105e6a:	89 e5                	mov    ebp,esp
  105e6c:	81 ec a8 00 00 00    	sub    esp,0xa8
  105e72:	83 ec 0c             	sub    esp,0xc
  105e75:	ff 75 0c             	push   DWORD PTR [ebp+0xc]
  105e78:	e8 90 fa ff ff       	call   10590d <opendir>
  105e7d:	83 c4 10             	add    esp,0x10
  105e80:	89 45 f4             	mov    DWORD PTR [ebp-0xc],eax
  105e83:	e9 9a 00 00 00       	jmp    105f22 <list_directory+0xb9>
  105e88:	8b 45 f0             	mov    eax,DWORD PTR [ebp-0x10]
  105e8b:	0f b6 40 06          	movzx  eax,BYTE PTR [eax+0x6]
  105e8f:	84 c0                	test   al,al
  105e91:	0f 84 8b 00 00 00    	je     105f22 <list_directory+0xb9>
  105e97:	8b 45 f0             	mov    eax,DWORD PTR [ebp-0x10]
  105e9a:	8b 50 08             	mov    edx,DWORD PTR [eax+0x8]
  105e9d:	8b 45 f0             	mov    eax,DWORD PTR [ebp-0x10]
  105ea0:	0f b6 40 06          	movzx  eax,BYTE PTR [eax+0x6]
  105ea4:	0f b6 c0             	movzx  eax,al
  105ea7:	01 d0                	add    eax,edx
  105ea9:	c6 00 00             	mov    BYTE PTR [eax],0x0
  105eac:	8b 45 f0             	mov    eax,DWORD PTR [ebp-0x10]
  105eaf:	8b 00                	mov    eax,DWORD PTR [eax]
  105eb1:	83 ec 04             	sub    esp,0x4
  105eb4:	50                   	push   eax
  105eb5:	8d 85 70 ff ff ff    	lea    eax,[ebp-0x90]
  105ebb:	50                   	push   eax
  105ebc:	ff 75 08             	push   DWORD PTR [ebp+0x8]
  105ebf:	e8 53 f6 ff ff       	call   105517 <read_inode>
  105ec4:	83 c4 10             	add    esp,0x10
  105ec7:	0f b7 85 70 ff ff ff 	movzx  eax,WORD PTR [ebp-0x90]
  105ece:	0f b7 c0             	movzx  eax,ax
  105ed1:	83 ec 08             	sub    esp,0x8
  105ed4:	8d 95 65 ff ff ff    	lea    edx,[ebp-0x9b]
  105eda:	52                   	push   edx
  105edb:	50                   	push   eax
  105edc:	e8 ad fc ff ff       	call   105b8e <parse_inode_type>
  105ee1:	83 c4 10             	add    esp,0x10
  105ee4:	83 ec 08             	sub    esp,0x8
  105ee7:	6a 02                	push   0x2
  105ee9:	6a 00                	push   0x0
  105eeb:	e8 53 09 00 00       	call   106843 <_log>
  105ef0:	83 c4 10             	add    esp,0x10
  105ef3:	85 c0                	test   eax,eax
  105ef5:	74 2b                	je     105f22 <list_directory+0xb9>
  105ef7:	8b 45 f0             	mov    eax,DWORD PTR [ebp-0x10]
  105efa:	8b 08                	mov    ecx,DWORD PTR [eax]
  105efc:	8b 95 74 ff ff ff    	mov    edx,DWORD PTR [ebp-0x8c]
  105f02:	8b 45 f0             	mov    eax,DWORD PTR [ebp-0x10]
  105f05:	8b 40 08             	mov    eax,DWORD PTR [eax+0x8]
  105f08:	83 ec 0c             	sub    esp,0xc
  105f0b:	51                   	push   ecx
  105f0c:	52                   	push   edx
  105f0d:	50                   	push   eax
  105f0e:	8d 85 65 ff ff ff    	lea    eax,[ebp-0x9b]
  105f14:	50                   	push   eax
  105f15:	68 09 9c 10 00       	push   0x109c09
  105f1a:	e8 b7 b6 ff ff       	call   1015d6 <printf>
  105f1f:	83 c4 20             	add    esp,0x20
  105f22:	83 ec 0c             	sub    esp,0xc
  105f25:	ff 75 f4             	push   DWORD PTR [ebp-0xc]
  105f28:	e8 56 fa ff ff       	call   105983 <dirwalk>
  105f2d:	83 c4 10             	add    esp,0x10
  105f30:	89 45 f0             	mov    DWORD PTR [ebp-0x10],eax
  105f33:	83 7d f0 00          	cmp    DWORD PTR [ebp-0x10],0x0
  105f37:	0f 85 4b ff ff ff    	jne    105e88 <list_directory+0x1f>
  105f3d:	83 ec 0c             	sub    esp,0xc
  105f40:	ff 75 f4             	push   DWORD PTR [ebp-0xc]
  105f43:	e8 e3 fb ff ff       	call   105b2b <closedir>
  105f48:	83 c4 10             	add    esp,0x10
  105f4b:	c9                   	leave  
  105f4c:	c3                   	ret    

00105f4d <get_path_inode>:
  105f4d:	55                   	push   ebp
  105f4e:	89 e5                	mov    ebp,esp
  105f50:	53                   	push   ebx
  105f51:	81 ec 94 00 00 00    	sub    esp,0x94
  105f57:	83 ec 0c             	sub    esp,0xc
  105f5a:	ff 75 0c             	push   DWORD PTR [ebp+0xc]
  105f5d:	e8 51 f4 ff ff       	call   1053b3 <strlen>
  105f62:	83 c4 10             	add    esp,0x10
  105f65:	83 c0 02             	add    eax,0x2
  105f68:	83 ec 0c             	sub    esp,0xc
  105f6b:	50                   	push   eax
  105f6c:	e8 08 c7 ff ff       	call   102679 <malloc>
  105f71:	83 c4 10             	add    esp,0x10
  105f74:	89 45 e8             	mov    DWORD PTR [ebp-0x18],eax
  105f77:	8b 45 e8             	mov    eax,DWORD PTR [ebp-0x18]
  105f7a:	89 45 f0             	mov    DWORD PTR [ebp-0x10],eax
  105f7d:	83 ec 0c             	sub    esp,0xc
  105f80:	ff 75 0c             	push   DWORD PTR [ebp+0xc]
  105f83:	e8 2b f4 ff ff       	call   1053b3 <strlen>
  105f88:	83 c4 10             	add    esp,0x10
  105f8b:	83 c0 02             	add    eax,0x2
  105f8e:	89 c2                	mov    edx,eax
  105f90:	8b 45 e8             	mov    eax,DWORD PTR [ebp-0x18]
  105f93:	83 ec 04             	sub    esp,0x4
  105f96:	52                   	push   edx
  105f97:	ff 75 0c             	push   DWORD PTR [ebp+0xc]
  105f9a:	50                   	push   eax
  105f9b:	e8 de f3 ff ff       	call   10537e <memcpy>
  105fa0:	83 c4 10             	add    esp,0x10
  105fa3:	8b 5d e8             	mov    ebx,DWORD PTR [ebp-0x18]
  105fa6:	83 ec 0c             	sub    esp,0xc
  105fa9:	ff 75 0c             	push   DWORD PTR [ebp+0xc]
  105fac:	e8 02 f4 ff ff       	call   1053b3 <strlen>
  105fb1:	83 c4 10             	add    esp,0x10
  105fb4:	83 c0 01             	add    eax,0x1
  105fb7:	01 d8                	add    eax,ebx
  105fb9:	c6 00 00             	mov    BYTE PTR [eax],0x0
  105fbc:	c7 45 f4 02 00 00 00 	mov    DWORD PTR [ebp-0xc],0x2
  105fc3:	eb 50                	jmp    106015 <get_path_inode+0xc8>
  105fc5:	83 ec 0c             	sub    esp,0xc
  105fc8:	ff 75 ec             	push   DWORD PTR [ebp-0x14]
  105fcb:	e8 e3 f3 ff ff       	call   1053b3 <strlen>
  105fd0:	83 c4 10             	add    esp,0x10
  105fd3:	85 c0                	test   eax,eax
  105fd5:	75 02                	jne    105fd9 <get_path_inode+0x8c>
  105fd7:	eb 58                	jmp    106031 <get_path_inode+0xe4>
  105fd9:	83 ec 04             	sub    esp,0x4
  105fdc:	ff 75 f4             	push   DWORD PTR [ebp-0xc]
  105fdf:	8d 85 68 ff ff ff    	lea    eax,[ebp-0x98]
  105fe5:	50                   	push   eax
  105fe6:	ff 75 08             	push   DWORD PTR [ebp+0x8]
  105fe9:	e8 29 f5 ff ff       	call   105517 <read_inode>
  105fee:	83 c4 10             	add    esp,0x10
  105ff1:	83 ec 04             	sub    esp,0x4
  105ff4:	ff 75 ec             	push   DWORD PTR [ebp-0x14]
  105ff7:	ff 75 f4             	push   DWORD PTR [ebp-0xc]
  105ffa:	ff 75 08             	push   DWORD PTR [ebp+0x8]
  105ffd:	e8 59 fd ff ff       	call   105d5b <get_file_inode>
  106002:	83 c4 10             	add    esp,0x10
  106005:	89 45 f4             	mov    DWORD PTR [ebp-0xc],eax
  106008:	83 7d f4 ff          	cmp    DWORD PTR [ebp-0xc],0xffffffff
  10600c:	75 07                	jne    106015 <get_path_inode+0xc8>
  10600e:	b8 ff ff ff ff       	mov    eax,0xffffffff
  106013:	eb 2d                	jmp    106042 <get_path_inode+0xf5>
  106015:	8b 45 e8             	mov    eax,DWORD PTR [ebp-0x18]
  106018:	83 ec 08             	sub    esp,0x8
  10601b:	8d 55 e8             	lea    edx,[ebp-0x18]
  10601e:	52                   	push   edx
  10601f:	50                   	push   eax
  106020:	e8 e7 fd ff ff       	call   105e0c <path_tokenize>
  106025:	83 c4 10             	add    esp,0x10
  106028:	89 45 ec             	mov    DWORD PTR [ebp-0x14],eax
  10602b:	83 7d ec 00          	cmp    DWORD PTR [ebp-0x14],0x0
  10602f:	75 94                	jne    105fc5 <get_path_inode+0x78>
  106031:	83 ec 0c             	sub    esp,0xc
  106034:	ff 75 f0             	push   DWORD PTR [ebp-0x10]
  106037:	e8 d8 cb ff ff       	call   102c14 <free>
  10603c:	83 c4 10             	add    esp,0x10
  10603f:	8b 45 f4             	mov    eax,DWORD PTR [ebp-0xc]
  106042:	8b 5d fc             	mov    ebx,DWORD PTR [ebp-0x4]
  106045:	c9                   	leave  
  106046:	c3                   	ret    

00106047 <read_sector>:
  106047:	55                   	push   ebp
  106048:	89 e5                	mov    ebp,esp
  10604a:	83 ec 18             	sub    esp,0x18
  10604d:	c6 05 03 84 00 00 10 	mov    BYTE PTR ds:0x8403,0x10
  106054:	c6 05 04 84 00 00 00 	mov    BYTE PTR ds:0x8404,0x0
  10605b:	66 c7 05 05 84 00 00 	mov    WORD PTR ds:0x8405,0x1
  106062:	01 00 
  106064:	b8 03 81 00 00       	mov    eax,0x8103
  106069:	66 a3 07 84 00 00    	mov    ds:0x8407,ax
  10606f:	66 c7 05 09 84 00 00 	mov    WORD PTR ds:0x8409,0x0
  106076:	00 00 
  106078:	8b 45 08             	mov    eax,DWORD PTR [ebp+0x8]
  10607b:	a3 0b 84 00 00       	mov    ds:0x840b,eax
  106080:	c7 05 0f 84 00 00 00 	mov    DWORD PTR ds:0x840f,0x0
  106087:	00 00 00 
  10608a:	66 c7 05 00 80 00 00 	mov    WORD PTR ds:0x8000,0x4200
  106091:	00 42 
  106093:	66 c7 05 06 80 00 00 	mov    WORD PTR ds:0x8006,0x81
  10609a:	81 00 
  10609c:	b8 03 84 00 00       	mov    eax,0x8403
  1060a1:	66 a3 08 80 00 00    	mov    ds:0x8008,ax
  1060a7:	66 c7 05 10 80 00 00 	mov    WORD PTR ds:0x8010,0x0
  1060ae:	00 00 
  1060b0:	83 ec 0c             	sub    esp,0xc
  1060b3:	6a 13                	push   0x13
  1060b5:	e8 9d c3 ff ff       	call   102457 <bios_intr>
  1060ba:	83 c4 10             	add    esp,0x10
  1060bd:	c7 45 f4 00 00 00 00 	mov    DWORD PTR [ebp-0xc],0x0
  1060c4:	eb 1a                	jmp    1060e0 <read_sector+0x99>
  1060c6:	8b 55 f4             	mov    edx,DWORD PTR [ebp-0xc]
  1060c9:	8b 45 0c             	mov    eax,DWORD PTR [ebp+0xc]
  1060cc:	01 d0                	add    eax,edx
  1060ce:	8b 55 f4             	mov    edx,DWORD PTR [ebp-0xc]
  1060d1:	81 c2 03 81 00 00    	add    edx,0x8103
  1060d7:	0f b6 12             	movzx  edx,BYTE PTR [edx]
  1060da:	88 10                	mov    BYTE PTR [eax],dl
  1060dc:	83 45 f4 01          	add    DWORD PTR [ebp-0xc],0x1
  1060e0:	81 7d f4 ff 01 00 00 	cmp    DWORD PTR [ebp-0xc],0x1ff
  1060e7:	7e dd                	jle    1060c6 <read_sector+0x7f>
  1060e9:	c9                   	leave  
  1060ea:	c3                   	ret    

001060eb <write_sector>:
  1060eb:	55                   	push   ebp
  1060ec:	89 e5                	mov    ebp,esp
  1060ee:	83 ec 18             	sub    esp,0x18
  1060f1:	c6 05 03 84 00 00 10 	mov    BYTE PTR ds:0x8403,0x10
  1060f8:	c6 05 04 84 00 00 00 	mov    BYTE PTR ds:0x8404,0x0
  1060ff:	66 c7 05 05 84 00 00 	mov    WORD PTR ds:0x8405,0x1
  106106:	01 00 
  106108:	b8 03 81 00 00       	mov    eax,0x8103
  10610d:	66 a3 07 84 00 00    	mov    ds:0x8407,ax
  106113:	66 c7 05 09 84 00 00 	mov    WORD PTR ds:0x8409,0x0
  10611a:	00 00 
  10611c:	8b 45 08             	mov    eax,DWORD PTR [ebp+0x8]
  10611f:	a3 0b 84 00 00       	mov    ds:0x840b,eax
  106124:	c7 05 0f 84 00 00 00 	mov    DWORD PTR ds:0x840f,0x0
  10612b:	00 00 00 
  10612e:	c7 45 f4 00 00 00 00 	mov    DWORD PTR [ebp-0xc],0x0
  106135:	eb 1b                	jmp    106152 <write_sector+0x67>
  106137:	8b 55 f4             	mov    edx,DWORD PTR [ebp-0xc]
  10613a:	8b 45 0c             	mov    eax,DWORD PTR [ebp+0xc]
  10613d:	01 d0                	add    eax,edx
  10613f:	0f b6 00             	movzx  eax,BYTE PTR [eax]
  106142:	89 c2                	mov    edx,eax
  106144:	8b 45 f4             	mov    eax,DWORD PTR [ebp-0xc]
  106147:	05 03 81 00 00       	add    eax,0x8103
  10614c:	88 10                	mov    BYTE PTR [eax],dl
  10614e:	83 45 f4 01          	add    DWORD PTR [ebp-0xc],0x1
  106152:	81 7d f4 ff 01 00 00 	cmp    DWORD PTR [ebp-0xc],0x1ff
  106159:	7e dc                	jle    106137 <write_sector+0x4c>
  10615b:	66 c7 05 00 80 00 00 	mov    WORD PTR ds:0x8000,0x4300
  106162:	00 43 
  106164:	66 c7 05 06 80 00 00 	mov    WORD PTR ds:0x8006,0x81
  10616b:	81 00 
  10616d:	b8 03 84 00 00       	mov    eax,0x8403
  106172:	66 a3 08 80 00 00    	mov    ds:0x8008,ax
  106178:	66 c7 05 10 80 00 00 	mov    WORD PTR ds:0x8010,0x0
  10617f:	00 00 
  106181:	83 ec 0c             	sub    esp,0xc
  106184:	6a 13                	push   0x13
  106186:	e8 cc c2 ff ff       	call   102457 <bios_intr>
  10618b:	83 c4 10             	add    esp,0x10
  10618e:	c9                   	leave  
  10618f:	c3                   	ret    

00106190 <setup_keyboard>:
  106190:	55                   	push   ebp
  106191:	89 e5                	mov    ebp,esp
  106193:	83 ec 08             	sub    esp,0x8
  106196:	83 ec 0c             	sub    esp,0xc
  106199:	6a 01                	push   0x1
  10619b:	e8 d1 03 00 00       	call   106571 <PIC_clear_line>
  1061a0:	83 c4 10             	add    esp,0x10
  1061a3:	83 ec 08             	sub    esp,0x8
  1061a6:	68 cc 61 10 00       	push   0x1061cc
  1061ab:	6a 01                	push   0x1
  1061ad:	e8 26 04 00 00       	call   1065d8 <register_irq_handler>
  1061b2:	83 c4 10             	add    esp,0x10
  1061b5:	83 ec 0c             	sub    esp,0xc
  1061b8:	68 00 04 00 00       	push   0x400
  1061bd:	e8 b7 c4 ff ff       	call   102679 <malloc>
  1061c2:	83 c4 10             	add    esp,0x10
  1061c5:	a3 88 ed 17 00       	mov    ds:0x17ed88,eax
  1061ca:	c9                   	leave  
  1061cb:	c3                   	ret    

001061cc <keyboard_intr>:
  1061cc:	55                   	push   ebp
  1061cd:	89 e5                	mov    ebp,esp
  1061cf:	83 ec 18             	sub    esp,0x18
  1061d2:	83 ec 0c             	sub    esp,0xc
  1061d5:	6a 60                	push   0x60
  1061d7:	e8 f0 a5 ff ff       	call   1007cc <inb>
  1061dc:	83 c4 10             	add    esp,0x10
  1061df:	88 45 f7             	mov    BYTE PTR [ebp-0x9],al
  1061e2:	0f b6 45 f7          	movzx  eax,BYTE PTR [ebp-0x9]
  1061e6:	84 c0                	test   al,al
  1061e8:	0f 88 bf 01 00 00    	js     1063ad <keyboard_intr+0x1e1>
  1061ee:	a1 d4 f8 17 00       	mov    eax,ds:0x17f8d4
  1061f3:	99                   	cdq    
  1061f4:	c1 ea 1f             	shr    edx,0x1f
  1061f7:	01 d0                	add    eax,edx
  1061f9:	83 e0 01             	and    eax,0x1
  1061fc:	29 d0                	sub    eax,edx
  1061fe:	89 c2                	mov    edx,eax
  106200:	0f b6 45 f7          	movzx  eax,BYTE PTR [ebp-0x9]
  106204:	c1 e2 07             	shl    edx,0x7
  106207:	01 d0                	add    eax,edx
  106209:	8b 04 85 c0 d7 10 00 	mov    eax,DWORD PTR [eax*4+0x10d7c0]
  106210:	3d ff 00 00 00       	cmp    eax,0xff
  106215:	76 38                	jbe    10624f <keyboard_intr+0x83>
  106217:	a1 d4 f8 17 00       	mov    eax,ds:0x17f8d4
  10621c:	99                   	cdq    
  10621d:	c1 ea 1f             	shr    edx,0x1f
  106220:	01 d0                	add    eax,edx
  106222:	83 e0 01             	and    eax,0x1
  106225:	29 d0                	sub    eax,edx
  106227:	89 c2                	mov    edx,eax
  106229:	0f b6 45 f7          	movzx  eax,BYTE PTR [ebp-0x9]
  10622d:	c1 e2 07             	shl    edx,0x7
  106230:	01 d0                	add    eax,edx
  106232:	8b 04 85 c0 d7 10 00 	mov    eax,DWORD PTR [eax*4+0x10d7c0]
  106239:	c1 e8 08             	shr    eax,0x8
  10623c:	89 c2                	mov    edx,eax
  10623e:	a1 d4 f8 17 00       	mov    eax,ds:0x17f8d4
  106243:	09 d0                	or     eax,edx
  106245:	a3 d4 f8 17 00       	mov    ds:0x17f8d4,eax
  10624a:	e9 c2 01 00 00       	jmp    106411 <keyboard_intr+0x245>
  10624f:	a1 d4 f8 17 00       	mov    eax,ds:0x17f8d4
  106254:	83 e0 04             	and    eax,0x4
  106257:	85 c0                	test   eax,eax
  106259:	0f 84 c4 00 00 00    	je     106323 <keyboard_intr+0x157>
  10625f:	a1 d4 f8 17 00       	mov    eax,ds:0x17f8d4
  106264:	99                   	cdq    
  106265:	c1 ea 1f             	shr    edx,0x1f
  106268:	01 d0                	add    eax,edx
  10626a:	83 e0 01             	and    eax,0x1
  10626d:	29 d0                	sub    eax,edx
  10626f:	89 c2                	mov    edx,eax
  106271:	0f b6 45 f7          	movzx  eax,BYTE PTR [ebp-0x9]
  106275:	c1 e2 07             	shl    edx,0x7
  106278:	01 d0                	add    eax,edx
  10627a:	8b 04 85 c0 d7 10 00 	mov    eax,DWORD PTR [eax*4+0x10d7c0]
  106281:	88 45 f6             	mov    BYTE PTR [ebp-0xa],al
  106284:	a1 d4 f8 17 00       	mov    eax,ds:0x17f8d4
  106289:	99                   	cdq    
  10628a:	c1 ea 1f             	shr    edx,0x1f
  10628d:	01 d0                	add    eax,edx
  10628f:	83 e0 01             	and    eax,0x1
  106292:	29 d0                	sub    eax,edx
  106294:	89 c2                	mov    edx,eax
  106296:	0f b6 45 f7          	movzx  eax,BYTE PTR [ebp-0x9]
  10629a:	c1 e2 07             	shl    edx,0x7
  10629d:	01 d0                	add    eax,edx
  10629f:	8b 04 85 c0 d7 10 00 	mov    eax,DWORD PTR [eax*4+0x10d7c0]
  1062a6:	83 ec 08             	sub    esp,0x8
  1062a9:	50                   	push   eax
  1062aa:	68 16 9c 10 00       	push   0x109c16
  1062af:	e8 22 b3 ff ff       	call   1015d6 <printf>
  1062b4:	83 c4 10             	add    esp,0x10
  1062b7:	80 7d f6 63          	cmp    BYTE PTR [ebp-0xa],0x63
  1062bb:	75 0f                	jne    1062cc <keyboard_intr+0x100>
  1062bd:	83 ec 0c             	sub    esp,0xc
  1062c0:	6a 09                	push   0x9
  1062c2:	e8 db ee ff ff       	call   1051a2 <signal_foreground>
  1062c7:	83 c4 10             	add    esp,0x10
  1062ca:	eb 52                	jmp    10631e <keyboard_intr+0x152>
  1062cc:	80 7d f6 64          	cmp    BYTE PTR [ebp-0xa],0x64
  1062d0:	75 34                	jne    106306 <keyboard_intr+0x13a>
  1062d2:	8b 0d 88 ed 17 00    	mov    ecx,DWORD PTR ds:0x17ed88
  1062d8:	a1 d8 f8 17 00       	mov    eax,ds:0x17f8d8
  1062dd:	8d 50 01             	lea    edx,[eax+0x1]
  1062e0:	89 15 d8 f8 17 00    	mov    DWORD PTR ds:0x17f8d8,edx
  1062e6:	01 c8                	add    eax,ecx
  1062e8:	c6 00 ff             	mov    BYTE PTR [eax],0xff
  1062eb:	a1 d8 f8 17 00       	mov    eax,ds:0x17f8d8
  1062f0:	3d 00 04 00 00       	cmp    eax,0x400
  1062f5:	7e 27                	jle    10631e <keyboard_intr+0x152>
  1062f7:	c7 05 d8 f8 17 00 00 	mov    DWORD PTR ds:0x17f8d8,0x0
  1062fe:	00 00 00 
  106301:	e9 0b 01 00 00       	jmp    106411 <keyboard_intr+0x245>
  106306:	80 7d f6 7a          	cmp    BYTE PTR [ebp-0xa],0x7a
  10630a:	75 12                	jne    10631e <keyboard_intr+0x152>
  10630c:	83 ec 0c             	sub    esp,0xc
  10630f:	6a 0e                	push   0xe
  106311:	e8 8c ee ff ff       	call   1051a2 <signal_foreground>
  106316:	83 c4 10             	add    esp,0x10
  106319:	e9 f3 00 00 00       	jmp    106411 <keyboard_intr+0x245>
  10631e:	e9 ee 00 00 00       	jmp    106411 <keyboard_intr+0x245>
  106323:	a1 d4 f8 17 00       	mov    eax,ds:0x17f8d4
  106328:	99                   	cdq    
  106329:	c1 ea 1f             	shr    edx,0x1f
  10632c:	01 d0                	add    eax,edx
  10632e:	83 e0 01             	and    eax,0x1
  106331:	29 d0                	sub    eax,edx
  106333:	89 c2                	mov    edx,eax
  106335:	0f b6 45 f7          	movzx  eax,BYTE PTR [ebp-0x9]
  106339:	c1 e2 07             	shl    edx,0x7
  10633c:	01 d0                	add    eax,edx
  10633e:	8b 04 85 c0 d7 10 00 	mov    eax,DWORD PTR [eax*4+0x10d7c0]
  106345:	83 ec 08             	sub    esp,0x8
  106348:	50                   	push   eax
  106349:	68 1a 9c 10 00       	push   0x109c1a
  10634e:	e8 83 b2 ff ff       	call   1015d6 <printf>
  106353:	83 c4 10             	add    esp,0x10
  106356:	e8 07 a8 ff ff       	call   100b62 <vga_redraw>
  10635b:	8b 0d 88 ed 17 00    	mov    ecx,DWORD PTR ds:0x17ed88
  106361:	a1 d8 f8 17 00       	mov    eax,ds:0x17f8d8
  106366:	8d 50 01             	lea    edx,[eax+0x1]
  106369:	89 15 d8 f8 17 00    	mov    DWORD PTR ds:0x17f8d8,edx
  10636f:	01 c1                	add    ecx,eax
  106371:	a1 d4 f8 17 00       	mov    eax,ds:0x17f8d4
  106376:	99                   	cdq    
  106377:	c1 ea 1f             	shr    edx,0x1f
  10637a:	01 d0                	add    eax,edx
  10637c:	83 e0 01             	and    eax,0x1
  10637f:	29 d0                	sub    eax,edx
  106381:	89 c2                	mov    edx,eax
  106383:	0f b6 45 f7          	movzx  eax,BYTE PTR [ebp-0x9]
  106387:	c1 e2 07             	shl    edx,0x7
  10638a:	01 d0                	add    eax,edx
  10638c:	8b 04 85 c0 d7 10 00 	mov    eax,DWORD PTR [eax*4+0x10d7c0]
  106393:	88 01                	mov    BYTE PTR [ecx],al
  106395:	a1 d8 f8 17 00       	mov    eax,ds:0x17f8d8
  10639a:	3d 00 04 00 00       	cmp    eax,0x400
  10639f:	7e 70                	jle    106411 <keyboard_intr+0x245>
  1063a1:	c7 05 d8 f8 17 00 00 	mov    DWORD PTR ds:0x17f8d8,0x0
  1063a8:	00 00 00 
  1063ab:	eb 64                	jmp    106411 <keyboard_intr+0x245>
  1063ad:	a1 d4 f8 17 00       	mov    eax,ds:0x17f8d4
  1063b2:	99                   	cdq    
  1063b3:	c1 ea 1f             	shr    edx,0x1f
  1063b6:	01 d0                	add    eax,edx
  1063b8:	83 e0 01             	and    eax,0x1
  1063bb:	29 d0                	sub    eax,edx
  1063bd:	89 c2                	mov    edx,eax
  1063bf:	0f b6 45 f7          	movzx  eax,BYTE PTR [ebp-0x9]
  1063c3:	83 e0 7f             	and    eax,0x7f
  1063c6:	c1 e2 07             	shl    edx,0x7
  1063c9:	01 d0                	add    eax,edx
  1063cb:	8b 04 85 c0 d7 10 00 	mov    eax,DWORD PTR [eax*4+0x10d7c0]
  1063d2:	3d ff 00 00 00       	cmp    eax,0xff
  1063d7:	76 38                	jbe    106411 <keyboard_intr+0x245>
  1063d9:	a1 d4 f8 17 00       	mov    eax,ds:0x17f8d4
  1063de:	99                   	cdq    
  1063df:	c1 ea 1f             	shr    edx,0x1f
  1063e2:	01 d0                	add    eax,edx
  1063e4:	83 e0 01             	and    eax,0x1
  1063e7:	29 d0                	sub    eax,edx
  1063e9:	89 c2                	mov    edx,eax
  1063eb:	0f b6 45 f7          	movzx  eax,BYTE PTR [ebp-0x9]
  1063ef:	83 e0 7f             	and    eax,0x7f
  1063f2:	c1 e2 07             	shl    edx,0x7
  1063f5:	01 d0                	add    eax,edx
  1063f7:	8b 04 85 c0 d7 10 00 	mov    eax,DWORD PTR [eax*4+0x10d7c0]
  1063fe:	f7 d0                	not    eax
  106400:	c1 e8 08             	shr    eax,0x8
  106403:	89 c2                	mov    edx,eax
  106405:	a1 d4 f8 17 00       	mov    eax,ds:0x17f8d4
  10640a:	21 d0                	and    eax,edx
  10640c:	a3 d4 f8 17 00       	mov    ds:0x17f8d4,eax
  106411:	c9                   	leave  
  106412:	c3                   	ret    

00106413 <PIC_init>:
  106413:	55                   	push   ebp
  106414:	89 e5                	mov    ebp,esp
  106416:	83 ec 18             	sub    esp,0x18
  106419:	83 ec 08             	sub    esp,0x8
  10641c:	6a 28                	push   0x28
  10641e:	6a 20                	push   0x20
  106420:	e8 2a 00 00 00       	call   10644f <PIC_remap>
  106425:	83 c4 10             	add    esp,0x10
  106428:	c7 45 f4 00 00 00 00 	mov    DWORD PTR [ebp-0xc],0x0
  10642f:	eb 16                	jmp    106447 <PIC_init+0x34>
  106431:	8b 45 f4             	mov    eax,DWORD PTR [ebp-0xc]
  106434:	0f b6 c0             	movzx  eax,al
  106437:	83 ec 0c             	sub    esp,0xc
  10643a:	50                   	push   eax
  10643b:	e8 cc 00 00 00       	call   10650c <PIC_mask_line>
  106440:	83 c4 10             	add    esp,0x10
  106443:	83 45 f4 01          	add    DWORD PTR [ebp-0xc],0x1
  106447:	83 7d f4 0f          	cmp    DWORD PTR [ebp-0xc],0xf
  10644b:	7e e4                	jle    106431 <PIC_init+0x1e>
  10644d:	c9                   	leave  
  10644e:	c3                   	ret    

0010644f <PIC_remap>:
  10644f:	55                   	push   ebp
  106450:	89 e5                	mov    ebp,esp
  106452:	83 ec 08             	sub    esp,0x8
  106455:	83 ec 08             	sub    esp,0x8
  106458:	6a 11                	push   0x11
  10645a:	6a 20                	push   0x20
  10645c:	e8 4d a3 ff ff       	call   1007ae <outb>
  106461:	83 c4 10             	add    esp,0x10
  106464:	83 ec 08             	sub    esp,0x8
  106467:	6a 11                	push   0x11
  106469:	68 a0 00 00 00       	push   0xa0
  10646e:	e8 3b a3 ff ff       	call   1007ae <outb>
  106473:	83 c4 10             	add    esp,0x10
  106476:	8b 45 08             	mov    eax,DWORD PTR [ebp+0x8]
  106479:	0f b6 c0             	movzx  eax,al
  10647c:	83 ec 08             	sub    esp,0x8
  10647f:	50                   	push   eax
  106480:	6a 21                	push   0x21
  106482:	e8 27 a3 ff ff       	call   1007ae <outb>
  106487:	83 c4 10             	add    esp,0x10
  10648a:	8b 45 0c             	mov    eax,DWORD PTR [ebp+0xc]
  10648d:	0f b6 c0             	movzx  eax,al
  106490:	83 ec 08             	sub    esp,0x8
  106493:	50                   	push   eax
  106494:	68 a1 00 00 00       	push   0xa1
  106499:	e8 10 a3 ff ff       	call   1007ae <outb>
  10649e:	83 c4 10             	add    esp,0x10
  1064a1:	83 ec 08             	sub    esp,0x8
  1064a4:	6a 04                	push   0x4
  1064a6:	6a 21                	push   0x21
  1064a8:	e8 01 a3 ff ff       	call   1007ae <outb>
  1064ad:	83 c4 10             	add    esp,0x10
  1064b0:	83 ec 08             	sub    esp,0x8
  1064b3:	6a 02                	push   0x2
  1064b5:	68 a1 00 00 00       	push   0xa1
  1064ba:	e8 ef a2 ff ff       	call   1007ae <outb>
  1064bf:	83 c4 10             	add    esp,0x10
  1064c2:	83 ec 08             	sub    esp,0x8
  1064c5:	6a 01                	push   0x1
  1064c7:	6a 21                	push   0x21
  1064c9:	e8 e0 a2 ff ff       	call   1007ae <outb>
  1064ce:	83 c4 10             	add    esp,0x10
  1064d1:	83 ec 08             	sub    esp,0x8
  1064d4:	6a 01                	push   0x1
  1064d6:	68 a1 00 00 00       	push   0xa1
  1064db:	e8 ce a2 ff ff       	call   1007ae <outb>
  1064e0:	83 c4 10             	add    esp,0x10
  1064e3:	83 ec 08             	sub    esp,0x8
  1064e6:	68 ff 00 00 00       	push   0xff
  1064eb:	6a 21                	push   0x21
  1064ed:	e8 bc a2 ff ff       	call   1007ae <outb>
  1064f2:	83 c4 10             	add    esp,0x10
  1064f5:	83 ec 08             	sub    esp,0x8
  1064f8:	68 ff 00 00 00       	push   0xff
  1064fd:	68 a1 00 00 00       	push   0xa1
  106502:	e8 a7 a2 ff ff       	call   1007ae <outb>
  106507:	83 c4 10             	add    esp,0x10
  10650a:	c9                   	leave  
  10650b:	c3                   	ret    

0010650c <PIC_mask_line>:
  10650c:	55                   	push   ebp
  10650d:	89 e5                	mov    ebp,esp
  10650f:	53                   	push   ebx
  106510:	83 ec 24             	sub    esp,0x24
  106513:	8b 45 08             	mov    eax,DWORD PTR [ebp+0x8]
  106516:	88 45 e4             	mov    BYTE PTR [ebp-0x1c],al
  106519:	80 7d e4 07          	cmp    BYTE PTR [ebp-0x1c],0x7
  10651d:	77 08                	ja     106527 <PIC_mask_line+0x1b>
  10651f:	66 c7 45 f6 21 00    	mov    WORD PTR [ebp-0xa],0x21
  106525:	eb 0a                	jmp    106531 <PIC_mask_line+0x25>
  106527:	66 c7 45 f6 a1 00    	mov    WORD PTR [ebp-0xa],0xa1
  10652d:	80 6d e4 08          	sub    BYTE PTR [ebp-0x1c],0x8
  106531:	0f b7 45 f6          	movzx  eax,WORD PTR [ebp-0xa]
  106535:	83 ec 0c             	sub    esp,0xc
  106538:	50                   	push   eax
  106539:	e8 8e a2 ff ff       	call   1007cc <inb>
  10653e:	83 c4 10             	add    esp,0x10
  106541:	89 c2                	mov    edx,eax
  106543:	0f b6 45 e4          	movzx  eax,BYTE PTR [ebp-0x1c]
  106547:	bb 01 00 00 00       	mov    ebx,0x1
  10654c:	89 c1                	mov    ecx,eax
  10654e:	d3 e3                	shl    ebx,cl
  106550:	89 d8                	mov    eax,ebx
  106552:	09 d0                	or     eax,edx
  106554:	88 45 f5             	mov    BYTE PTR [ebp-0xb],al
  106557:	0f b6 55 f5          	movzx  edx,BYTE PTR [ebp-0xb]
  10655b:	0f b7 45 f6          	movzx  eax,WORD PTR [ebp-0xa]
  10655f:	83 ec 08             	sub    esp,0x8
  106562:	52                   	push   edx
  106563:	50                   	push   eax
  106564:	e8 45 a2 ff ff       	call   1007ae <outb>
  106569:	83 c4 10             	add    esp,0x10
  10656c:	8b 5d fc             	mov    ebx,DWORD PTR [ebp-0x4]
  10656f:	c9                   	leave  
  106570:	c3                   	ret    

00106571 <PIC_clear_line>:
  106571:	55                   	push   ebp
  106572:	89 e5                	mov    ebp,esp
  106574:	53                   	push   ebx
  106575:	83 ec 24             	sub    esp,0x24
  106578:	8b 45 08             	mov    eax,DWORD PTR [ebp+0x8]
  10657b:	88 45 e4             	mov    BYTE PTR [ebp-0x1c],al
  10657e:	80 7d e4 07          	cmp    BYTE PTR [ebp-0x1c],0x7
  106582:	77 08                	ja     10658c <PIC_clear_line+0x1b>
  106584:	66 c7 45 f6 21 00    	mov    WORD PTR [ebp-0xa],0x21
  10658a:	eb 0a                	jmp    106596 <PIC_clear_line+0x25>
  10658c:	66 c7 45 f6 a1 00    	mov    WORD PTR [ebp-0xa],0xa1
  106592:	80 6d e4 08          	sub    BYTE PTR [ebp-0x1c],0x8
  106596:	0f b7 45 f6          	movzx  eax,WORD PTR [ebp-0xa]
  10659a:	83 ec 0c             	sub    esp,0xc
  10659d:	50                   	push   eax
  10659e:	e8 29 a2 ff ff       	call   1007cc <inb>
  1065a3:	83 c4 10             	add    esp,0x10
  1065a6:	89 c2                	mov    edx,eax
  1065a8:	0f b6 45 e4          	movzx  eax,BYTE PTR [ebp-0x1c]
  1065ac:	bb 01 00 00 00       	mov    ebx,0x1
  1065b1:	89 c1                	mov    ecx,eax
  1065b3:	d3 e3                	shl    ebx,cl
  1065b5:	89 d8                	mov    eax,ebx
  1065b7:	f7 d0                	not    eax
  1065b9:	21 d0                	and    eax,edx
  1065bb:	88 45 f5             	mov    BYTE PTR [ebp-0xb],al
  1065be:	0f b6 55 f5          	movzx  edx,BYTE PTR [ebp-0xb]
  1065c2:	0f b7 45 f6          	movzx  eax,WORD PTR [ebp-0xa]
  1065c6:	83 ec 08             	sub    esp,0x8
  1065c9:	52                   	push   edx
  1065ca:	50                   	push   eax
  1065cb:	e8 de a1 ff ff       	call   1007ae <outb>
  1065d0:	83 c4 10             	add    esp,0x10
  1065d3:	8b 5d fc             	mov    ebx,DWORD PTR [ebp-0x4]
  1065d6:	c9                   	leave  
  1065d7:	c3                   	ret    

001065d8 <register_irq_handler>:
  1065d8:	55                   	push   ebp
  1065d9:	89 e5                	mov    ebp,esp
  1065db:	8b 45 08             	mov    eax,DWORD PTR [ebp+0x8]
  1065de:	8b 55 0c             	mov    edx,DWORD PTR [ebp+0xc]
  1065e1:	89 14 85 c0 ed 17 00 	mov    DWORD PTR [eax*4+0x17edc0],edx
  1065e8:	5d                   	pop    ebp
  1065e9:	c3                   	ret    

001065ea <handle_irq>:
  1065ea:	55                   	push   ebp
  1065eb:	89 e5                	mov    ebp,esp
  1065ed:	83 ec 08             	sub    esp,0x8
  1065f0:	8b 45 08             	mov    eax,DWORD PTR [ebp+0x8]
  1065f3:	8b 40 28             	mov    eax,DWORD PTR [eax+0x28]
  1065f6:	83 f8 28             	cmp    eax,0x28
  1065f9:	76 12                	jbe    10660d <handle_irq+0x23>
  1065fb:	83 ec 08             	sub    esp,0x8
  1065fe:	6a 20                	push   0x20
  106600:	68 a0 00 00 00       	push   0xa0
  106605:	e8 a4 a1 ff ff       	call   1007ae <outb>
  10660a:	83 c4 10             	add    esp,0x10
  10660d:	83 ec 08             	sub    esp,0x8
  106610:	6a 20                	push   0x20
  106612:	6a 20                	push   0x20
  106614:	e8 95 a1 ff ff       	call   1007ae <outb>
  106619:	83 c4 10             	add    esp,0x10
  10661c:	8b 45 08             	mov    eax,DWORD PTR [ebp+0x8]
  10661f:	8b 40 28             	mov    eax,DWORD PTR [eax+0x28]
  106622:	83 e8 20             	sub    eax,0x20
  106625:	8b 04 85 c0 ed 17 00 	mov    eax,DWORD PTR [eax*4+0x17edc0]
  10662c:	85 c0                	test   eax,eax
  10662e:	74 1b                	je     10664b <handle_irq+0x61>
  106630:	8b 45 08             	mov    eax,DWORD PTR [ebp+0x8]
  106633:	8b 40 28             	mov    eax,DWORD PTR [eax+0x28]
  106636:	83 e8 20             	sub    eax,0x20
  106639:	8b 04 85 c0 ed 17 00 	mov    eax,DWORD PTR [eax*4+0x17edc0]
  106640:	83 ec 0c             	sub    esp,0xc
  106643:	ff 75 08             	push   DWORD PTR [ebp+0x8]
  106646:	ff d0                	call   eax
  106648:	83 c4 10             	add    esp,0x10
  10664b:	c9                   	leave  
  10664c:	c3                   	ret    

0010664d <get_irq_reg>:
  10664d:	55                   	push   ebp
  10664e:	89 e5                	mov    ebp,esp
  106650:	53                   	push   ebx
  106651:	83 ec 04             	sub    esp,0x4
  106654:	8b 45 08             	mov    eax,DWORD PTR [ebp+0x8]
  106657:	0f b6 c0             	movzx  eax,al
  10665a:	83 ec 08             	sub    esp,0x8
  10665d:	50                   	push   eax
  10665e:	6a 20                	push   0x20
  106660:	e8 49 a1 ff ff       	call   1007ae <outb>
  106665:	83 c4 10             	add    esp,0x10
  106668:	8b 45 08             	mov    eax,DWORD PTR [ebp+0x8]
  10666b:	0f b6 c0             	movzx  eax,al
  10666e:	83 ec 08             	sub    esp,0x8
  106671:	50                   	push   eax
  106672:	68 a0 00 00 00       	push   0xa0
  106677:	e8 32 a1 ff ff       	call   1007ae <outb>
  10667c:	83 c4 10             	add    esp,0x10
  10667f:	83 ec 0c             	sub    esp,0xc
  106682:	68 a0 00 00 00       	push   0xa0
  106687:	e8 40 a1 ff ff       	call   1007cc <inb>
  10668c:	83 c4 10             	add    esp,0x10
  10668f:	0f b6 c0             	movzx  eax,al
  106692:	c1 e0 08             	shl    eax,0x8
  106695:	89 c3                	mov    ebx,eax
  106697:	83 ec 0c             	sub    esp,0xc
  10669a:	6a 20                	push   0x20
  10669c:	e8 2b a1 ff ff       	call   1007cc <inb>
  1066a1:	83 c4 10             	add    esp,0x10
  1066a4:	0f b6 c0             	movzx  eax,al
  1066a7:	09 d8                	or     eax,ebx
  1066a9:	8b 5d fc             	mov    ebx,DWORD PTR [ebp-0x4]
  1066ac:	c9                   	leave  
  1066ad:	c3                   	ret    

001066ae <check_pic_reset>:
  1066ae:	55                   	push   ebp
  1066af:	89 e5                	mov    ebp,esp
  1066b1:	83 ec 18             	sub    esp,0x18
  1066b4:	83 ec 0c             	sub    esp,0xc
  1066b7:	6a 0b                	push   0xb
  1066b9:	e8 8f ff ff ff       	call   10664d <get_irq_reg>
  1066be:	83 c4 10             	add    esp,0x10
  1066c1:	66 89 45 f4          	mov    WORD PTR [ebp-0xc],ax
  1066c5:	66 83 7d f4 00       	cmp    WORD PTR [ebp-0xc],0x0
  1066ca:	74 7c                	je     106748 <check_pic_reset+0x9a>
  1066cc:	66 c7 45 f6 00 00    	mov    WORD PTR [ebp-0xa],0x0
  1066d2:	eb 6d                	jmp    106741 <check_pic_reset+0x93>
  1066d4:	0f b7 55 f4          	movzx  edx,WORD PTR [ebp-0xc]
  1066d8:	0f b7 45 f6          	movzx  eax,WORD PTR [ebp-0xa]
  1066dc:	89 c1                	mov    ecx,eax
  1066de:	d3 fa                	sar    edx,cl
  1066e0:	89 d0                	mov    eax,edx
  1066e2:	83 e0 01             	and    eax,0x1
  1066e5:	85 c0                	test   eax,eax
  1066e7:	74 4d                	je     106736 <check_pic_reset+0x88>
  1066e9:	0f b7 45 f6          	movzx  eax,WORD PTR [ebp-0xa]
  1066ed:	8b 04 85 c0 ed 17 00 	mov    eax,DWORD PTR [eax*4+0x17edc0]
  1066f4:	85 c0                	test   eax,eax
  1066f6:	74 16                	je     10670e <check_pic_reset+0x60>
  1066f8:	0f b7 45 f6          	movzx  eax,WORD PTR [ebp-0xa]
  1066fc:	8b 04 85 c0 ed 17 00 	mov    eax,DWORD PTR [eax*4+0x17edc0]
  106703:	83 ec 0c             	sub    esp,0xc
  106706:	ff 75 08             	push   DWORD PTR [ebp+0x8]
  106709:	ff d0                	call   eax
  10670b:	83 c4 10             	add    esp,0x10
  10670e:	66 83 7d f6 08       	cmp    WORD PTR [ebp-0xa],0x8
  106713:	76 12                	jbe    106727 <check_pic_reset+0x79>
  106715:	83 ec 08             	sub    esp,0x8
  106718:	6a 20                	push   0x20
  10671a:	68 a0 00 00 00       	push   0xa0
  10671f:	e8 8a a0 ff ff       	call   1007ae <outb>
  106724:	83 c4 10             	add    esp,0x10
  106727:	83 ec 08             	sub    esp,0x8
  10672a:	6a 20                	push   0x20
  10672c:	6a 20                	push   0x20
  10672e:	e8 7b a0 ff ff       	call   1007ae <outb>
  106733:	83 c4 10             	add    esp,0x10
  106736:	0f b7 45 f6          	movzx  eax,WORD PTR [ebp-0xa]
  10673a:	83 c0 01             	add    eax,0x1
  10673d:	66 89 45 f6          	mov    WORD PTR [ebp-0xa],ax
  106741:	66 83 7d f6 0f       	cmp    WORD PTR [ebp-0xa],0xf
  106746:	76 8c                	jbe    1066d4 <check_pic_reset+0x26>
  106748:	c9                   	leave  
  106749:	c3                   	ret    

0010674a <init_async>:
  10674a:	55                   	push   ebp
  10674b:	89 e5                	mov    ebp,esp
  10674d:	83 ec 18             	sub    esp,0x18
  106750:	c7 45 f4 00 00 00 00 	mov    DWORD PTR [ebp-0xc],0x0
  106757:	eb 1d                	jmp    106776 <init_async+0x2c>
  106759:	83 ec 0c             	sub    esp,0xc
  10675c:	6a 08                	push   0x8
  10675e:	e8 16 bf ff ff       	call   102679 <malloc>
  106763:	83 c4 10             	add    esp,0x10
  106766:	89 c2                	mov    edx,eax
  106768:	8b 45 f4             	mov    eax,DWORD PTR [ebp-0xc]
  10676b:	89 14 85 00 ee 17 00 	mov    DWORD PTR [eax*4+0x17ee00],edx
  106772:	83 45 f4 01          	add    DWORD PTR [ebp-0xc],0x1
  106776:	83 7d f4 00          	cmp    DWORD PTR [ebp-0xc],0x0
  10677a:	7e dd                	jle    106759 <init_async+0xf>
  10677c:	c9                   	leave  
  10677d:	c3                   	ret    

0010677e <pop_queue>:
  10677e:	55                   	push   ebp
  10677f:	89 e5                	mov    ebp,esp
  106781:	83 ec 18             	sub    esp,0x18
  106784:	8b 45 08             	mov    eax,DWORD PTR [ebp+0x8]
  106787:	8b 04 85 00 ee 17 00 	mov    eax,DWORD PTR [eax*4+0x17ee00]
  10678e:	85 c0                	test   eax,eax
  106790:	75 07                	jne    106799 <pop_queue+0x1b>
  106792:	b8 00 00 00 00       	mov    eax,0x0
  106797:	eb 5f                	jmp    1067f8 <pop_queue+0x7a>
  106799:	8b 45 08             	mov    eax,DWORD PTR [ebp+0x8]
  10679c:	8b 04 85 00 ee 17 00 	mov    eax,DWORD PTR [eax*4+0x17ee00]
  1067a3:	8b 40 04             	mov    eax,DWORD PTR [eax+0x4]
  1067a6:	89 45 f4             	mov    DWORD PTR [ebp-0xc],eax
  1067a9:	8b 45 08             	mov    eax,DWORD PTR [ebp+0x8]
  1067ac:	8b 04 85 00 ee 17 00 	mov    eax,DWORD PTR [eax*4+0x17ee00]
  1067b3:	8b 00                	mov    eax,DWORD PTR [eax]
  1067b5:	85 c0                	test   eax,eax
  1067b7:	74 18                	je     1067d1 <pop_queue+0x53>
  1067b9:	8b 45 08             	mov    eax,DWORD PTR [ebp+0x8]
  1067bc:	8b 04 85 00 ee 17 00 	mov    eax,DWORD PTR [eax*4+0x17ee00]
  1067c3:	8b 10                	mov    edx,DWORD PTR [eax]
  1067c5:	8b 45 08             	mov    eax,DWORD PTR [ebp+0x8]
  1067c8:	89 14 85 00 ee 17 00 	mov    DWORD PTR [eax*4+0x17ee00],edx
  1067cf:	eb 24                	jmp    1067f5 <pop_queue+0x77>
  1067d1:	8b 45 08             	mov    eax,DWORD PTR [ebp+0x8]
  1067d4:	8b 04 85 00 ee 17 00 	mov    eax,DWORD PTR [eax*4+0x17ee00]
  1067db:	83 ec 0c             	sub    esp,0xc
  1067de:	50                   	push   eax
  1067df:	e8 30 c4 ff ff       	call   102c14 <free>
  1067e4:	83 c4 10             	add    esp,0x10
  1067e7:	8b 45 08             	mov    eax,DWORD PTR [ebp+0x8]
  1067ea:	c7 04 85 00 ee 17 00 	mov    DWORD PTR [eax*4+0x17ee00],0x0
  1067f1:	00 00 00 00 
  1067f5:	8b 45 f4             	mov    eax,DWORD PTR [ebp-0xc]
  1067f8:	c9                   	leave  
  1067f9:	c3                   	ret    

001067fa <fulfill_event>:
  1067fa:	55                   	push   ebp
  1067fb:	89 e5                	mov    ebp,esp
  1067fd:	83 ec 18             	sub    esp,0x18
  106800:	83 ec 0c             	sub    esp,0xc
  106803:	ff 75 0c             	push   DWORD PTR [ebp+0xc]
  106806:	e8 73 ff ff ff       	call   10677e <pop_queue>
  10680b:	83 c4 10             	add    esp,0x10
  10680e:	89 45 f4             	mov    DWORD PTR [ebp-0xc],eax
  106811:	83 7d f4 00          	cmp    DWORD PTR [ebp-0xc],0x0
  106815:	75 02                	jne    106819 <fulfill_event+0x1f>
  106817:	eb 28                	jmp    106841 <fulfill_event+0x47>
  106819:	8b 45 f4             	mov    eax,DWORD PTR [ebp-0xc]
  10681c:	8b 40 04             	mov    eax,DWORD PTR [eax+0x4]
  10681f:	89 c2                	mov    edx,eax
  106821:	8b 45 08             	mov    eax,DWORD PTR [ebp+0x8]
  106824:	89 50 30             	mov    DWORD PTR [eax+0x30],edx
  106827:	8b 45 10             	mov    eax,DWORD PTR [ebp+0x10]
  10682a:	89 c2                	mov    edx,eax
  10682c:	8b 45 f4             	mov    eax,DWORD PTR [ebp-0xc]
  10682f:	8b 00                	mov    eax,DWORD PTR [eax]
  106831:	83 ec 04             	sub    esp,0x4
  106834:	52                   	push   edx
  106835:	50                   	push   eax
  106836:	ff 75 08             	push   DWORD PTR [ebp+0x8]
  106839:	e8 ea d3 ff ff       	call   103c28 <call_usermode>
  10683e:	83 c4 10             	add    esp,0x10
  106841:	c9                   	leave  
  106842:	c3                   	ret    

00106843 <_log>:
  106843:	55                   	push   ebp
  106844:	89 e5                	mov    ebp,esp
  106846:	56                   	push   esi
  106847:	53                   	push   ebx
  106848:	8b 45 08             	mov    eax,DWORD PTR [ebp+0x8]
  10684b:	8b 04 85 ec db 10 00 	mov    eax,DWORD PTR [eax*4+0x10dbec]
  106852:	3b 45 0c             	cmp    eax,DWORD PTR [ebp+0xc]
  106855:	7c 45                	jl     10689c <_log+0x59>
  106857:	83 7d 0c 03          	cmp    DWORD PTR [ebp+0xc],0x3
  10685b:	7f 3f                	jg     10689c <_log+0x59>
  10685d:	8b 45 0c             	mov    eax,DWORD PTR [ebp+0xc]
  106860:	8b 1c 85 dc db 10 00 	mov    ebx,DWORD PTR [eax*4+0x10dbdc]
  106867:	8b 45 08             	mov    eax,DWORD PTR [ebp+0x8]
  10686a:	8b 0c 85 c0 db 10 00 	mov    ecx,DWORD PTR [eax*4+0x10dbc0]
  106871:	8b 45 04             	mov    eax,DWORD PTR [ebp+0x4]
  106874:	89 c6                	mov    esi,eax
  106876:	a1 c8 f8 17 00       	mov    eax,ds:0x17f8c8
  10687b:	8b 15 cc f8 17 00    	mov    edx,DWORD PTR ds:0x17f8cc
  106881:	83 ec 0c             	sub    esp,0xc
  106884:	53                   	push   ebx
  106885:	51                   	push   ecx
  106886:	56                   	push   esi
  106887:	50                   	push   eax
  106888:	68 65 9c 10 00       	push   0x109c65
  10688d:	e8 44 ad ff ff       	call   1015d6 <printf>
  106892:	83 c4 20             	add    esp,0x20
  106895:	b8 01 00 00 00       	mov    eax,0x1
  10689a:	eb 05                	jmp    1068a1 <_log+0x5e>
  10689c:	b8 00 00 00 00       	mov    eax,0x0
  1068a1:	8d 65 f8             	lea    esp,[ebp-0x8]
  1068a4:	5b                   	pop    ebx
  1068a5:	5e                   	pop    esi
  1068a6:	5d                   	pop    ebp
  1068a7:	c3                   	ret    

001068a8 <register_filesystems>:
  1068a8:	55                   	push   ebp
  1068a9:	89 e5                	mov    ebp,esp
  1068ab:	83 ec 08             	sub    esp,0x8
  1068ae:	a1 e0 f8 17 00       	mov    eax,ds:0x17f8e0
  1068b3:	c7 04 85 40 ee 17 00 	mov    DWORD PTR [eax*4+0x17ee40],0x10dc08
  1068ba:	08 dc 10 00 
  1068be:	8b 15 08 dc 10 00    	mov    edx,DWORD PTR ds:0x10dc08
  1068c4:	a1 e0 f8 17 00       	mov    eax,ds:0x17f8e0
  1068c9:	8d 48 01             	lea    ecx,[eax+0x1]
  1068cc:	89 0d e0 f8 17 00    	mov    DWORD PTR ds:0x17f8e0,ecx
  1068d2:	83 ec 0c             	sub    esp,0xc
  1068d5:	50                   	push   eax
  1068d6:	ff d2                	call   edx
  1068d8:	83 c4 10             	add    esp,0x10
  1068db:	a1 e0 f8 17 00       	mov    eax,ds:0x17f8e0
  1068e0:	c7 04 85 40 ee 17 00 	mov    DWORD PTR [eax*4+0x17ee40],0x10dc24
  1068e7:	24 dc 10 00 
  1068eb:	8b 15 24 dc 10 00    	mov    edx,DWORD PTR ds:0x10dc24
  1068f1:	a1 e0 f8 17 00       	mov    eax,ds:0x17f8e0
  1068f6:	8d 48 01             	lea    ecx,[eax+0x1]
  1068f9:	89 0d e0 f8 17 00    	mov    DWORD PTR ds:0x17f8e0,ecx
  1068ff:	83 ec 0c             	sub    esp,0xc
  106902:	50                   	push   eax
  106903:	ff d2                	call   edx
  106905:	83 c4 10             	add    esp,0x10
  106908:	c9                   	leave  
  106909:	c3                   	ret    

0010690a <fs_init>:
  10690a:	55                   	push   ebp
  10690b:	89 e5                	mov    ebp,esp
  10690d:	83 ec 08             	sub    esp,0x8
  106910:	e8 93 ff ff ff       	call   1068a8 <register_filesystems>
  106915:	b8 00 00 00 00       	mov    eax,0x0
  10691a:	c9                   	leave  
  10691b:	c3                   	ret    

0010691c <fs_open>:
  10691c:	55                   	push   ebp
  10691d:	89 e5                	mov    ebp,esp
  10691f:	83 ec 18             	sub    esp,0x18
  106922:	c7 45 f4 00 00 00 00 	mov    DWORD PTR [ebp-0xc],0x0
  106929:	eb 3d                	jmp    106968 <fs_open+0x4c>
  10692b:	8b 45 f4             	mov    eax,DWORD PTR [ebp-0xc]
  10692e:	8b 04 85 40 ee 17 00 	mov    eax,DWORD PTR [eax*4+0x17ee40]
  106935:	8b 40 04             	mov    eax,DWORD PTR [eax+0x4]
  106938:	83 ec 0c             	sub    esp,0xc
  10693b:	ff 75 08             	push   DWORD PTR [ebp+0x8]
  10693e:	ff d0                	call   eax
  106940:	83 c4 10             	add    esp,0x10
  106943:	85 c0                	test   eax,eax
  106945:	74 1d                	je     106964 <fs_open+0x48>
  106947:	8b 45 f4             	mov    eax,DWORD PTR [ebp-0xc]
  10694a:	8b 04 85 40 ee 17 00 	mov    eax,DWORD PTR [eax*4+0x17ee40]
  106951:	8b 40 08             	mov    eax,DWORD PTR [eax+0x8]
  106954:	83 ec 08             	sub    esp,0x8
  106957:	ff 75 0c             	push   DWORD PTR [ebp+0xc]
  10695a:	ff 75 08             	push   DWORD PTR [ebp+0x8]
  10695d:	ff d0                	call   eax
  10695f:	83 c4 10             	add    esp,0x10
  106962:	eb 13                	jmp    106977 <fs_open+0x5b>
  106964:	83 45 f4 01          	add    DWORD PTR [ebp-0xc],0x1
  106968:	a1 e0 f8 17 00       	mov    eax,ds:0x17f8e0
  10696d:	39 45 f4             	cmp    DWORD PTR [ebp-0xc],eax
  106970:	7c b9                	jl     10692b <fs_open+0xf>
  106972:	b8 ff ff ff ff       	mov    eax,0xffffffff
  106977:	c9                   	leave  
  106978:	c3                   	ret    

00106979 <fs_close>:
  106979:	55                   	push   ebp
  10697a:	89 e5                	mov    ebp,esp
  10697c:	83 ec 08             	sub    esp,0x8
  10697f:	a1 80 ed 17 00       	mov    eax,ds:0x17ed80
  106984:	8b 04 85 80 ed 13 00 	mov    eax,DWORD PTR [eax*4+0x13ed80]
  10698b:	8b 40 20             	mov    eax,DWORD PTR [eax+0x20]
  10698e:	8b 55 08             	mov    edx,DWORD PTR [ebp+0x8]
  106991:	c1 e2 04             	shl    edx,0x4
  106994:	01 d0                	add    eax,edx
  106996:	8b 40 04             	mov    eax,DWORD PTR [eax+0x4]
  106999:	8b 04 85 40 ee 17 00 	mov    eax,DWORD PTR [eax*4+0x17ee40]
  1069a0:	8b 40 0c             	mov    eax,DWORD PTR [eax+0xc]
  1069a3:	83 ec 0c             	sub    esp,0xc
  1069a6:	ff 75 08             	push   DWORD PTR [ebp+0x8]
  1069a9:	ff d0                	call   eax
  1069ab:	83 c4 10             	add    esp,0x10
  1069ae:	c9                   	leave  
  1069af:	c3                   	ret    

001069b0 <fs_write>:
  1069b0:	55                   	push   ebp
  1069b1:	89 e5                	mov    ebp,esp
  1069b3:	83 ec 08             	sub    esp,0x8
  1069b6:	a1 80 ed 17 00       	mov    eax,ds:0x17ed80
  1069bb:	8b 04 85 80 ed 13 00 	mov    eax,DWORD PTR [eax*4+0x13ed80]
  1069c2:	8b 40 20             	mov    eax,DWORD PTR [eax+0x20]
  1069c5:	8b 55 08             	mov    edx,DWORD PTR [ebp+0x8]
  1069c8:	c1 e2 04             	shl    edx,0x4
  1069cb:	01 d0                	add    eax,edx
  1069cd:	8b 40 04             	mov    eax,DWORD PTR [eax+0x4]
  1069d0:	8b 04 85 40 ee 17 00 	mov    eax,DWORD PTR [eax*4+0x17ee40]
  1069d7:	8b 40 10             	mov    eax,DWORD PTR [eax+0x10]
  1069da:	83 ec 04             	sub    esp,0x4
  1069dd:	ff 75 10             	push   DWORD PTR [ebp+0x10]
  1069e0:	ff 75 0c             	push   DWORD PTR [ebp+0xc]
  1069e3:	ff 75 08             	push   DWORD PTR [ebp+0x8]
  1069e6:	ff d0                	call   eax
  1069e8:	83 c4 10             	add    esp,0x10
  1069eb:	c9                   	leave  
  1069ec:	c3                   	ret    

001069ed <fs_read>:
  1069ed:	55                   	push   ebp
  1069ee:	89 e5                	mov    ebp,esp
  1069f0:	83 ec 08             	sub    esp,0x8
  1069f3:	83 ec 08             	sub    esp,0x8
  1069f6:	6a 02                	push   0x2
  1069f8:	6a 05                	push   0x5
  1069fa:	e8 44 fe ff ff       	call   106843 <_log>
  1069ff:	83 c4 10             	add    esp,0x10
  106a02:	85 c0                	test   eax,eax
  106a04:	74 16                	je     106a1c <fs_read+0x2f>
  106a06:	ff 75 10             	push   DWORD PTR [ebp+0x10]
  106a09:	ff 75 0c             	push   DWORD PTR [ebp+0xc]
  106a0c:	ff 75 08             	push   DWORD PTR [ebp+0x8]
  106a0f:	68 76 9c 10 00       	push   0x109c76
  106a14:	e8 bd ab ff ff       	call   1015d6 <printf>
  106a19:	83 c4 10             	add    esp,0x10
  106a1c:	a1 80 ed 17 00       	mov    eax,ds:0x17ed80
  106a21:	8b 04 85 80 ed 13 00 	mov    eax,DWORD PTR [eax*4+0x13ed80]
  106a28:	8b 40 20             	mov    eax,DWORD PTR [eax+0x20]
  106a2b:	8b 55 08             	mov    edx,DWORD PTR [ebp+0x8]
  106a2e:	c1 e2 04             	shl    edx,0x4
  106a31:	01 d0                	add    eax,edx
  106a33:	8b 40 04             	mov    eax,DWORD PTR [eax+0x4]
  106a36:	8b 04 85 40 ee 17 00 	mov    eax,DWORD PTR [eax*4+0x17ee40]
  106a3d:	8b 40 14             	mov    eax,DWORD PTR [eax+0x14]
  106a40:	83 ec 04             	sub    esp,0x4
  106a43:	ff 75 10             	push   DWORD PTR [ebp+0x10]
  106a46:	ff 75 0c             	push   DWORD PTR [ebp+0xc]
  106a49:	ff 75 08             	push   DWORD PTR [ebp+0x8]
  106a4c:	ff d0                	call   eax
  106a4e:	83 c4 10             	add    esp,0x10
  106a51:	c9                   	leave  
  106a52:	c3                   	ret    

00106a53 <_fs_getid>:
  106a53:	55                   	push   ebp
  106a54:	89 e5                	mov    ebp,esp
  106a56:	83 ec 10             	sub    esp,0x10
  106a59:	c7 45 fc 00 00 00 00 	mov    DWORD PTR [ebp-0x4],0x0
  106a60:	eb 04                	jmp    106a66 <_fs_getid+0x13>
  106a62:	83 45 fc 01          	add    DWORD PTR [ebp-0x4],0x1
  106a66:	81 7d fc ff 00 00 00 	cmp    DWORD PTR [ebp-0x4],0xff
  106a6d:	7f 1e                	jg     106a8d <_fs_getid+0x3a>
  106a6f:	a1 80 ed 17 00       	mov    eax,ds:0x17ed80
  106a74:	8b 04 85 80 ed 13 00 	mov    eax,DWORD PTR [eax*4+0x13ed80]
  106a7b:	8b 40 20             	mov    eax,DWORD PTR [eax+0x20]
  106a7e:	8b 55 fc             	mov    edx,DWORD PTR [ebp-0x4]
  106a81:	c1 e2 04             	shl    edx,0x4
  106a84:	01 d0                	add    eax,edx
  106a86:	0f b6 00             	movzx  eax,BYTE PTR [eax]
  106a89:	84 c0                	test   al,al
  106a8b:	75 d5                	jne    106a62 <_fs_getid+0xf>
  106a8d:	81 7d fc 00 01 00 00 	cmp    DWORD PTR [ebp-0x4],0x100
  106a94:	7e 07                	jle    106a9d <_fs_getid+0x4a>
  106a96:	b8 ff ff ff ff       	mov    eax,0xffffffff
  106a9b:	eb 3a                	jmp    106ad7 <_fs_getid+0x84>
  106a9d:	a1 80 ed 17 00       	mov    eax,ds:0x17ed80
  106aa2:	8b 04 85 80 ed 13 00 	mov    eax,DWORD PTR [eax*4+0x13ed80]
  106aa9:	8b 40 20             	mov    eax,DWORD PTR [eax+0x20]
  106aac:	8b 55 fc             	mov    edx,DWORD PTR [ebp-0x4]
  106aaf:	c1 e2 04             	shl    edx,0x4
  106ab2:	01 d0                	add    eax,edx
  106ab4:	c6 00 01             	mov    BYTE PTR [eax],0x1
  106ab7:	a1 80 ed 17 00       	mov    eax,ds:0x17ed80
  106abc:	8b 04 85 80 ed 13 00 	mov    eax,DWORD PTR [eax*4+0x13ed80]
  106ac3:	8b 40 20             	mov    eax,DWORD PTR [eax+0x20]
  106ac6:	8b 55 fc             	mov    edx,DWORD PTR [ebp-0x4]
  106ac9:	c1 e2 04             	shl    edx,0x4
  106acc:	01 c2                	add    edx,eax
  106ace:	8b 45 08             	mov    eax,DWORD PTR [ebp+0x8]
  106ad1:	89 42 04             	mov    DWORD PTR [edx+0x4],eax
  106ad4:	8b 45 fc             	mov    eax,DWORD PTR [ebp-0x4]
  106ad7:	c9                   	leave  
  106ad8:	c3                   	ret    

00106ad9 <devfs_init>:
  106ad9:	55                   	push   ebp
  106ada:	89 e5                	mov    ebp,esp
  106adc:	8b 45 08             	mov    eax,DWORD PTR [ebp+0x8]
  106adf:	a3 e4 f8 17 00       	mov    ds:0x17f8e4,eax
  106ae4:	b8 00 00 00 00       	mov    eax,0x0
  106ae9:	5d                   	pop    ebp
  106aea:	c3                   	ret    

00106aeb <devfs_check_name>:
  106aeb:	55                   	push   ebp
  106aec:	89 e5                	mov    ebp,esp
  106aee:	83 ec 18             	sub    esp,0x18
  106af1:	83 ec 04             	sub    esp,0x4
  106af4:	6a 05                	push   0x5
  106af6:	ff 75 08             	push   DWORD PTR [ebp+0x8]
  106af9:	8d 45 f2             	lea    eax,[ebp-0xe]
  106afc:	50                   	push   eax
  106afd:	e8 7c e8 ff ff       	call   10537e <memcpy>
  106b02:	83 c4 10             	add    esp,0x10
  106b05:	c6 45 f7 00          	mov    BYTE PTR [ebp-0x9],0x0
  106b09:	83 ec 08             	sub    esp,0x8
  106b0c:	68 8b 9c 10 00       	push   0x109c8b
  106b11:	8d 45 f2             	lea    eax,[ebp-0xe]
  106b14:	50                   	push   eax
  106b15:	e8 c1 e8 ff ff       	call   1053db <streq>
  106b1a:	83 c4 10             	add    esp,0x10
  106b1d:	c9                   	leave  
  106b1e:	c3                   	ret    

00106b1f <devfs_open>:
  106b1f:	55                   	push   ebp
  106b20:	89 e5                	mov    ebp,esp
  106b22:	53                   	push   ebx
  106b23:	83 ec 14             	sub    esp,0x14
  106b26:	a1 e4 f8 17 00       	mov    eax,ds:0x17f8e4
  106b2b:	83 ec 0c             	sub    esp,0xc
  106b2e:	50                   	push   eax
  106b2f:	e8 1f ff ff ff       	call   106a53 <_fs_getid>
  106b34:	83 c4 10             	add    esp,0x10
  106b37:	89 45 f4             	mov    DWORD PTR [ebp-0xc],eax
  106b3a:	a1 80 ed 17 00       	mov    eax,ds:0x17ed80
  106b3f:	8b 04 85 80 ed 13 00 	mov    eax,DWORD PTR [eax*4+0x13ed80]
  106b46:	8b 40 20             	mov    eax,DWORD PTR [eax+0x20]
  106b49:	8b 55 f4             	mov    edx,DWORD PTR [ebp-0xc]
  106b4c:	c1 e2 04             	shl    edx,0x4
  106b4f:	01 d0                	add    eax,edx
  106b51:	8b 55 0c             	mov    edx,DWORD PTR [ebp+0xc]
  106b54:	88 50 01             	mov    BYTE PTR [eax+0x1],dl
  106b57:	a1 80 ed 17 00       	mov    eax,ds:0x17ed80
  106b5c:	8b 04 85 80 ed 13 00 	mov    eax,DWORD PTR [eax*4+0x13ed80]
  106b63:	8b 40 20             	mov    eax,DWORD PTR [eax+0x20]
  106b66:	8b 55 f4             	mov    edx,DWORD PTR [ebp-0xc]
  106b69:	c1 e2 04             	shl    edx,0x4
  106b6c:	8d 1c 10             	lea    ebx,[eax+edx*1]
  106b6f:	83 ec 0c             	sub    esp,0xc
  106b72:	ff 75 08             	push   DWORD PTR [ebp+0x8]
  106b75:	e8 39 e8 ff ff       	call   1053b3 <strlen>
  106b7a:	83 c4 10             	add    esp,0x10
  106b7d:	83 ec 0c             	sub    esp,0xc
  106b80:	50                   	push   eax
  106b81:	e8 f3 ba ff ff       	call   102679 <malloc>
  106b86:	83 c4 10             	add    esp,0x10
  106b89:	89 43 08             	mov    DWORD PTR [ebx+0x8],eax
  106b8c:	83 ec 0c             	sub    esp,0xc
  106b8f:	ff 75 08             	push   DWORD PTR [ebp+0x8]
  106b92:	e8 1c e8 ff ff       	call   1053b3 <strlen>
  106b97:	83 c4 10             	add    esp,0x10
  106b9a:	89 c1                	mov    ecx,eax
  106b9c:	a1 80 ed 17 00       	mov    eax,ds:0x17ed80
  106ba1:	8b 04 85 80 ed 13 00 	mov    eax,DWORD PTR [eax*4+0x13ed80]
  106ba8:	8b 40 20             	mov    eax,DWORD PTR [eax+0x20]
  106bab:	8b 55 f4             	mov    edx,DWORD PTR [ebp-0xc]
  106bae:	c1 e2 04             	shl    edx,0x4
  106bb1:	01 d0                	add    eax,edx
  106bb3:	8b 40 08             	mov    eax,DWORD PTR [eax+0x8]
  106bb6:	83 ec 04             	sub    esp,0x4
  106bb9:	51                   	push   ecx
  106bba:	ff 75 08             	push   DWORD PTR [ebp+0x8]
  106bbd:	50                   	push   eax
  106bbe:	e8 bb e7 ff ff       	call   10537e <memcpy>
  106bc3:	83 c4 10             	add    esp,0x10
  106bc6:	83 ec 08             	sub    esp,0x8
  106bc9:	68 91 9c 10 00       	push   0x109c91
  106bce:	ff 75 08             	push   DWORD PTR [ebp+0x8]
  106bd1:	e8 05 e8 ff ff       	call   1053db <streq>
  106bd6:	83 c4 10             	add    esp,0x10
  106bd9:	85 c0                	test   eax,eax
  106bdb:	75 17                	jne    106bf4 <devfs_open+0xd5>
  106bdd:	83 ec 08             	sub    esp,0x8
  106be0:	68 9d 9c 10 00       	push   0x109c9d
  106be5:	ff 75 08             	push   DWORD PTR [ebp+0x8]
  106be8:	e8 ee e7 ff ff       	call   1053db <streq>
  106bed:	83 c4 10             	add    esp,0x10
  106bf0:	85 c0                	test   eax,eax
  106bf2:	74 1e                	je     106c12 <devfs_open+0xf3>
  106bf4:	a1 80 ed 17 00       	mov    eax,ds:0x17ed80
  106bf9:	8b 04 85 80 ed 13 00 	mov    eax,DWORD PTR [eax*4+0x13ed80]
  106c00:	8b 40 20             	mov    eax,DWORD PTR [eax+0x20]
  106c03:	8b 55 f4             	mov    edx,DWORD PTR [ebp-0xc]
  106c06:	c1 e2 04             	shl    edx,0x4
  106c09:	01 d0                	add    eax,edx
  106c0b:	c7 40 0c 01 00 00 00 	mov    DWORD PTR [eax+0xc],0x1
  106c12:	8b 45 f4             	mov    eax,DWORD PTR [ebp-0xc]
  106c15:	8b 5d fc             	mov    ebx,DWORD PTR [ebp-0x4]
  106c18:	c9                   	leave  
  106c19:	c3                   	ret    

00106c1a <devfs_close>:
  106c1a:	55                   	push   ebp
  106c1b:	89 e5                	mov    ebp,esp
  106c1d:	83 ec 08             	sub    esp,0x8
  106c20:	a1 80 ed 17 00       	mov    eax,ds:0x17ed80
  106c25:	8b 04 85 80 ed 13 00 	mov    eax,DWORD PTR [eax*4+0x13ed80]
  106c2c:	8b 40 20             	mov    eax,DWORD PTR [eax+0x20]
  106c2f:	8b 55 08             	mov    edx,DWORD PTR [ebp+0x8]
  106c32:	c1 e2 04             	shl    edx,0x4
  106c35:	01 d0                	add    eax,edx
  106c37:	8b 40 08             	mov    eax,DWORD PTR [eax+0x8]
  106c3a:	83 ec 0c             	sub    esp,0xc
  106c3d:	50                   	push   eax
  106c3e:	e8 d1 bf ff ff       	call   102c14 <free>
  106c43:	83 c4 10             	add    esp,0x10
  106c46:	a1 80 ed 17 00       	mov    eax,ds:0x17ed80
  106c4b:	8b 04 85 80 ed 13 00 	mov    eax,DWORD PTR [eax*4+0x13ed80]
  106c52:	8b 40 20             	mov    eax,DWORD PTR [eax+0x20]
  106c55:	8b 55 08             	mov    edx,DWORD PTR [ebp+0x8]
  106c58:	c1 e2 04             	shl    edx,0x4
  106c5b:	01 d0                	add    eax,edx
  106c5d:	c6 00 00             	mov    BYTE PTR [eax],0x0
  106c60:	b8 00 00 00 00       	mov    eax,0x0
  106c65:	c9                   	leave  
  106c66:	c3                   	ret    

00106c67 <devfs_write>:
  106c67:	55                   	push   ebp
  106c68:	89 e5                	mov    ebp,esp
  106c6a:	83 ec 18             	sub    esp,0x18
  106c6d:	c7 45 f4 00 00 00 00 	mov    DWORD PTR [ebp-0xc],0x0
  106c74:	eb 3d                	jmp    106cb3 <devfs_write+0x4c>
  106c76:	a1 80 ed 17 00       	mov    eax,ds:0x17ed80
  106c7b:	8b 04 85 80 ed 13 00 	mov    eax,DWORD PTR [eax*4+0x13ed80]
  106c82:	8b 40 20             	mov    eax,DWORD PTR [eax+0x20]
  106c85:	8b 55 08             	mov    edx,DWORD PTR [ebp+0x8]
  106c88:	c1 e2 04             	shl    edx,0x4
  106c8b:	01 d0                	add    eax,edx
  106c8d:	8b 40 0c             	mov    eax,DWORD PTR [eax+0xc]
  106c90:	83 f8 01             	cmp    eax,0x1
  106c93:	75 1a                	jne    106caf <devfs_write+0x48>
  106c95:	8b 55 f4             	mov    edx,DWORD PTR [ebp-0xc]
  106c98:	8b 45 0c             	mov    eax,DWORD PTR [ebp+0xc]
  106c9b:	01 d0                	add    eax,edx
  106c9d:	0f b6 00             	movzx  eax,BYTE PTR [eax]
  106ca0:	0f be c0             	movsx  eax,al
  106ca3:	83 ec 0c             	sub    esp,0xc
  106ca6:	50                   	push   eax
  106ca7:	e8 4c a7 ff ff       	call   1013f8 <vga_putchar>
  106cac:	83 c4 10             	add    esp,0x10
  106caf:	83 45 f4 01          	add    DWORD PTR [ebp-0xc],0x1
  106cb3:	8b 45 f4             	mov    eax,DWORD PTR [ebp-0xc]
  106cb6:	3b 45 10             	cmp    eax,DWORD PTR [ebp+0x10]
  106cb9:	7c bb                	jl     106c76 <devfs_write+0xf>
  106cbb:	e8 a2 9e ff ff       	call   100b62 <vga_redraw>
  106cc0:	8b 45 10             	mov    eax,DWORD PTR [ebp+0x10]
  106cc3:	c9                   	leave  
  106cc4:	c3                   	ret    

00106cc5 <devfs_read>:
  106cc5:	55                   	push   ebp
  106cc6:	89 e5                	mov    ebp,esp
  106cc8:	83 ec 18             	sub    esp,0x18
  106ccb:	83 ec 08             	sub    esp,0x8
  106cce:	6a 14                	push   0x14
  106cd0:	6a 52                	push   0x52
  106cd2:	e8 2f a0 ff ff       	call   100d06 <vga_statchar>
  106cd7:	83 c4 10             	add    esp,0x10
  106cda:	c7 45 f4 00 00 00 00 	mov    DWORD PTR [ebp-0xc],0x0
  106ce1:	e9 b2 00 00 00       	jmp    106d98 <devfs_read+0xd3>
  106ce6:	a1 80 ed 17 00       	mov    eax,ds:0x17ed80
  106ceb:	8b 04 85 80 ed 13 00 	mov    eax,DWORD PTR [eax*4+0x13ed80]
  106cf2:	8b 40 20             	mov    eax,DWORD PTR [eax+0x20]
  106cf5:	8b 55 08             	mov    edx,DWORD PTR [ebp+0x8]
  106cf8:	c1 e2 04             	shl    edx,0x4
  106cfb:	01 d0                	add    eax,edx
  106cfd:	8b 40 0c             	mov    eax,DWORD PTR [eax+0xc]
  106d00:	83 f8 01             	cmp    eax,0x1
  106d03:	0f 85 8b 00 00 00    	jne    106d94 <devfs_read+0xcf>
  106d09:	fb                   	sti    
  106d0a:	90                   	nop
  106d0b:	8b 15 dc f8 17 00    	mov    edx,DWORD PTR ds:0x17f8dc
  106d11:	a1 d8 f8 17 00       	mov    eax,ds:0x17f8d8
  106d16:	39 c2                	cmp    edx,eax
  106d18:	74 f1                	je     106d0b <devfs_read+0x46>
  106d1a:	8b 0d 88 ed 17 00    	mov    ecx,DWORD PTR ds:0x17ed88
  106d20:	a1 dc f8 17 00       	mov    eax,ds:0x17f8dc
  106d25:	8d 50 01             	lea    edx,[eax+0x1]
  106d28:	89 15 dc f8 17 00    	mov    DWORD PTR ds:0x17f8dc,edx
  106d2e:	01 c8                	add    eax,ecx
  106d30:	0f b6 00             	movzx  eax,BYTE PTR [eax]
  106d33:	88 45 f3             	mov    BYTE PTR [ebp-0xd],al
  106d36:	a1 dc f8 17 00       	mov    eax,ds:0x17f8dc
  106d3b:	3d 00 04 00 00       	cmp    eax,0x400
  106d40:	7e 0a                	jle    106d4c <devfs_read+0x87>
  106d42:	c7 05 dc f8 17 00 00 	mov    DWORD PTR ds:0x17f8dc,0x0
  106d49:	00 00 00 
  106d4c:	8b 55 f4             	mov    edx,DWORD PTR [ebp-0xc]
  106d4f:	8b 45 0c             	mov    eax,DWORD PTR [ebp+0xc]
  106d52:	01 c2                	add    edx,eax
  106d54:	0f b6 45 f3          	movzx  eax,BYTE PTR [ebp-0xd]
  106d58:	88 02                	mov    BYTE PTR [edx],al
  106d5a:	80 7d f3 0a          	cmp    BYTE PTR [ebp-0xd],0xa
  106d5e:	74 06                	je     106d66 <devfs_read+0xa1>
  106d60:	80 7d f3 ff          	cmp    BYTE PTR [ebp-0xd],0xff
  106d64:	75 06                	jne    106d6c <devfs_read+0xa7>
  106d66:	83 45 f4 01          	add    DWORD PTR [ebp-0xc],0x1
  106d6a:	eb 38                	jmp    106da4 <devfs_read+0xdf>
  106d6c:	80 7d f3 08          	cmp    BYTE PTR [ebp-0xd],0x8
  106d70:	75 21                	jne    106d93 <devfs_read+0xce>
  106d72:	83 7d f4 00          	cmp    DWORD PTR [ebp-0xc],0x0
  106d76:	7e 14                	jle    106d8c <devfs_read+0xc7>
  106d78:	8b 45 f4             	mov    eax,DWORD PTR [ebp-0xc]
  106d7b:	8d 50 ff             	lea    edx,[eax-0x1]
  106d7e:	8b 45 0c             	mov    eax,DWORD PTR [ebp+0xc]
  106d81:	01 d0                	add    eax,edx
  106d83:	c6 00 00             	mov    BYTE PTR [eax],0x0
  106d86:	83 6d f4 02          	sub    DWORD PTR [ebp-0xc],0x2
  106d8a:	eb 07                	jmp    106d93 <devfs_read+0xce>
  106d8c:	c7 45 f4 ff ff ff ff 	mov    DWORD PTR [ebp-0xc],0xffffffff
  106d93:	fa                   	cli    
  106d94:	83 45 f4 01          	add    DWORD PTR [ebp-0xc],0x1
  106d98:	8b 45 f4             	mov    eax,DWORD PTR [ebp-0xc]
  106d9b:	3b 45 10             	cmp    eax,DWORD PTR [ebp+0x10]
  106d9e:	0f 8c 42 ff ff ff    	jl     106ce6 <devfs_read+0x21>
  106da4:	8b 55 f4             	mov    edx,DWORD PTR [ebp-0xc]
  106da7:	8b 45 0c             	mov    eax,DWORD PTR [ebp+0xc]
  106daa:	01 d0                	add    eax,edx
  106dac:	c6 00 00             	mov    BYTE PTR [eax],0x0
  106daf:	83 ec 08             	sub    esp,0x8
  106db2:	6a 14                	push   0x14
  106db4:	6a 2e                	push   0x2e
  106db6:	e8 4b 9f ff ff       	call   100d06 <vga_statchar>
  106dbb:	83 c4 10             	add    esp,0x10
  106dbe:	8b 45 f4             	mov    eax,DWORD PTR [ebp-0xc]
  106dc1:	c9                   	leave  
  106dc2:	c3                   	ret    

00106dc3 <read_within_sector>:
  106dc3:	55                   	push   ebp
  106dc4:	89 e5                	mov    ebp,esp
  106dc6:	83 ec 08             	sub    esp,0x8
  106dc9:	8b 45 08             	mov    eax,DWORD PTR [ebp+0x8]
  106dcc:	83 ec 08             	sub    esp,0x8
  106dcf:	68 40 f2 17 00       	push   0x17f240
  106dd4:	50                   	push   eax
  106dd5:	e8 6d f2 ff ff       	call   106047 <read_sector>
  106dda:	83 c4 10             	add    esp,0x10
  106ddd:	8b 45 10             	mov    eax,DWORD PTR [ebp+0x10]
  106de0:	8b 55 0c             	mov    edx,DWORD PTR [ebp+0xc]
  106de3:	81 c2 40 f2 17 00    	add    edx,0x17f240
  106de9:	83 ec 04             	sub    esp,0x4
  106dec:	50                   	push   eax
  106ded:	52                   	push   edx
  106dee:	ff 75 14             	push   DWORD PTR [ebp+0x14]
  106df1:	e8 88 e5 ff ff       	call   10537e <memcpy>
  106df6:	83 c4 10             	add    esp,0x10
  106df9:	c9                   	leave  
  106dfa:	c3                   	ret    

00106dfb <write_within_sector>:
  106dfb:	55                   	push   ebp
  106dfc:	89 e5                	mov    ebp,esp
  106dfe:	83 ec 08             	sub    esp,0x8
  106e01:	8b 45 08             	mov    eax,DWORD PTR [ebp+0x8]
  106e04:	83 ec 08             	sub    esp,0x8
  106e07:	68 40 f2 17 00       	push   0x17f240
  106e0c:	50                   	push   eax
  106e0d:	e8 35 f2 ff ff       	call   106047 <read_sector>
  106e12:	83 c4 10             	add    esp,0x10
  106e15:	8b 45 10             	mov    eax,DWORD PTR [ebp+0x10]
  106e18:	8b 55 0c             	mov    edx,DWORD PTR [ebp+0xc]
  106e1b:	81 c2 40 f2 17 00    	add    edx,0x17f240
  106e21:	83 ec 04             	sub    esp,0x4
  106e24:	50                   	push   eax
  106e25:	ff 75 14             	push   DWORD PTR [ebp+0x14]
  106e28:	52                   	push   edx
  106e29:	e8 50 e5 ff ff       	call   10537e <memcpy>
  106e2e:	83 c4 10             	add    esp,0x10
  106e31:	8b 45 08             	mov    eax,DWORD PTR [ebp+0x8]
  106e34:	83 ec 08             	sub    esp,0x8
  106e37:	68 40 f2 17 00       	push   0x17f240
  106e3c:	50                   	push   eax
  106e3d:	e8 a9 f2 ff ff       	call   1060eb <write_sector>
  106e42:	83 c4 10             	add    esp,0x10
  106e45:	c9                   	leave  
  106e46:	c3                   	ret    

00106e47 <e2fs_read_superblock>:
  106e47:	55                   	push   ebp
  106e48:	89 e5                	mov    ebp,esp
  106e4a:	83 ec 08             	sub    esp,0x8
  106e4d:	83 ec 08             	sub    esp,0x8
  106e50:	68 40 f2 17 00       	push   0x17f240
  106e55:	6a 02                	push   0x2
  106e57:	e8 eb f1 ff ff       	call   106047 <read_sector>
  106e5c:	83 c4 10             	add    esp,0x10
  106e5f:	83 ec 04             	sub    esp,0x4
  106e62:	6a 54                	push   0x54
  106e64:	68 40 f2 17 00       	push   0x17f240
  106e69:	68 40 f4 17 00       	push   0x17f440
  106e6e:	e8 0b e5 ff ff       	call   10537e <memcpy>
  106e73:	83 c4 10             	add    esp,0x10
  106e76:	c9                   	leave  
  106e77:	c3                   	ret    

00106e78 <read_block_raw>:
  106e78:	55                   	push   ebp
  106e79:	89 e5                	mov    ebp,esp
  106e7b:	83 ec 18             	sub    esp,0x18
  106e7e:	a1 58 f4 17 00       	mov    eax,ds:0x17f458
  106e83:	ba 00 04 00 00       	mov    edx,0x400
  106e88:	89 c1                	mov    ecx,eax
  106e8a:	d3 e2                	shl    edx,cl
  106e8c:	89 d0                	mov    eax,edx
  106e8e:	8d 90 ff 01 00 00    	lea    edx,[eax+0x1ff]
  106e94:	85 c0                	test   eax,eax
  106e96:	0f 48 c2             	cmovs  eax,edx
  106e99:	c1 f8 09             	sar    eax,0x9
  106e9c:	89 45 f0             	mov    DWORD PTR [ebp-0x10],eax
  106e9f:	8b 45 08             	mov    eax,DWORD PTR [ebp+0x8]
  106ea2:	0f af 45 f0          	imul   eax,DWORD PTR [ebp-0x10]
  106ea6:	89 45 ec             	mov    DWORD PTR [ebp-0x14],eax
  106ea9:	c7 45 f4 00 00 00 00 	mov    DWORD PTR [ebp-0xc],0x0
  106eb0:	eb 26                	jmp    106ed8 <read_block_raw+0x60>
  106eb2:	8b 45 f4             	mov    eax,DWORD PTR [ebp-0xc]
  106eb5:	c1 e0 09             	shl    eax,0x9
  106eb8:	89 c2                	mov    edx,eax
  106eba:	8b 45 0c             	mov    eax,DWORD PTR [ebp+0xc]
  106ebd:	01 d0                	add    eax,edx
  106ebf:	8b 4d ec             	mov    ecx,DWORD PTR [ebp-0x14]
  106ec2:	8b 55 f4             	mov    edx,DWORD PTR [ebp-0xc]
  106ec5:	01 ca                	add    edx,ecx
  106ec7:	83 ec 08             	sub    esp,0x8
  106eca:	50                   	push   eax
  106ecb:	52                   	push   edx
  106ecc:	e8 76 f1 ff ff       	call   106047 <read_sector>
  106ed1:	83 c4 10             	add    esp,0x10
  106ed4:	83 45 f4 01          	add    DWORD PTR [ebp-0xc],0x1
  106ed8:	8b 45 f4             	mov    eax,DWORD PTR [ebp-0xc]
  106edb:	3b 45 f0             	cmp    eax,DWORD PTR [ebp-0x10]
  106ede:	7c d2                	jl     106eb2 <read_block_raw+0x3a>
  106ee0:	c9                   	leave  
  106ee1:	c3                   	ret    

00106ee2 <write_block_raw>:
  106ee2:	55                   	push   ebp
  106ee3:	89 e5                	mov    ebp,esp
  106ee5:	83 ec 18             	sub    esp,0x18
  106ee8:	a1 58 f4 17 00       	mov    eax,ds:0x17f458
  106eed:	ba 00 04 00 00       	mov    edx,0x400
  106ef2:	89 c1                	mov    ecx,eax
  106ef4:	d3 e2                	shl    edx,cl
  106ef6:	89 d0                	mov    eax,edx
  106ef8:	8d 90 ff 01 00 00    	lea    edx,[eax+0x1ff]
  106efe:	85 c0                	test   eax,eax
  106f00:	0f 48 c2             	cmovs  eax,edx
  106f03:	c1 f8 09             	sar    eax,0x9
  106f06:	89 45 f0             	mov    DWORD PTR [ebp-0x10],eax
  106f09:	8b 45 08             	mov    eax,DWORD PTR [ebp+0x8]
  106f0c:	0f af 45 f0          	imul   eax,DWORD PTR [ebp-0x10]
  106f10:	89 45 ec             	mov    DWORD PTR [ebp-0x14],eax
  106f13:	c7 45 f4 00 00 00 00 	mov    DWORD PTR [ebp-0xc],0x0
  106f1a:	eb 26                	jmp    106f42 <write_block_raw+0x60>
  106f1c:	8b 45 f4             	mov    eax,DWORD PTR [ebp-0xc]
  106f1f:	c1 e0 09             	shl    eax,0x9
  106f22:	89 c2                	mov    edx,eax
  106f24:	8b 45 0c             	mov    eax,DWORD PTR [ebp+0xc]
  106f27:	01 d0                	add    eax,edx
  106f29:	8b 4d ec             	mov    ecx,DWORD PTR [ebp-0x14]
  106f2c:	8b 55 f4             	mov    edx,DWORD PTR [ebp-0xc]
  106f2f:	01 ca                	add    edx,ecx
  106f31:	83 ec 08             	sub    esp,0x8
  106f34:	50                   	push   eax
  106f35:	52                   	push   edx
  106f36:	e8 b0 f1 ff ff       	call   1060eb <write_sector>
  106f3b:	83 c4 10             	add    esp,0x10
  106f3e:	83 45 f4 01          	add    DWORD PTR [ebp-0xc],0x1
  106f42:	8b 45 f4             	mov    eax,DWORD PTR [ebp-0xc]
  106f45:	3b 45 f0             	cmp    eax,DWORD PTR [ebp-0x10]
  106f48:	7c d2                	jl     106f1c <write_block_raw+0x3a>
  106f4a:	c9                   	leave  
  106f4b:	c3                   	ret    

00106f4c <read_within_block>:
  106f4c:	55                   	push   ebp
  106f4d:	89 e5                	mov    ebp,esp
  106f4f:	83 ec 08             	sub    esp,0x8
  106f52:	83 ec 08             	sub    esp,0x8
  106f55:	68 94 f4 17 00       	push   0x17f494
  106f5a:	ff 75 08             	push   DWORD PTR [ebp+0x8]
  106f5d:	e8 16 ff ff ff       	call   106e78 <read_block_raw>
  106f62:	83 c4 10             	add    esp,0x10
  106f65:	8b 45 10             	mov    eax,DWORD PTR [ebp+0x10]
  106f68:	8b 55 0c             	mov    edx,DWORD PTR [ebp+0xc]
  106f6b:	81 c2 50 02 00 00    	add    edx,0x250
  106f71:	81 c2 40 f2 17 00    	add    edx,0x17f240
  106f77:	83 c2 04             	add    edx,0x4
  106f7a:	83 ec 04             	sub    esp,0x4
  106f7d:	50                   	push   eax
  106f7e:	52                   	push   edx
  106f7f:	ff 75 14             	push   DWORD PTR [ebp+0x14]
  106f82:	e8 f7 e3 ff ff       	call   10537e <memcpy>
  106f87:	83 c4 10             	add    esp,0x10
  106f8a:	c9                   	leave  
  106f8b:	c3                   	ret    

00106f8c <write_within_block>:
  106f8c:	55                   	push   ebp
  106f8d:	89 e5                	mov    ebp,esp
  106f8f:	83 ec 08             	sub    esp,0x8
  106f92:	83 ec 08             	sub    esp,0x8
  106f95:	68 94 f4 17 00       	push   0x17f494
  106f9a:	ff 75 08             	push   DWORD PTR [ebp+0x8]
  106f9d:	e8 d6 fe ff ff       	call   106e78 <read_block_raw>
  106fa2:	83 c4 10             	add    esp,0x10
  106fa5:	8b 45 10             	mov    eax,DWORD PTR [ebp+0x10]
  106fa8:	8b 55 0c             	mov    edx,DWORD PTR [ebp+0xc]
  106fab:	81 c2 50 02 00 00    	add    edx,0x250
  106fb1:	81 c2 40 f2 17 00    	add    edx,0x17f240
  106fb7:	83 c2 04             	add    edx,0x4
  106fba:	83 ec 04             	sub    esp,0x4
  106fbd:	50                   	push   eax
  106fbe:	ff 75 14             	push   DWORD PTR [ebp+0x14]
  106fc1:	52                   	push   edx
  106fc2:	e8 b7 e3 ff ff       	call   10537e <memcpy>
  106fc7:	83 c4 10             	add    esp,0x10
  106fca:	83 ec 08             	sub    esp,0x8
  106fcd:	68 94 f4 17 00       	push   0x17f494
  106fd2:	ff 75 08             	push   DWORD PTR [ebp+0x8]
  106fd5:	e8 08 ff ff ff       	call   106ee2 <write_block_raw>
  106fda:	83 c4 10             	add    esp,0x10
  106fdd:	c9                   	leave  
  106fde:	c3                   	ret    

00106fdf <bmread>:
  106fdf:	55                   	push   ebp
  106fe0:	89 e5                	mov    ebp,esp
  106fe2:	53                   	push   ebx
  106fe3:	83 ec 14             	sub    esp,0x14
  106fe6:	8b 45 0c             	mov    eax,DWORD PTR [ebp+0xc]
  106fe9:	8d 50 07             	lea    edx,[eax+0x7]
  106fec:	85 c0                	test   eax,eax
  106fee:	0f 48 c2             	cmovs  eax,edx
  106ff1:	c1 f8 03             	sar    eax,0x3
  106ff4:	89 c2                	mov    edx,eax
  106ff6:	a1 58 f4 17 00       	mov    eax,ds:0x17f458
  106ffb:	bb 00 04 00 00       	mov    ebx,0x400
  107000:	89 c1                	mov    ecx,eax
  107002:	d3 e3                	shl    ebx,cl
  107004:	89 d9                	mov    ecx,ebx
  107006:	89 d0                	mov    eax,edx
  107008:	99                   	cdq    
  107009:	f7 f9                	idiv   ecx
  10700b:	89 55 f4             	mov    DWORD PTR [ebp-0xc],edx
  10700e:	8b 45 0c             	mov    eax,DWORD PTR [ebp+0xc]
  107011:	99                   	cdq    
  107012:	c1 ea 1d             	shr    edx,0x1d
  107015:	01 d0                	add    eax,edx
  107017:	83 e0 07             	and    eax,0x7
  10701a:	29 d0                	sub    eax,edx
  10701c:	89 45 f0             	mov    DWORD PTR [ebp-0x10],eax
  10701f:	8b 45 0c             	mov    eax,DWORD PTR [ebp+0xc]
  107022:	8d 50 07             	lea    edx,[eax+0x7]
  107025:	85 c0                	test   eax,eax
  107027:	0f 48 c2             	cmovs  eax,edx
  10702a:	c1 f8 03             	sar    eax,0x3
  10702d:	89 c3                	mov    ebx,eax
  10702f:	a1 58 f4 17 00       	mov    eax,ds:0x17f458
  107034:	ba 00 04 00 00       	mov    edx,0x400
  107039:	89 c1                	mov    ecx,eax
  10703b:	d3 e2                	shl    edx,cl
  10703d:	89 d1                	mov    ecx,edx
  10703f:	89 d8                	mov    eax,ebx
  107041:	99                   	cdq    
  107042:	f7 f9                	idiv   ecx
  107044:	89 c2                	mov    edx,eax
  107046:	8b 45 08             	mov    eax,DWORD PTR [ebp+0x8]
  107049:	01 d0                	add    eax,edx
  10704b:	89 45 ec             	mov    DWORD PTR [ebp-0x14],eax
  10704e:	8d 45 eb             	lea    eax,[ebp-0x15]
  107051:	50                   	push   eax
  107052:	6a 01                	push   0x1
  107054:	ff 75 f4             	push   DWORD PTR [ebp-0xc]
  107057:	ff 75 ec             	push   DWORD PTR [ebp-0x14]
  10705a:	e8 ed fe ff ff       	call   106f4c <read_within_block>
  10705f:	83 c4 10             	add    esp,0x10
  107062:	0f b6 45 eb          	movzx  eax,BYTE PTR [ebp-0x15]
  107066:	0f b6 d0             	movzx  edx,al
  107069:	8b 45 f0             	mov    eax,DWORD PTR [ebp-0x10]
  10706c:	89 c1                	mov    ecx,eax
  10706e:	d3 fa                	sar    edx,cl
  107070:	89 d0                	mov    eax,edx
  107072:	83 e0 01             	and    eax,0x1
  107075:	85 c0                	test   eax,eax
  107077:	0f 95 c0             	setne  al
  10707a:	8b 5d fc             	mov    ebx,DWORD PTR [ebp-0x4]
  10707d:	c9                   	leave  
  10707e:	c3                   	ret    

0010707f <bmwrite>:
  10707f:	55                   	push   ebp
  107080:	89 e5                	mov    ebp,esp
  107082:	53                   	push   ebx
  107083:	83 ec 14             	sub    esp,0x14
  107086:	8b 45 0c             	mov    eax,DWORD PTR [ebp+0xc]
  107089:	8d 50 07             	lea    edx,[eax+0x7]
  10708c:	85 c0                	test   eax,eax
  10708e:	0f 48 c2             	cmovs  eax,edx
  107091:	c1 f8 03             	sar    eax,0x3
  107094:	89 c2                	mov    edx,eax
  107096:	a1 58 f4 17 00       	mov    eax,ds:0x17f458
  10709b:	bb 00 04 00 00       	mov    ebx,0x400
  1070a0:	89 c1                	mov    ecx,eax
  1070a2:	d3 e3                	shl    ebx,cl
  1070a4:	89 d9                	mov    ecx,ebx
  1070a6:	89 d0                	mov    eax,edx
  1070a8:	99                   	cdq    
  1070a9:	f7 f9                	idiv   ecx
  1070ab:	89 55 f4             	mov    DWORD PTR [ebp-0xc],edx
  1070ae:	8b 45 0c             	mov    eax,DWORD PTR [ebp+0xc]
  1070b1:	99                   	cdq    
  1070b2:	c1 ea 1d             	shr    edx,0x1d
  1070b5:	01 d0                	add    eax,edx
  1070b7:	83 e0 07             	and    eax,0x7
  1070ba:	29 d0                	sub    eax,edx
  1070bc:	89 45 f0             	mov    DWORD PTR [ebp-0x10],eax
  1070bf:	8b 45 0c             	mov    eax,DWORD PTR [ebp+0xc]
  1070c2:	8d 50 07             	lea    edx,[eax+0x7]
  1070c5:	85 c0                	test   eax,eax
  1070c7:	0f 48 c2             	cmovs  eax,edx
  1070ca:	c1 f8 03             	sar    eax,0x3
  1070cd:	89 c3                	mov    ebx,eax
  1070cf:	a1 58 f4 17 00       	mov    eax,ds:0x17f458
  1070d4:	ba 00 04 00 00       	mov    edx,0x400
  1070d9:	89 c1                	mov    ecx,eax
  1070db:	d3 e2                	shl    edx,cl
  1070dd:	89 d1                	mov    ecx,edx
  1070df:	89 d8                	mov    eax,ebx
  1070e1:	99                   	cdq    
  1070e2:	f7 f9                	idiv   ecx
  1070e4:	89 c2                	mov    edx,eax
  1070e6:	8b 45 08             	mov    eax,DWORD PTR [ebp+0x8]
  1070e9:	01 d0                	add    eax,edx
  1070eb:	89 45 ec             	mov    DWORD PTR [ebp-0x14],eax
  1070ee:	8d 45 eb             	lea    eax,[ebp-0x15]
  1070f1:	50                   	push   eax
  1070f2:	6a 01                	push   0x1
  1070f4:	ff 75 f4             	push   DWORD PTR [ebp-0xc]
  1070f7:	ff 75 ec             	push   DWORD PTR [ebp-0x14]
  1070fa:	e8 4d fe ff ff       	call   106f4c <read_within_block>
  1070ff:	83 c4 10             	add    esp,0x10
  107102:	8b 45 f0             	mov    eax,DWORD PTR [ebp-0x10]
  107105:	ba 01 00 00 00       	mov    edx,0x1
  10710a:	89 c1                	mov    ecx,eax
  10710c:	d3 e2                	shl    edx,cl
  10710e:	89 d0                	mov    eax,edx
  107110:	f7 d0                	not    eax
  107112:	89 c2                	mov    edx,eax
  107114:	0f b6 45 eb          	movzx  eax,BYTE PTR [ebp-0x15]
  107118:	21 d0                	and    eax,edx
  10711a:	88 45 eb             	mov    BYTE PTR [ebp-0x15],al
  10711d:	83 7d 10 00          	cmp    DWORD PTR [ebp+0x10],0x0
  107121:	0f 95 c0             	setne  al
  107124:	0f b6 d0             	movzx  edx,al
  107127:	8b 45 f0             	mov    eax,DWORD PTR [ebp-0x10]
  10712a:	89 c1                	mov    ecx,eax
  10712c:	d3 e2                	shl    edx,cl
  10712e:	89 d0                	mov    eax,edx
  107130:	89 c2                	mov    edx,eax
  107132:	0f b6 45 eb          	movzx  eax,BYTE PTR [ebp-0x15]
  107136:	09 d0                	or     eax,edx
  107138:	88 45 eb             	mov    BYTE PTR [ebp-0x15],al
  10713b:	8d 45 eb             	lea    eax,[ebp-0x15]
  10713e:	50                   	push   eax
  10713f:	6a 01                	push   0x1
  107141:	ff 75 f4             	push   DWORD PTR [ebp-0xc]
  107144:	ff 75 ec             	push   DWORD PTR [ebp-0x14]
  107147:	e8 40 fe ff ff       	call   106f8c <write_within_block>
  10714c:	83 c4 10             	add    esp,0x10
  10714f:	8b 5d fc             	mov    ebx,DWORD PTR [ebp-0x4]
  107152:	c9                   	leave  
  107153:	c3                   	ret    

00107154 <read_bgd>:
  107154:	55                   	push   ebp
  107155:	89 e5                	mov    ebp,esp
  107157:	53                   	push   ebx
  107158:	83 ec 14             	sub    esp,0x14
  10715b:	8b 45 08             	mov    eax,DWORD PTR [ebp+0x8]
  10715e:	8b 15 58 f4 17 00    	mov    edx,DWORD PTR ds:0x17f458
  107164:	bb 00 04 00 00       	mov    ebx,0x400
  107169:	89 d1                	mov    ecx,edx
  10716b:	d3 e3                	shl    ebx,cl
  10716d:	89 da                	mov    edx,ebx
  10716f:	89 d1                	mov    ecx,edx
  107171:	c1 e9 05             	shr    ecx,0x5
  107174:	ba 00 00 00 00       	mov    edx,0x0
  107179:	f7 f1                	div    ecx
  10717b:	83 c0 02             	add    eax,0x2
  10717e:	89 45 f4             	mov    DWORD PTR [ebp-0xc],eax
  107181:	8b 45 08             	mov    eax,DWORD PTR [ebp+0x8]
  107184:	8b 15 58 f4 17 00    	mov    edx,DWORD PTR ds:0x17f458
  10718a:	bb 00 04 00 00       	mov    ebx,0x400
  10718f:	89 d1                	mov    ecx,edx
  107191:	d3 e3                	shl    ebx,cl
  107193:	89 da                	mov    edx,ebx
  107195:	89 d1                	mov    ecx,edx
  107197:	c1 e9 05             	shr    ecx,0x5
  10719a:	ba 00 00 00 00       	mov    edx,0x0
  10719f:	f7 f1                	div    ecx
  1071a1:	89 d0                	mov    eax,edx
  1071a3:	c1 e0 05             	shl    eax,0x5
  1071a6:	89 45 f0             	mov    DWORD PTR [ebp-0x10],eax
  1071a9:	ff 75 0c             	push   DWORD PTR [ebp+0xc]
  1071ac:	6a 20                	push   0x20
  1071ae:	ff 75 f0             	push   DWORD PTR [ebp-0x10]
  1071b1:	ff 75 f4             	push   DWORD PTR [ebp-0xc]
  1071b4:	e8 93 fd ff ff       	call   106f4c <read_within_block>
  1071b9:	83 c4 10             	add    esp,0x10
  1071bc:	8b 5d fc             	mov    ebx,DWORD PTR [ebp-0x4]
  1071bf:	c9                   	leave  
  1071c0:	c3                   	ret    

001071c1 <write_bgd>:
  1071c1:	55                   	push   ebp
  1071c2:	89 e5                	mov    ebp,esp
  1071c4:	53                   	push   ebx
  1071c5:	83 ec 14             	sub    esp,0x14
  1071c8:	8b 45 08             	mov    eax,DWORD PTR [ebp+0x8]
  1071cb:	8b 15 58 f4 17 00    	mov    edx,DWORD PTR ds:0x17f458
  1071d1:	bb 00 04 00 00       	mov    ebx,0x400
  1071d6:	89 d1                	mov    ecx,edx
  1071d8:	d3 e3                	shl    ebx,cl
  1071da:	89 da                	mov    edx,ebx
  1071dc:	89 d1                	mov    ecx,edx
  1071de:	c1 e9 05             	shr    ecx,0x5
  1071e1:	ba 00 00 00 00       	mov    edx,0x0
  1071e6:	f7 f1                	div    ecx
  1071e8:	83 c0 02             	add    eax,0x2
  1071eb:	89 45 f4             	mov    DWORD PTR [ebp-0xc],eax
  1071ee:	8b 45 08             	mov    eax,DWORD PTR [ebp+0x8]
  1071f1:	8b 15 58 f4 17 00    	mov    edx,DWORD PTR ds:0x17f458
  1071f7:	bb 00 04 00 00       	mov    ebx,0x400
  1071fc:	89 d1                	mov    ecx,edx
  1071fe:	d3 e3                	shl    ebx,cl
  107200:	89 da                	mov    edx,ebx
  107202:	89 d1                	mov    ecx,edx
  107204:	c1 e9 05             	shr    ecx,0x5
  107207:	ba 00 00 00 00       	mov    edx,0x0
  10720c:	f7 f1                	div    ecx
  10720e:	89 d0                	mov    eax,edx
  107210:	c1 e0 05             	shl    eax,0x5
  107213:	89 45 f0             	mov    DWORD PTR [ebp-0x10],eax
  107216:	ff 75 0c             	push   DWORD PTR [ebp+0xc]
  107219:	6a 20                	push   0x20
  10721b:	ff 75 f0             	push   DWORD PTR [ebp-0x10]
  10721e:	ff 75 f4             	push   DWORD PTR [ebp-0xc]
  107221:	e8 66 fd ff ff       	call   106f8c <write_within_block>
  107226:	83 c4 10             	add    esp,0x10
  107229:	8b 5d fc             	mov    ebx,DWORD PTR [ebp-0x4]
  10722c:	c9                   	leave  
  10722d:	c3                   	ret    

0010722e <e2fs_read_inode>:
  10722e:	55                   	push   ebp
  10722f:	89 e5                	mov    ebp,esp
  107231:	53                   	push   ebx
  107232:	83 ec 34             	sub    esp,0x34
  107235:	8b 45 08             	mov    eax,DWORD PTR [ebp+0x8]
  107238:	83 e8 01             	sub    eax,0x1
  10723b:	8b 1d 68 f4 17 00    	mov    ebx,DWORD PTR ds:0x17f468
  107241:	ba 00 00 00 00       	mov    edx,0x0
  107246:	f7 f3                	div    ebx
  107248:	89 45 f4             	mov    DWORD PTR [ebp-0xc],eax
  10724b:	8b 45 08             	mov    eax,DWORD PTR [ebp+0x8]
  10724e:	83 e8 01             	sub    eax,0x1
  107251:	8b 0d 68 f4 17 00    	mov    ecx,DWORD PTR ds:0x17f468
  107257:	ba 00 00 00 00       	mov    edx,0x0
  10725c:	f7 f1                	div    ecx
  10725e:	89 d0                	mov    eax,edx
  107260:	89 45 f0             	mov    DWORD PTR [ebp-0x10],eax
  107263:	83 ec 08             	sub    esp,0x8
  107266:	8d 45 c8             	lea    eax,[ebp-0x38]
  107269:	50                   	push   eax
  10726a:	ff 75 f4             	push   DWORD PTR [ebp-0xc]
  10726d:	e8 e2 fe ff ff       	call   107154 <read_bgd>
  107272:	83 c4 10             	add    esp,0x10
  107275:	8b 45 f0             	mov    eax,DWORD PTR [ebp-0x10]
  107278:	c1 e0 07             	shl    eax,0x7
  10727b:	89 c2                	mov    edx,eax
  10727d:	a1 58 f4 17 00       	mov    eax,ds:0x17f458
  107282:	83 c0 0a             	add    eax,0xa
  107285:	89 c1                	mov    ecx,eax
  107287:	d3 ea                	shr    edx,cl
  107289:	8b 45 d0             	mov    eax,DWORD PTR [ebp-0x30]
  10728c:	01 d0                	add    eax,edx
  10728e:	89 45 ec             	mov    DWORD PTR [ebp-0x14],eax
  107291:	8b 45 f0             	mov    eax,DWORD PTR [ebp-0x10]
  107294:	c1 e0 07             	shl    eax,0x7
  107297:	89 c2                	mov    edx,eax
  107299:	a1 58 f4 17 00       	mov    eax,ds:0x17f458
  10729e:	bb 00 04 00 00       	mov    ebx,0x400
  1072a3:	89 c1                	mov    ecx,eax
  1072a5:	d3 e3                	shl    ebx,cl
  1072a7:	89 d8                	mov    eax,ebx
  1072a9:	83 e8 01             	sub    eax,0x1
  1072ac:	21 d0                	and    eax,edx
  1072ae:	89 45 e8             	mov    DWORD PTR [ebp-0x18],eax
  1072b1:	ff 75 0c             	push   DWORD PTR [ebp+0xc]
  1072b4:	68 80 00 00 00       	push   0x80
  1072b9:	ff 75 e8             	push   DWORD PTR [ebp-0x18]
  1072bc:	ff 75 ec             	push   DWORD PTR [ebp-0x14]
  1072bf:	e8 88 fc ff ff       	call   106f4c <read_within_block>
  1072c4:	83 c4 10             	add    esp,0x10
  1072c7:	8b 5d fc             	mov    ebx,DWORD PTR [ebp-0x4]
  1072ca:	c9                   	leave  
  1072cb:	c3                   	ret    

001072cc <e2fs_write_inode>:
  1072cc:	55                   	push   ebp
  1072cd:	89 e5                	mov    ebp,esp
  1072cf:	53                   	push   ebx
  1072d0:	83 ec 34             	sub    esp,0x34
  1072d3:	8b 45 08             	mov    eax,DWORD PTR [ebp+0x8]
  1072d6:	83 e8 01             	sub    eax,0x1
  1072d9:	8b 1d 68 f4 17 00    	mov    ebx,DWORD PTR ds:0x17f468
  1072df:	ba 00 00 00 00       	mov    edx,0x0
  1072e4:	f7 f3                	div    ebx
  1072e6:	89 45 f4             	mov    DWORD PTR [ebp-0xc],eax
  1072e9:	8b 45 08             	mov    eax,DWORD PTR [ebp+0x8]
  1072ec:	83 e8 01             	sub    eax,0x1
  1072ef:	8b 0d 68 f4 17 00    	mov    ecx,DWORD PTR ds:0x17f468
  1072f5:	ba 00 00 00 00       	mov    edx,0x0
  1072fa:	f7 f1                	div    ecx
  1072fc:	89 d0                	mov    eax,edx
  1072fe:	89 45 f0             	mov    DWORD PTR [ebp-0x10],eax
  107301:	83 ec 08             	sub    esp,0x8
  107304:	8d 45 c8             	lea    eax,[ebp-0x38]
  107307:	50                   	push   eax
  107308:	ff 75 f4             	push   DWORD PTR [ebp-0xc]
  10730b:	e8 44 fe ff ff       	call   107154 <read_bgd>
  107310:	83 c4 10             	add    esp,0x10
  107313:	8b 45 f0             	mov    eax,DWORD PTR [ebp-0x10]
  107316:	c1 e0 07             	shl    eax,0x7
  107319:	89 c2                	mov    edx,eax
  10731b:	a1 58 f4 17 00       	mov    eax,ds:0x17f458
  107320:	83 c0 0a             	add    eax,0xa
  107323:	89 c1                	mov    ecx,eax
  107325:	d3 ea                	shr    edx,cl
  107327:	8b 45 d0             	mov    eax,DWORD PTR [ebp-0x30]
  10732a:	01 d0                	add    eax,edx
  10732c:	89 45 ec             	mov    DWORD PTR [ebp-0x14],eax
  10732f:	8b 45 f0             	mov    eax,DWORD PTR [ebp-0x10]
  107332:	c1 e0 07             	shl    eax,0x7
  107335:	89 c2                	mov    edx,eax
  107337:	a1 58 f4 17 00       	mov    eax,ds:0x17f458
  10733c:	bb 00 04 00 00       	mov    ebx,0x400
  107341:	89 c1                	mov    ecx,eax
  107343:	d3 e3                	shl    ebx,cl
  107345:	89 d8                	mov    eax,ebx
  107347:	83 e8 01             	sub    eax,0x1
  10734a:	21 d0                	and    eax,edx
  10734c:	89 45 e8             	mov    DWORD PTR [ebp-0x18],eax
  10734f:	ff 75 0c             	push   DWORD PTR [ebp+0xc]
  107352:	68 80 00 00 00       	push   0x80
  107357:	ff 75 e8             	push   DWORD PTR [ebp-0x18]
  10735a:	ff 75 ec             	push   DWORD PTR [ebp-0x14]
  10735d:	e8 2a fc ff ff       	call   106f8c <write_within_block>
  107362:	83 c4 10             	add    esp,0x10
  107365:	8b 5d fc             	mov    ebx,DWORD PTR [ebp-0x4]
  107368:	c9                   	leave  
  107369:	c3                   	ret    

0010736a <get_inode_bnum>:
  10736a:	55                   	push   ebp
  10736b:	89 e5                	mov    ebp,esp
  10736d:	83 ec 18             	sub    esp,0x18
  107370:	83 7d 0c 0b          	cmp    DWORD PTR [ebp+0xc],0xb
  107374:	7f 12                	jg     107388 <get_inode_bnum+0x1e>
  107376:	8b 45 08             	mov    eax,DWORD PTR [ebp+0x8]
  107379:	8b 55 0c             	mov    edx,DWORD PTR [ebp+0xc]
  10737c:	83 c2 08             	add    edx,0x8
  10737f:	8b 44 90 08          	mov    eax,DWORD PTR [eax+edx*4+0x8]
  107383:	89 45 f4             	mov    DWORD PTR [ebp-0xc],eax
  107386:	eb 10                	jmp    107398 <get_inode_bnum+0x2e>
  107388:	83 ec 0c             	sub    esp,0xc
  10738b:	68 a8 9c 10 00       	push   0x109ca8
  107390:	e8 41 a2 ff ff       	call   1015d6 <printf>
  107395:	83 c4 10             	add    esp,0x10
  107398:	8b 45 f4             	mov    eax,DWORD PTR [ebp-0xc]
  10739b:	c9                   	leave  
  10739c:	c3                   	ret    

0010739d <set_inode_bnum>:
  10739d:	55                   	push   ebp
  10739e:	89 e5                	mov    ebp,esp
  1073a0:	83 ec 08             	sub    esp,0x8
  1073a3:	83 7d 0c 0b          	cmp    DWORD PTR [ebp+0xc],0xb
  1073a7:	7f 12                	jg     1073bb <set_inode_bnum+0x1e>
  1073a9:	8b 55 10             	mov    edx,DWORD PTR [ebp+0x10]
  1073ac:	8b 45 08             	mov    eax,DWORD PTR [ebp+0x8]
  1073af:	8b 4d 0c             	mov    ecx,DWORD PTR [ebp+0xc]
  1073b2:	83 c1 08             	add    ecx,0x8
  1073b5:	89 54 88 08          	mov    DWORD PTR [eax+ecx*4+0x8],edx
  1073b9:	eb 10                	jmp    1073cb <set_inode_bnum+0x2e>
  1073bb:	83 ec 0c             	sub    esp,0xc
  1073be:	68 e4 9c 10 00       	push   0x109ce4
  1073c3:	e8 0e a2 ff ff       	call   1015d6 <printf>
  1073c8:	83 c4 10             	add    esp,0x10
  1073cb:	c9                   	leave  
  1073cc:	c3                   	ret    

001073cd <get_inode_block>:
  1073cd:	55                   	push   ebp
  1073ce:	89 e5                	mov    ebp,esp
  1073d0:	83 ec 18             	sub    esp,0x18
  1073d3:	83 7d 0c 0b          	cmp    DWORD PTR [ebp+0xc],0xb
  1073d7:	7f 12                	jg     1073eb <get_inode_block+0x1e>
  1073d9:	8b 45 08             	mov    eax,DWORD PTR [ebp+0x8]
  1073dc:	8b 55 0c             	mov    edx,DWORD PTR [ebp+0xc]
  1073df:	83 c2 08             	add    edx,0x8
  1073e2:	8b 44 90 08          	mov    eax,DWORD PTR [eax+edx*4+0x8]
  1073e6:	89 45 f4             	mov    DWORD PTR [ebp-0xc],eax
  1073e9:	eb 10                	jmp    1073fb <get_inode_block+0x2e>
  1073eb:	83 ec 0c             	sub    esp,0xc
  1073ee:	68 20 9d 10 00       	push   0x109d20
  1073f3:	e8 de a1 ff ff       	call   1015d6 <printf>
  1073f8:	83 c4 10             	add    esp,0x10
  1073fb:	83 ec 08             	sub    esp,0x8
  1073fe:	ff 75 10             	push   DWORD PTR [ebp+0x10]
  107401:	ff 75 f4             	push   DWORD PTR [ebp-0xc]
  107404:	e8 6f fa ff ff       	call   106e78 <read_block_raw>
  107409:	83 c4 10             	add    esp,0x10
  10740c:	c9                   	leave  
  10740d:	c3                   	ret    

0010740e <put_inode_block>:
  10740e:	55                   	push   ebp
  10740f:	89 e5                	mov    ebp,esp
  107411:	83 ec 18             	sub    esp,0x18
  107414:	83 7d 0c 0b          	cmp    DWORD PTR [ebp+0xc],0xb
  107418:	7f 12                	jg     10742c <put_inode_block+0x1e>
  10741a:	8b 45 08             	mov    eax,DWORD PTR [ebp+0x8]
  10741d:	8b 55 0c             	mov    edx,DWORD PTR [ebp+0xc]
  107420:	83 c2 08             	add    edx,0x8
  107423:	8b 44 90 08          	mov    eax,DWORD PTR [eax+edx*4+0x8]
  107427:	89 45 f4             	mov    DWORD PTR [ebp-0xc],eax
  10742a:	eb 10                	jmp    10743c <put_inode_block+0x2e>
  10742c:	83 ec 0c             	sub    esp,0xc
  10742f:	68 54 9d 10 00       	push   0x109d54
  107434:	e8 9d a1 ff ff       	call   1015d6 <printf>
  107439:	83 c4 10             	add    esp,0x10
  10743c:	83 ec 08             	sub    esp,0x8
  10743f:	ff 75 10             	push   DWORD PTR [ebp+0x10]
  107442:	ff 75 f4             	push   DWORD PTR [ebp-0xc]
  107445:	e8 98 fa ff ff       	call   106ee2 <write_block_raw>
  10744a:	83 c4 10             	add    esp,0x10
  10744d:	c9                   	leave  
  10744e:	c3                   	ret    

0010744f <get_first_free_block>:
  10744f:	55                   	push   ebp
  107450:	89 e5                	mov    ebp,esp
  107452:	83 ec 38             	sub    esp,0x38
  107455:	c7 45 f4 00 00 00 00 	mov    DWORD PTR [ebp-0xc],0x0
  10745c:	eb 57                	jmp    1074b5 <get_first_free_block+0x66>
  10745e:	8b 45 f4             	mov    eax,DWORD PTR [ebp-0xc]
  107461:	83 ec 08             	sub    esp,0x8
  107464:	8d 55 d0             	lea    edx,[ebp-0x30]
  107467:	52                   	push   edx
  107468:	50                   	push   eax
  107469:	e8 e6 fc ff ff       	call   107154 <read_bgd>
  10746e:	83 c4 10             	add    esp,0x10
  107471:	c7 45 f0 00 00 00 00 	mov    DWORD PTR [ebp-0x10],0x0
  107478:	eb 2d                	jmp    1074a7 <get_first_free_block+0x58>
  10747a:	8b 45 f0             	mov    eax,DWORD PTR [ebp-0x10]
  10747d:	8b 55 d0             	mov    edx,DWORD PTR [ebp-0x30]
  107480:	83 ec 08             	sub    esp,0x8
  107483:	50                   	push   eax
  107484:	52                   	push   edx
  107485:	e8 55 fb ff ff       	call   106fdf <bmread>
  10748a:	83 c4 10             	add    esp,0x10
  10748d:	84 c0                	test   al,al
  10748f:	75 12                	jne    1074a3 <get_first_free_block+0x54>
  107491:	a1 60 f4 17 00       	mov    eax,ds:0x17f460
  107496:	0f af 45 f4          	imul   eax,DWORD PTR [ebp-0xc]
  10749a:	89 c2                	mov    edx,eax
  10749c:	8b 45 f0             	mov    eax,DWORD PTR [ebp-0x10]
  10749f:	01 d0                	add    eax,edx
  1074a1:	eb 2e                	jmp    1074d1 <get_first_free_block+0x82>
  1074a3:	83 45 f0 01          	add    DWORD PTR [ebp-0x10],0x1
  1074a7:	a1 60 f4 17 00       	mov    eax,ds:0x17f460
  1074ac:	3b 45 f0             	cmp    eax,DWORD PTR [ebp-0x10]
  1074af:	77 c9                	ja     10747a <get_first_free_block+0x2b>
  1074b1:	83 45 f4 01          	add    DWORD PTR [ebp-0xc],0x1
  1074b5:	a1 44 f4 17 00       	mov    eax,ds:0x17f444
  1074ba:	8b 0d 60 f4 17 00    	mov    ecx,DWORD PTR ds:0x17f460
  1074c0:	ba 00 00 00 00       	mov    edx,0x0
  1074c5:	f7 f1                	div    ecx
  1074c7:	3b 45 f4             	cmp    eax,DWORD PTR [ebp-0xc]
  1074ca:	77 92                	ja     10745e <get_first_free_block+0xf>
  1074cc:	b8 ff ff ff ff       	mov    eax,0xffffffff
  1074d1:	c9                   	leave  
  1074d2:	c3                   	ret    

001074d3 <get_first_free_inode>:
  1074d3:	55                   	push   ebp
  1074d4:	89 e5                	mov    ebp,esp
  1074d6:	83 ec 38             	sub    esp,0x38
  1074d9:	c7 45 f4 00 00 00 00 	mov    DWORD PTR [ebp-0xc],0x0
  1074e0:	eb 5a                	jmp    10753c <get_first_free_inode+0x69>
  1074e2:	8b 45 f4             	mov    eax,DWORD PTR [ebp-0xc]
  1074e5:	83 ec 08             	sub    esp,0x8
  1074e8:	8d 55 d0             	lea    edx,[ebp-0x30]
  1074eb:	52                   	push   edx
  1074ec:	50                   	push   eax
  1074ed:	e8 62 fc ff ff       	call   107154 <read_bgd>
  1074f2:	83 c4 10             	add    esp,0x10
  1074f5:	c7 45 f0 00 00 00 00 	mov    DWORD PTR [ebp-0x10],0x0
  1074fc:	eb 30                	jmp    10752e <get_first_free_inode+0x5b>
  1074fe:	8b 45 f0             	mov    eax,DWORD PTR [ebp-0x10]
  107501:	8b 55 d4             	mov    edx,DWORD PTR [ebp-0x2c]
  107504:	83 ec 08             	sub    esp,0x8
  107507:	50                   	push   eax
  107508:	52                   	push   edx
  107509:	e8 d1 fa ff ff       	call   106fdf <bmread>
  10750e:	83 c4 10             	add    esp,0x10
  107511:	84 c0                	test   al,al
  107513:	75 15                	jne    10752a <get_first_free_inode+0x57>
  107515:	a1 68 f4 17 00       	mov    eax,ds:0x17f468
  10751a:	0f af 45 f4          	imul   eax,DWORD PTR [ebp-0xc]
  10751e:	89 c2                	mov    edx,eax
  107520:	8b 45 f0             	mov    eax,DWORD PTR [ebp-0x10]
  107523:	01 d0                	add    eax,edx
  107525:	83 c0 01             	add    eax,0x1
  107528:	eb 2e                	jmp    107558 <get_first_free_inode+0x85>
  10752a:	83 45 f0 01          	add    DWORD PTR [ebp-0x10],0x1
  10752e:	a1 68 f4 17 00       	mov    eax,ds:0x17f468
  107533:	3b 45 f0             	cmp    eax,DWORD PTR [ebp-0x10]
  107536:	77 c6                	ja     1074fe <get_first_free_inode+0x2b>
  107538:	83 45 f4 01          	add    DWORD PTR [ebp-0xc],0x1
  10753c:	a1 40 f4 17 00       	mov    eax,ds:0x17f440
  107541:	8b 0d 68 f4 17 00    	mov    ecx,DWORD PTR ds:0x17f468
  107547:	ba 00 00 00 00       	mov    edx,0x0
  10754c:	f7 f1                	div    ecx
  10754e:	3b 45 f4             	cmp    eax,DWORD PTR [ebp-0xc]
  107551:	77 8f                	ja     1074e2 <get_first_free_inode+0xf>
  107553:	b8 ff ff ff ff       	mov    eax,0xffffffff
  107558:	c9                   	leave  
  107559:	c3                   	ret    

0010755a <allocate_block>:
  10755a:	55                   	push   ebp
  10755b:	89 e5                	mov    ebp,esp
  10755d:	83 ec 38             	sub    esp,0x38
  107560:	e8 ea fe ff ff       	call   10744f <get_first_free_block>
  107565:	89 45 f4             	mov    DWORD PTR [ebp-0xc],eax
  107568:	8b 45 f4             	mov    eax,DWORD PTR [ebp-0xc]
  10756b:	8b 0d 60 f4 17 00    	mov    ecx,DWORD PTR ds:0x17f460
  107571:	ba 00 00 00 00       	mov    edx,0x0
  107576:	f7 f1                	div    ecx
  107578:	89 c2                	mov    edx,eax
  10757a:	83 ec 08             	sub    esp,0x8
  10757d:	8d 45 d4             	lea    eax,[ebp-0x2c]
  107580:	50                   	push   eax
  107581:	52                   	push   edx
  107582:	e8 cd fb ff ff       	call   107154 <read_bgd>
  107587:	83 c4 10             	add    esp,0x10
  10758a:	8b 45 f4             	mov    eax,DWORD PTR [ebp-0xc]
  10758d:	8b 0d 60 f4 17 00    	mov    ecx,DWORD PTR ds:0x17f460
  107593:	ba 00 00 00 00       	mov    edx,0x0
  107598:	f7 f1                	div    ecx
  10759a:	89 d0                	mov    eax,edx
  10759c:	89 c2                	mov    edx,eax
  10759e:	8b 45 d4             	mov    eax,DWORD PTR [ebp-0x2c]
  1075a1:	83 ec 04             	sub    esp,0x4
  1075a4:	6a 01                	push   0x1
  1075a6:	52                   	push   edx
  1075a7:	50                   	push   eax
  1075a8:	e8 d2 fa ff ff       	call   10707f <bmwrite>
  1075ad:	83 c4 10             	add    esp,0x10
  1075b0:	8b 45 f4             	mov    eax,DWORD PTR [ebp-0xc]
  1075b3:	c9                   	leave  
  1075b4:	c3                   	ret    

001075b5 <add_block_to_inode>:
  1075b5:	55                   	push   ebp
  1075b6:	89 e5                	mov    ebp,esp
  1075b8:	83 ec 18             	sub    esp,0x18
  1075bb:	8b 45 0c             	mov    eax,DWORD PTR [ebp+0xc]
  1075be:	8b 50 04             	mov    edx,DWORD PTR [eax+0x4]
  1075c1:	a1 58 f4 17 00       	mov    eax,ds:0x17f458
  1075c6:	83 c0 0a             	add    eax,0xa
  1075c9:	89 c1                	mov    ecx,eax
  1075cb:	d3 ea                	shr    edx,cl
  1075cd:	89 d0                	mov    eax,edx
  1075cf:	89 45 f4             	mov    DWORD PTR [ebp-0xc],eax
  1075d2:	83 7d f4 0b          	cmp    DWORD PTR [ebp-0xc],0xb
  1075d6:	7f 16                	jg     1075ee <add_block_to_inode+0x39>
  1075d8:	e8 7d ff ff ff       	call   10755a <allocate_block>
  1075dd:	89 c1                	mov    ecx,eax
  1075df:	8b 45 0c             	mov    eax,DWORD PTR [ebp+0xc]
  1075e2:	8b 55 f4             	mov    edx,DWORD PTR [ebp-0xc]
  1075e5:	83 c2 08             	add    edx,0x8
  1075e8:	89 4c 90 08          	mov    DWORD PTR [eax+edx*4+0x8],ecx
  1075ec:	eb 10                	jmp    1075fe <add_block_to_inode+0x49>
  1075ee:	83 ec 0c             	sub    esp,0xc
  1075f1:	68 88 9d 10 00       	push   0x109d88
  1075f6:	e8 db 9f ff ff       	call   1015d6 <printf>
  1075fb:	83 c4 10             	add    esp,0x10
  1075fe:	83 ec 08             	sub    esp,0x8
  107601:	ff 75 0c             	push   DWORD PTR [ebp+0xc]
  107604:	ff 75 08             	push   DWORD PTR [ebp+0x8]
  107607:	e8 c0 fc ff ff       	call   1072cc <e2fs_write_inode>
  10760c:	83 c4 10             	add    esp,0x10
  10760f:	c9                   	leave  
  107610:	c3                   	ret    

00107611 <guarantee_inode_size>:
  107611:	55                   	push   ebp
  107612:	89 e5                	mov    ebp,esp
  107614:	53                   	push   ebx
  107615:	83 ec 14             	sub    esp,0x14
  107618:	8b 45 0c             	mov    eax,DWORD PTR [ebp+0xc]
  10761b:	8b 40 04             	mov    eax,DWORD PTR [eax+0x4]
  10761e:	89 45 f0             	mov    DWORD PTR [ebp-0x10],eax
  107621:	8b 45 10             	mov    eax,DWORD PTR [ebp+0x10]
  107624:	3b 45 f0             	cmp    eax,DWORD PTR [ebp-0x10]
  107627:	7d 05                	jge    10762e <guarantee_inode_size+0x1d>
  107629:	e9 88 00 00 00       	jmp    1076b6 <guarantee_inode_size+0xa5>
  10762e:	8b 45 10             	mov    eax,DWORD PTR [ebp+0x10]
  107631:	2b 45 f0             	sub    eax,DWORD PTR [ebp-0x10]
  107634:	89 45 f4             	mov    DWORD PTR [ebp-0xc],eax
  107637:	a1 58 f4 17 00       	mov    eax,ds:0x17f458
  10763c:	ba 00 04 00 00       	mov    edx,0x400
  107641:	89 d3                	mov    ebx,edx
  107643:	89 c1                	mov    ecx,eax
  107645:	d3 e3                	shl    ebx,cl
  107647:	a1 58 f4 17 00       	mov    eax,ds:0x17f458
  10764c:	ba 00 04 00 00       	mov    edx,0x400
  107651:	89 c1                	mov    ecx,eax
  107653:	d3 e2                	shl    edx,cl
  107655:	89 d1                	mov    ecx,edx
  107657:	8b 45 f0             	mov    eax,DWORD PTR [ebp-0x10]
  10765a:	99                   	cdq    
  10765b:	f7 f9                	idiv   ecx
  10765d:	89 d0                	mov    eax,edx
  10765f:	29 c3                	sub    ebx,eax
  107661:	89 d8                	mov    eax,ebx
  107663:	8b 15 58 f4 17 00    	mov    edx,DWORD PTR ds:0x17f458
  107669:	bb 00 04 00 00       	mov    ebx,0x400
  10766e:	89 d1                	mov    ecx,edx
  107670:	d3 e3                	shl    ebx,cl
  107672:	89 d9                	mov    ecx,ebx
  107674:	99                   	cdq    
  107675:	f7 f9                	idiv   ecx
  107677:	89 55 ec             	mov    DWORD PTR [ebp-0x14],edx
  10767a:	8b 45 ec             	mov    eax,DWORD PTR [ebp-0x14]
  10767d:	3b 45 f4             	cmp    eax,DWORD PTR [ebp-0xc]
  107680:	7e 02                	jle    107684 <guarantee_inode_size+0x73>
  107682:	eb 32                	jmp    1076b6 <guarantee_inode_size+0xa5>
  107684:	8b 45 ec             	mov    eax,DWORD PTR [ebp-0x14]
  107687:	29 45 f4             	sub    DWORD PTR [ebp-0xc],eax
  10768a:	eb 24                	jmp    1076b0 <guarantee_inode_size+0x9f>
  10768c:	83 ec 08             	sub    esp,0x8
  10768f:	ff 75 0c             	push   DWORD PTR [ebp+0xc]
  107692:	ff 75 08             	push   DWORD PTR [ebp+0x8]
  107695:	e8 1b ff ff ff       	call   1075b5 <add_block_to_inode>
  10769a:	83 c4 10             	add    esp,0x10
  10769d:	a1 58 f4 17 00       	mov    eax,ds:0x17f458
  1076a2:	ba 00 04 00 00       	mov    edx,0x400
  1076a7:	89 c1                	mov    ecx,eax
  1076a9:	d3 e2                	shl    edx,cl
  1076ab:	89 d0                	mov    eax,edx
  1076ad:	29 45 f4             	sub    DWORD PTR [ebp-0xc],eax
  1076b0:	83 7d f4 00          	cmp    DWORD PTR [ebp-0xc],0x0
  1076b4:	7f d6                	jg     10768c <guarantee_inode_size+0x7b>
  1076b6:	8b 55 10             	mov    edx,DWORD PTR [ebp+0x10]
  1076b9:	8b 45 0c             	mov    eax,DWORD PTR [ebp+0xc]
  1076bc:	89 50 04             	mov    DWORD PTR [eax+0x4],edx
  1076bf:	83 ec 08             	sub    esp,0x8
  1076c2:	ff 75 0c             	push   DWORD PTR [ebp+0xc]
  1076c5:	ff 75 08             	push   DWORD PTR [ebp+0x8]
  1076c8:	e8 ff fb ff ff       	call   1072cc <e2fs_write_inode>
  1076cd:	83 c4 10             	add    esp,0x10
  1076d0:	8b 5d fc             	mov    ebx,DWORD PTR [ebp-0x4]
  1076d3:	c9                   	leave  
  1076d4:	c3                   	ret    

001076d5 <iread>:
  1076d5:	55                   	push   ebp
  1076d6:	89 e5                	mov    ebp,esp
  1076d8:	53                   	push   ebx
  1076d9:	83 ec 14             	sub    esp,0x14
  1076dc:	8b 55 10             	mov    edx,DWORD PTR [ebp+0x10]
  1076df:	8b 45 14             	mov    eax,DWORD PTR [ebp+0x14]
  1076e2:	01 d0                	add    eax,edx
  1076e4:	89 c2                	mov    edx,eax
  1076e6:	8b 45 08             	mov    eax,DWORD PTR [ebp+0x8]
  1076e9:	8b 40 04             	mov    eax,DWORD PTR [eax+0x4]
  1076ec:	39 c2                	cmp    edx,eax
  1076ee:	76 24                	jbe    107714 <iread+0x3f>
  1076f0:	8b 45 08             	mov    eax,DWORD PTR [ebp+0x8]
  1076f3:	8b 50 04             	mov    edx,DWORD PTR [eax+0x4]
  1076f6:	8b 45 10             	mov    eax,DWORD PTR [ebp+0x10]
  1076f9:	29 c2                	sub    edx,eax
  1076fb:	89 d0                	mov    eax,edx
  1076fd:	50                   	push   eax
  1076fe:	ff 75 10             	push   DWORD PTR [ebp+0x10]
  107701:	ff 75 0c             	push   DWORD PTR [ebp+0xc]
  107704:	ff 75 08             	push   DWORD PTR [ebp+0x8]
  107707:	e8 c9 ff ff ff       	call   1076d5 <iread>
  10770c:	83 c4 10             	add    esp,0x10
  10770f:	e9 76 01 00 00       	jmp    10788a <iread+0x1b5>
  107714:	a1 58 f4 17 00       	mov    eax,ds:0x17f458
  107719:	ba 00 04 00 00       	mov    edx,0x400
  10771e:	89 c1                	mov    ecx,eax
  107720:	89 d3                	mov    ebx,edx
  107722:	d3 e3                	shl    ebx,cl
  107724:	8b 45 10             	mov    eax,DWORD PTR [ebp+0x10]
  107727:	99                   	cdq    
  107728:	f7 fb                	idiv   ebx
  10772a:	83 ec 04             	sub    esp,0x4
  10772d:	68 94 f4 17 00       	push   0x17f494
  107732:	50                   	push   eax
  107733:	ff 75 08             	push   DWORD PTR [ebp+0x8]
  107736:	e8 92 fc ff ff       	call   1073cd <get_inode_block>
  10773b:	83 c4 10             	add    esp,0x10
  10773e:	a1 58 f4 17 00       	mov    eax,ds:0x17f458
  107743:	ba 00 04 00 00       	mov    edx,0x400
  107748:	89 d3                	mov    ebx,edx
  10774a:	89 c1                	mov    ecx,eax
  10774c:	d3 e3                	shl    ebx,cl
  10774e:	a1 58 f4 17 00       	mov    eax,ds:0x17f458
  107753:	ba 00 04 00 00       	mov    edx,0x400
  107758:	89 c1                	mov    ecx,eax
  10775a:	d3 e2                	shl    edx,cl
  10775c:	89 d1                	mov    ecx,edx
  10775e:	8b 45 10             	mov    eax,DWORD PTR [ebp+0x10]
  107761:	99                   	cdq    
  107762:	f7 f9                	idiv   ecx
  107764:	89 d0                	mov    eax,edx
  107766:	29 c3                	sub    ebx,eax
  107768:	89 d8                	mov    eax,ebx
  10776a:	89 45 ec             	mov    DWORD PTR [ebp-0x14],eax
  10776d:	c7 45 f4 00 00 00 00 	mov    DWORD PTR [ebp-0xc],0x0
  107774:	8b 5d 14             	mov    ebx,DWORD PTR [ebp+0x14]
  107777:	a1 58 f4 17 00       	mov    eax,ds:0x17f458
  10777c:	ba 00 04 00 00       	mov    edx,0x400
  107781:	89 c1                	mov    ecx,eax
  107783:	d3 e2                	shl    edx,cl
  107785:	89 d1                	mov    ecx,edx
  107787:	8b 45 10             	mov    eax,DWORD PTR [ebp+0x10]
  10778a:	99                   	cdq    
  10778b:	f7 f9                	idiv   ecx
  10778d:	89 d0                	mov    eax,edx
  10778f:	05 50 02 00 00       	add    eax,0x250
  107794:	05 40 f2 17 00       	add    eax,0x17f240
  107799:	83 c0 04             	add    eax,0x4
  10779c:	83 ec 04             	sub    esp,0x4
  10779f:	53                   	push   ebx
  1077a0:	50                   	push   eax
  1077a1:	ff 75 0c             	push   DWORD PTR [ebp+0xc]
  1077a4:	e8 d5 db ff ff       	call   10537e <memcpy>
  1077a9:	83 c4 10             	add    esp,0x10
  1077ac:	8b 45 ec             	mov    eax,DWORD PTR [ebp-0x14]
  1077af:	3b 45 14             	cmp    eax,DWORD PTR [ebp+0x14]
  1077b2:	7c 08                	jl     1077bc <iread+0xe7>
  1077b4:	8b 45 14             	mov    eax,DWORD PTR [ebp+0x14]
  1077b7:	e9 ce 00 00 00       	jmp    10788a <iread+0x1b5>
  1077bc:	8b 45 ec             	mov    eax,DWORD PTR [ebp-0x14]
  1077bf:	89 45 f4             	mov    DWORD PTR [ebp-0xc],eax
  1077c2:	a1 58 f4 17 00       	mov    eax,ds:0x17f458
  1077c7:	ba 00 04 00 00       	mov    edx,0x400
  1077cc:	89 c1                	mov    ecx,eax
  1077ce:	89 d3                	mov    ebx,edx
  1077d0:	d3 e3                	shl    ebx,cl
  1077d2:	8b 45 10             	mov    eax,DWORD PTR [ebp+0x10]
  1077d5:	99                   	cdq    
  1077d6:	f7 fb                	idiv   ebx
  1077d8:	83 c0 01             	add    eax,0x1
  1077db:	89 45 f0             	mov    DWORD PTR [ebp-0x10],eax
  1077de:	e9 98 00 00 00       	jmp    10787b <iread+0x1a6>
  1077e3:	8b 45 f0             	mov    eax,DWORD PTR [ebp-0x10]
  1077e6:	8d 50 01             	lea    edx,[eax+0x1]
  1077e9:	89 55 f0             	mov    DWORD PTR [ebp-0x10],edx
  1077ec:	83 ec 04             	sub    esp,0x4
  1077ef:	68 94 f4 17 00       	push   0x17f494
  1077f4:	50                   	push   eax
  1077f5:	ff 75 08             	push   DWORD PTR [ebp+0x8]
  1077f8:	e8 d0 fb ff ff       	call   1073cd <get_inode_block>
  1077fd:	83 c4 10             	add    esp,0x10
  107800:	a1 58 f4 17 00       	mov    eax,ds:0x17f458
  107805:	ba 00 04 00 00       	mov    edx,0x400
  10780a:	89 c1                	mov    ecx,eax
  10780c:	d3 e2                	shl    edx,cl
  10780e:	8b 45 f4             	mov    eax,DWORD PTR [ebp-0xc]
  107811:	01 d0                	add    eax,edx
  107813:	3b 45 14             	cmp    eax,DWORD PTR [ebp+0x14]
  107816:	7e 24                	jle    10783c <iread+0x167>
  107818:	8b 45 14             	mov    eax,DWORD PTR [ebp+0x14]
  10781b:	2b 45 f4             	sub    eax,DWORD PTR [ebp-0xc]
  10781e:	89 c1                	mov    ecx,eax
  107820:	8b 55 f4             	mov    edx,DWORD PTR [ebp-0xc]
  107823:	8b 45 0c             	mov    eax,DWORD PTR [ebp+0xc]
  107826:	01 d0                	add    eax,edx
  107828:	83 ec 04             	sub    esp,0x4
  10782b:	51                   	push   ecx
  10782c:	68 94 f4 17 00       	push   0x17f494
  107831:	50                   	push   eax
  107832:	e8 47 db ff ff       	call   10537e <memcpy>
  107837:	83 c4 10             	add    esp,0x10
  10783a:	eb 2c                	jmp    107868 <iread+0x193>
  10783c:	a1 58 f4 17 00       	mov    eax,ds:0x17f458
  107841:	ba 00 04 00 00       	mov    edx,0x400
  107846:	89 c1                	mov    ecx,eax
  107848:	d3 e2                	shl    edx,cl
  10784a:	89 d0                	mov    eax,edx
  10784c:	89 c1                	mov    ecx,eax
  10784e:	8b 55 f4             	mov    edx,DWORD PTR [ebp-0xc]
  107851:	8b 45 0c             	mov    eax,DWORD PTR [ebp+0xc]
  107854:	01 d0                	add    eax,edx
  107856:	83 ec 04             	sub    esp,0x4
  107859:	51                   	push   ecx
  10785a:	68 94 f4 17 00       	push   0x17f494
  10785f:	50                   	push   eax
  107860:	e8 19 db ff ff       	call   10537e <memcpy>
  107865:	83 c4 10             	add    esp,0x10
  107868:	a1 58 f4 17 00       	mov    eax,ds:0x17f458
  10786d:	ba 00 04 00 00       	mov    edx,0x400
  107872:	89 c1                	mov    ecx,eax
  107874:	d3 e2                	shl    edx,cl
  107876:	89 d0                	mov    eax,edx
  107878:	01 45 f4             	add    DWORD PTR [ebp-0xc],eax
  10787b:	8b 45 f4             	mov    eax,DWORD PTR [ebp-0xc]
  10787e:	3b 45 14             	cmp    eax,DWORD PTR [ebp+0x14]
  107881:	0f 8c 5c ff ff ff    	jl     1077e3 <iread+0x10e>
  107887:	8b 45 14             	mov    eax,DWORD PTR [ebp+0x14]
  10788a:	8b 5d fc             	mov    ebx,DWORD PTR [ebp-0x4]
  10788d:	c9                   	leave  
  10788e:	c3                   	ret    

0010788f <iwrite>:
  10788f:	55                   	push   ebp
  107890:	89 e5                	mov    ebp,esp
  107892:	53                   	push   ebx
  107893:	83 ec 14             	sub    esp,0x14
  107896:	8b 45 0c             	mov    eax,DWORD PTR [ebp+0xc]
  107899:	8b 40 04             	mov    eax,DWORD PTR [eax+0x4]
  10789c:	50                   	push   eax
  10789d:	ff 75 18             	push   DWORD PTR [ebp+0x18]
  1078a0:	ff 75 14             	push   DWORD PTR [ebp+0x14]
  1078a3:	68 bb 9d 10 00       	push   0x109dbb
  1078a8:	e8 29 9d ff ff       	call   1015d6 <printf>
  1078ad:	83 c4 10             	add    esp,0x10
  1078b0:	8b 55 14             	mov    edx,DWORD PTR [ebp+0x14]
  1078b3:	8b 45 18             	mov    eax,DWORD PTR [ebp+0x18]
  1078b6:	01 d0                	add    eax,edx
  1078b8:	83 ec 04             	sub    esp,0x4
  1078bb:	50                   	push   eax
  1078bc:	ff 75 0c             	push   DWORD PTR [ebp+0xc]
  1078bf:	ff 75 08             	push   DWORD PTR [ebp+0x8]
  1078c2:	e8 4a fd ff ff       	call   107611 <guarantee_inode_size>
  1078c7:	83 c4 10             	add    esp,0x10
  1078ca:	a1 58 f4 17 00       	mov    eax,ds:0x17f458
  1078cf:	ba 00 04 00 00       	mov    edx,0x400
  1078d4:	89 c1                	mov    ecx,eax
  1078d6:	89 d3                	mov    ebx,edx
  1078d8:	d3 e3                	shl    ebx,cl
  1078da:	8b 45 14             	mov    eax,DWORD PTR [ebp+0x14]
  1078dd:	99                   	cdq    
  1078de:	f7 fb                	idiv   ebx
  1078e0:	83 ec 04             	sub    esp,0x4
  1078e3:	68 94 f4 17 00       	push   0x17f494
  1078e8:	50                   	push   eax
  1078e9:	ff 75 0c             	push   DWORD PTR [ebp+0xc]
  1078ec:	e8 dc fa ff ff       	call   1073cd <get_inode_block>
  1078f1:	83 c4 10             	add    esp,0x10
  1078f4:	a1 58 f4 17 00       	mov    eax,ds:0x17f458
  1078f9:	ba 00 04 00 00       	mov    edx,0x400
  1078fe:	89 d3                	mov    ebx,edx
  107900:	89 c1                	mov    ecx,eax
  107902:	d3 e3                	shl    ebx,cl
  107904:	a1 58 f4 17 00       	mov    eax,ds:0x17f458
  107909:	ba 00 04 00 00       	mov    edx,0x400
  10790e:	89 c1                	mov    ecx,eax
  107910:	d3 e2                	shl    edx,cl
  107912:	89 d1                	mov    ecx,edx
  107914:	8b 45 14             	mov    eax,DWORD PTR [ebp+0x14]
  107917:	99                   	cdq    
  107918:	f7 f9                	idiv   ecx
  10791a:	89 d0                	mov    eax,edx
  10791c:	29 c3                	sub    ebx,eax
  10791e:	89 d8                	mov    eax,ebx
  107920:	89 45 ec             	mov    DWORD PTR [ebp-0x14],eax
  107923:	c7 45 f4 00 00 00 00 	mov    DWORD PTR [ebp-0xc],0x0
  10792a:	8b 45 ec             	mov    eax,DWORD PTR [ebp-0x14]
  10792d:	39 45 18             	cmp    DWORD PTR [ebp+0x18],eax
  107930:	0f 4e 45 18          	cmovle eax,DWORD PTR [ebp+0x18]
  107934:	89 c3                	mov    ebx,eax
  107936:	a1 58 f4 17 00       	mov    eax,ds:0x17f458
  10793b:	ba 00 04 00 00       	mov    edx,0x400
  107940:	89 c1                	mov    ecx,eax
  107942:	d3 e2                	shl    edx,cl
  107944:	89 d1                	mov    ecx,edx
  107946:	8b 45 14             	mov    eax,DWORD PTR [ebp+0x14]
  107949:	99                   	cdq    
  10794a:	f7 f9                	idiv   ecx
  10794c:	89 d0                	mov    eax,edx
  10794e:	05 50 02 00 00       	add    eax,0x250
  107953:	05 40 f2 17 00       	add    eax,0x17f240
  107958:	83 c0 04             	add    eax,0x4
  10795b:	83 ec 04             	sub    esp,0x4
  10795e:	53                   	push   ebx
  10795f:	ff 75 10             	push   DWORD PTR [ebp+0x10]
  107962:	50                   	push   eax
  107963:	e8 16 da ff ff       	call   10537e <memcpy>
  107968:	83 c4 10             	add    esp,0x10
  10796b:	a1 58 f4 17 00       	mov    eax,ds:0x17f458
  107970:	ba 00 04 00 00       	mov    edx,0x400
  107975:	89 c1                	mov    ecx,eax
  107977:	89 d3                	mov    ebx,edx
  107979:	d3 e3                	shl    ebx,cl
  10797b:	8b 45 14             	mov    eax,DWORD PTR [ebp+0x14]
  10797e:	99                   	cdq    
  10797f:	f7 fb                	idiv   ebx
  107981:	83 ec 04             	sub    esp,0x4
  107984:	68 94 f4 17 00       	push   0x17f494
  107989:	50                   	push   eax
  10798a:	ff 75 0c             	push   DWORD PTR [ebp+0xc]
  10798d:	e8 7c fa ff ff       	call   10740e <put_inode_block>
  107992:	83 c4 10             	add    esp,0x10
  107995:	8b 45 ec             	mov    eax,DWORD PTR [ebp-0x14]
  107998:	3b 45 18             	cmp    eax,DWORD PTR [ebp+0x18]
  10799b:	7c 08                	jl     1079a5 <iwrite+0x116>
  10799d:	8b 45 18             	mov    eax,DWORD PTR [ebp+0x18]
  1079a0:	e9 e4 00 00 00       	jmp    107a89 <iwrite+0x1fa>
  1079a5:	8b 45 ec             	mov    eax,DWORD PTR [ebp-0x14]
  1079a8:	89 45 f4             	mov    DWORD PTR [ebp-0xc],eax
  1079ab:	a1 58 f4 17 00       	mov    eax,ds:0x17f458
  1079b0:	ba 00 04 00 00       	mov    edx,0x400
  1079b5:	89 c1                	mov    ecx,eax
  1079b7:	89 d3                	mov    ebx,edx
  1079b9:	d3 e3                	shl    ebx,cl
  1079bb:	8b 45 14             	mov    eax,DWORD PTR [ebp+0x14]
  1079be:	99                   	cdq    
  1079bf:	f7 fb                	idiv   ebx
  1079c1:	83 c0 01             	add    eax,0x1
  1079c4:	89 45 f0             	mov    DWORD PTR [ebp-0x10],eax
  1079c7:	e9 ae 00 00 00       	jmp    107a7a <iwrite+0x1eb>
  1079cc:	83 ec 04             	sub    esp,0x4
  1079cf:	68 94 f4 17 00       	push   0x17f494
  1079d4:	ff 75 f0             	push   DWORD PTR [ebp-0x10]
  1079d7:	ff 75 0c             	push   DWORD PTR [ebp+0xc]
  1079da:	e8 ee f9 ff ff       	call   1073cd <get_inode_block>
  1079df:	83 c4 10             	add    esp,0x10
  1079e2:	a1 58 f4 17 00       	mov    eax,ds:0x17f458
  1079e7:	ba 00 04 00 00       	mov    edx,0x400
  1079ec:	89 c1                	mov    ecx,eax
  1079ee:	d3 e2                	shl    edx,cl
  1079f0:	8b 45 f4             	mov    eax,DWORD PTR [ebp-0xc]
  1079f3:	01 d0                	add    eax,edx
  1079f5:	3b 45 18             	cmp    eax,DWORD PTR [ebp+0x18]
  1079f8:	7e 24                	jle    107a1e <iwrite+0x18f>
  1079fa:	8b 45 18             	mov    eax,DWORD PTR [ebp+0x18]
  1079fd:	2b 45 f4             	sub    eax,DWORD PTR [ebp-0xc]
  107a00:	89 c1                	mov    ecx,eax
  107a02:	8b 55 f4             	mov    edx,DWORD PTR [ebp-0xc]
  107a05:	8b 45 10             	mov    eax,DWORD PTR [ebp+0x10]
  107a08:	01 d0                	add    eax,edx
  107a0a:	83 ec 04             	sub    esp,0x4
  107a0d:	51                   	push   ecx
  107a0e:	50                   	push   eax
  107a0f:	68 94 f4 17 00       	push   0x17f494
  107a14:	e8 65 d9 ff ff       	call   10537e <memcpy>
  107a19:	83 c4 10             	add    esp,0x10
  107a1c:	eb 2c                	jmp    107a4a <iwrite+0x1bb>
  107a1e:	a1 58 f4 17 00       	mov    eax,ds:0x17f458
  107a23:	ba 00 04 00 00       	mov    edx,0x400
  107a28:	89 c1                	mov    ecx,eax
  107a2a:	d3 e2                	shl    edx,cl
  107a2c:	89 d0                	mov    eax,edx
  107a2e:	89 c1                	mov    ecx,eax
  107a30:	8b 55 f4             	mov    edx,DWORD PTR [ebp-0xc]
  107a33:	8b 45 10             	mov    eax,DWORD PTR [ebp+0x10]
  107a36:	01 d0                	add    eax,edx
  107a38:	83 ec 04             	sub    esp,0x4
  107a3b:	51                   	push   ecx
  107a3c:	50                   	push   eax
  107a3d:	68 94 f4 17 00       	push   0x17f494
  107a42:	e8 37 d9 ff ff       	call   10537e <memcpy>
  107a47:	83 c4 10             	add    esp,0x10
  107a4a:	8b 45 f0             	mov    eax,DWORD PTR [ebp-0x10]
  107a4d:	8d 50 01             	lea    edx,[eax+0x1]
  107a50:	89 55 f0             	mov    DWORD PTR [ebp-0x10],edx
  107a53:	83 ec 04             	sub    esp,0x4
  107a56:	68 94 f4 17 00       	push   0x17f494
  107a5b:	50                   	push   eax
  107a5c:	ff 75 0c             	push   DWORD PTR [ebp+0xc]
  107a5f:	e8 aa f9 ff ff       	call   10740e <put_inode_block>
  107a64:	83 c4 10             	add    esp,0x10
  107a67:	a1 58 f4 17 00       	mov    eax,ds:0x17f458
  107a6c:	ba 00 04 00 00       	mov    edx,0x400
  107a71:	89 c1                	mov    ecx,eax
  107a73:	d3 e2                	shl    edx,cl
  107a75:	89 d0                	mov    eax,edx
  107a77:	01 45 f4             	add    DWORD PTR [ebp-0xc],eax
  107a7a:	8b 45 f4             	mov    eax,DWORD PTR [ebp-0xc]
  107a7d:	3b 45 18             	cmp    eax,DWORD PTR [ebp+0x18]
  107a80:	0f 8c 46 ff ff ff    	jl     1079cc <iwrite+0x13d>
  107a86:	8b 45 18             	mov    eax,DWORD PTR [ebp+0x18]
  107a89:	8b 5d fc             	mov    ebx,DWORD PTR [ebp-0x4]
  107a8c:	c9                   	leave  
  107a8d:	c3                   	ret    

00107a8e <getdent>:
  107a8e:	55                   	push   ebp
  107a8f:	89 e5                	mov    ebp,esp
  107a91:	83 ec 08             	sub    esp,0x8
  107a94:	6a 07                	push   0x7
  107a96:	ff 75 10             	push   DWORD PTR [ebp+0x10]
  107a99:	ff 75 0c             	push   DWORD PTR [ebp+0xc]
  107a9c:	ff 75 08             	push   DWORD PTR [ebp+0x8]
  107a9f:	e8 31 fc ff ff       	call   1076d5 <iread>
  107aa4:	83 c4 10             	add    esp,0x10
  107aa7:	85 c0                	test   eax,eax
  107aa9:	75 17                	jne    107ac2 <getdent+0x34>
  107aab:	83 ec 04             	sub    esp,0x4
  107aae:	68 08 01 00 00       	push   0x108
  107ab3:	6a 00                	push   0x0
  107ab5:	ff 75 0c             	push   DWORD PTR [ebp+0xc]
  107ab8:	e8 94 d8 ff ff       	call   105351 <memset>
  107abd:	83 c4 10             	add    esp,0x10
  107ac0:	eb 5c                	jmp    107b1e <getdent+0x90>
  107ac2:	8b 45 0c             	mov    eax,DWORD PTR [ebp+0xc]
  107ac5:	8b 00                	mov    eax,DWORD PTR [eax]
  107ac7:	85 c0                	test   eax,eax
  107ac9:	74 53                	je     107b1e <getdent+0x90>
  107acb:	8b 45 0c             	mov    eax,DWORD PTR [ebp+0xc]
  107ace:	0f b7 40 04          	movzx  eax,WORD PTR [eax+0x4]
  107ad2:	66 3d 08 01          	cmp    ax,0x108
  107ad6:	76 18                	jbe    107af0 <getdent+0x62>
  107ad8:	68 08 01 00 00       	push   0x108
  107add:	ff 75 10             	push   DWORD PTR [ebp+0x10]
  107ae0:	ff 75 0c             	push   DWORD PTR [ebp+0xc]
  107ae3:	ff 75 08             	push   DWORD PTR [ebp+0x8]
  107ae6:	e8 ea fb ff ff       	call   1076d5 <iread>
  107aeb:	83 c4 10             	add    esp,0x10
  107aee:	eb 1c                	jmp    107b0c <getdent+0x7e>
  107af0:	8b 45 0c             	mov    eax,DWORD PTR [ebp+0xc]
  107af3:	0f b7 40 04          	movzx  eax,WORD PTR [eax+0x4]
  107af7:	0f b7 c0             	movzx  eax,ax
  107afa:	50                   	push   eax
  107afb:	ff 75 10             	push   DWORD PTR [ebp+0x10]
  107afe:	ff 75 0c             	push   DWORD PTR [ebp+0xc]
  107b01:	ff 75 08             	push   DWORD PTR [ebp+0x8]
  107b04:	e8 cc fb ff ff       	call   1076d5 <iread>
  107b09:	83 c4 10             	add    esp,0x10
  107b0c:	8b 45 0c             	mov    eax,DWORD PTR [ebp+0xc]
  107b0f:	0f b6 40 06          	movzx  eax,BYTE PTR [eax+0x6]
  107b13:	0f b6 c0             	movzx  eax,al
  107b16:	8b 55 0c             	mov    edx,DWORD PTR [ebp+0xc]
  107b19:	c6 44 02 08 00       	mov    BYTE PTR [edx+eax*1+0x8],0x0
  107b1e:	c9                   	leave  
  107b1f:	c3                   	ret    

00107b20 <new_file>:
  107b20:	55                   	push   ebp
  107b21:	89 e5                	mov    ebp,esp
  107b23:	8b 55 08             	mov    edx,DWORD PTR [ebp+0x8]
  107b26:	8b 45 0c             	mov    eax,DWORD PTR [ebp+0xc]
  107b29:	01 d0                	add    eax,edx
  107b2b:	5d                   	pop    ebp
  107b2c:	c3                   	ret    

00107b2d <truncate>:
  107b2d:	55                   	push   ebp
  107b2e:	89 e5                	mov    ebp,esp
  107b30:	83 ec 38             	sub    esp,0x38
  107b33:	c7 45 f4 00 00 00 00 	mov    DWORD PTR [ebp-0xc],0x0
  107b3a:	eb 5f                	jmp    107b9b <truncate+0x6e>
  107b3c:	83 ec 04             	sub    esp,0x4
  107b3f:	6a 00                	push   0x0
  107b41:	ff 75 f4             	push   DWORD PTR [ebp-0xc]
  107b44:	ff 75 0c             	push   DWORD PTR [ebp+0xc]
  107b47:	e8 51 f8 ff ff       	call   10739d <set_inode_bnum>
  107b4c:	83 c4 10             	add    esp,0x10
  107b4f:	8b 45 f0             	mov    eax,DWORD PTR [ebp-0x10]
  107b52:	8b 0d 60 f4 17 00    	mov    ecx,DWORD PTR ds:0x17f460
  107b58:	ba 00 00 00 00       	mov    edx,0x0
  107b5d:	f7 f1                	div    ecx
  107b5f:	89 c2                	mov    edx,eax
  107b61:	83 ec 08             	sub    esp,0x8
  107b64:	8d 45 d0             	lea    eax,[ebp-0x30]
  107b67:	50                   	push   eax
  107b68:	52                   	push   edx
  107b69:	e8 e6 f5 ff ff       	call   107154 <read_bgd>
  107b6e:	83 c4 10             	add    esp,0x10
  107b71:	8b 45 f4             	mov    eax,DWORD PTR [ebp-0xc]
  107b74:	8b 0d 60 f4 17 00    	mov    ecx,DWORD PTR ds:0x17f460
  107b7a:	ba 00 00 00 00       	mov    edx,0x0
  107b7f:	f7 f1                	div    ecx
  107b81:	89 d0                	mov    eax,edx
  107b83:	89 c2                	mov    edx,eax
  107b85:	8b 45 d0             	mov    eax,DWORD PTR [ebp-0x30]
  107b88:	83 ec 04             	sub    esp,0x4
  107b8b:	6a 00                	push   0x0
  107b8d:	52                   	push   edx
  107b8e:	50                   	push   eax
  107b8f:	e8 eb f4 ff ff       	call   10707f <bmwrite>
  107b94:	83 c4 10             	add    esp,0x10
  107b97:	83 45 f4 01          	add    DWORD PTR [ebp-0xc],0x1
  107b9b:	83 ec 08             	sub    esp,0x8
  107b9e:	ff 75 f4             	push   DWORD PTR [ebp-0xc]
  107ba1:	ff 75 0c             	push   DWORD PTR [ebp+0xc]
  107ba4:	e8 c1 f7 ff ff       	call   10736a <get_inode_bnum>
  107ba9:	83 c4 10             	add    esp,0x10
  107bac:	89 45 f0             	mov    DWORD PTR [ebp-0x10],eax
  107baf:	83 7d f0 00          	cmp    DWORD PTR [ebp-0x10],0x0
  107bb3:	7f 87                	jg     107b3c <truncate+0xf>
  107bb5:	8b 45 0c             	mov    eax,DWORD PTR [ebp+0xc]
  107bb8:	c7 40 04 00 00 00 00 	mov    DWORD PTR [eax+0x4],0x0
  107bbf:	83 ec 08             	sub    esp,0x8
  107bc2:	ff 75 0c             	push   DWORD PTR [ebp+0xc]
  107bc5:	ff 75 08             	push   DWORD PTR [ebp+0x8]
  107bc8:	e8 ff f6 ff ff       	call   1072cc <e2fs_write_inode>
  107bcd:	83 c4 10             	add    esp,0x10
  107bd0:	c9                   	leave  
  107bd1:	c3                   	ret    

00107bd2 <prettyprint_mode>:
  107bd2:	55                   	push   ebp
  107bd3:	89 e5                	mov    ebp,esp
  107bd5:	83 ec 14             	sub    esp,0x14
  107bd8:	8b 45 08             	mov    eax,DWORD PTR [ebp+0x8]
  107bdb:	66 89 45 ec          	mov    WORD PTR [ebp-0x14],ax
  107bdf:	0f b7 45 ec          	movzx  eax,WORD PTR [ebp-0x14]
  107be3:	25 00 f0 00 00       	and    eax,0xf000
  107be8:	3d 00 60 00 00       	cmp    eax,0x6000
  107bed:	74 4d                	je     107c3c <prettyprint_mode+0x6a>
  107bef:	3d 00 60 00 00       	cmp    eax,0x6000
  107bf4:	7f 17                	jg     107c0d <prettyprint_mode+0x3b>
  107bf6:	3d 00 20 00 00       	cmp    eax,0x2000
  107bfb:	74 4f                	je     107c4c <prettyprint_mode+0x7a>
  107bfd:	3d 00 40 00 00       	cmp    eax,0x4000
  107c02:	74 40                	je     107c44 <prettyprint_mode+0x72>
  107c04:	3d 00 10 00 00       	cmp    eax,0x1000
  107c09:	74 49                	je     107c54 <prettyprint_mode+0x82>
  107c0b:	eb 4f                	jmp    107c5c <prettyprint_mode+0x8a>
  107c0d:	3d 00 a0 00 00       	cmp    eax,0xa000
  107c12:	74 18                	je     107c2c <prettyprint_mode+0x5a>
  107c14:	3d 00 c0 00 00       	cmp    eax,0xc000
  107c19:	74 09                	je     107c24 <prettyprint_mode+0x52>
  107c1b:	3d 00 80 00 00       	cmp    eax,0x8000
  107c20:	74 12                	je     107c34 <prettyprint_mode+0x62>
  107c22:	eb 38                	jmp    107c5c <prettyprint_mode+0x8a>
  107c24:	8b 45 0c             	mov    eax,DWORD PTR [ebp+0xc]
  107c27:	c6 00 73             	mov    BYTE PTR [eax],0x73
  107c2a:	eb 37                	jmp    107c63 <prettyprint_mode+0x91>
  107c2c:	8b 45 0c             	mov    eax,DWORD PTR [ebp+0xc]
  107c2f:	c6 00 6c             	mov    BYTE PTR [eax],0x6c
  107c32:	eb 2f                	jmp    107c63 <prettyprint_mode+0x91>
  107c34:	8b 45 0c             	mov    eax,DWORD PTR [ebp+0xc]
  107c37:	c6 00 2d             	mov    BYTE PTR [eax],0x2d
  107c3a:	eb 27                	jmp    107c63 <prettyprint_mode+0x91>
  107c3c:	8b 45 0c             	mov    eax,DWORD PTR [ebp+0xc]
  107c3f:	c6 00 63             	mov    BYTE PTR [eax],0x63
  107c42:	eb 1f                	jmp    107c63 <prettyprint_mode+0x91>
  107c44:	8b 45 0c             	mov    eax,DWORD PTR [ebp+0xc]
  107c47:	c6 00 64             	mov    BYTE PTR [eax],0x64
  107c4a:	eb 17                	jmp    107c63 <prettyprint_mode+0x91>
  107c4c:	8b 45 0c             	mov    eax,DWORD PTR [ebp+0xc]
  107c4f:	c6 00 62             	mov    BYTE PTR [eax],0x62
  107c52:	eb 0f                	jmp    107c63 <prettyprint_mode+0x91>
  107c54:	8b 45 0c             	mov    eax,DWORD PTR [ebp+0xc]
  107c57:	c6 00 70             	mov    BYTE PTR [eax],0x70
  107c5a:	eb 07                	jmp    107c63 <prettyprint_mode+0x91>
  107c5c:	8b 45 0c             	mov    eax,DWORD PTR [ebp+0xc]
  107c5f:	c6 00 3f             	mov    BYTE PTR [eax],0x3f
  107c62:	90                   	nop
  107c63:	c6 45 ff 78          	mov    BYTE PTR [ebp-0x1],0x78
  107c67:	c6 45 fe 2d          	mov    BYTE PTR [ebp-0x2],0x2d
  107c6b:	0f b7 45 ec          	movzx  eax,WORD PTR [ebp-0x14]
  107c6f:	25 00 08 00 00       	and    eax,0x800
  107c74:	85 c0                	test   eax,eax
  107c76:	74 08                	je     107c80 <prettyprint_mode+0xae>
  107c78:	c6 45 ff 73          	mov    BYTE PTR [ebp-0x1],0x73
  107c7c:	c6 45 fe 53          	mov    BYTE PTR [ebp-0x2],0x53
  107c80:	0f b7 45 ec          	movzx  eax,WORD PTR [ebp-0x14]
  107c84:	25 00 04 00 00       	and    eax,0x400
  107c89:	85 c0                	test   eax,eax
  107c8b:	74 08                	je     107c95 <prettyprint_mode+0xc3>
  107c8d:	c6 45 ff 73          	mov    BYTE PTR [ebp-0x1],0x73
  107c91:	c6 45 fe 53          	mov    BYTE PTR [ebp-0x2],0x53
  107c95:	0f b7 45 ec          	movzx  eax,WORD PTR [ebp-0x14]
  107c99:	25 00 02 00 00       	and    eax,0x200
  107c9e:	85 c0                	test   eax,eax
  107ca0:	74 08                	je     107caa <prettyprint_mode+0xd8>
  107ca2:	c6 45 ff 74          	mov    BYTE PTR [ebp-0x1],0x74
  107ca6:	c6 45 fe 54          	mov    BYTE PTR [ebp-0x2],0x54
  107caa:	8b 45 0c             	mov    eax,DWORD PTR [ebp+0xc]
  107cad:	83 c0 01             	add    eax,0x1
  107cb0:	0f b7 55 ec          	movzx  edx,WORD PTR [ebp-0x14]
  107cb4:	81 e2 00 01 00 00    	and    edx,0x100
  107cba:	85 d2                	test   edx,edx
  107cbc:	74 07                	je     107cc5 <prettyprint_mode+0xf3>
  107cbe:	ba 72 00 00 00       	mov    edx,0x72
  107cc3:	eb 05                	jmp    107cca <prettyprint_mode+0xf8>
  107cc5:	ba 2d 00 00 00       	mov    edx,0x2d
  107cca:	88 10                	mov    BYTE PTR [eax],dl
  107ccc:	8b 45 0c             	mov    eax,DWORD PTR [ebp+0xc]
  107ccf:	83 c0 02             	add    eax,0x2
  107cd2:	0f b7 55 ec          	movzx  edx,WORD PTR [ebp-0x14]
  107cd6:	81 e2 80 00 00 00    	and    edx,0x80
  107cdc:	85 d2                	test   edx,edx
  107cde:	74 07                	je     107ce7 <prettyprint_mode+0x115>
  107ce0:	ba 77 00 00 00       	mov    edx,0x77
  107ce5:	eb 05                	jmp    107cec <prettyprint_mode+0x11a>
  107ce7:	ba 2d 00 00 00       	mov    edx,0x2d
  107cec:	88 10                	mov    BYTE PTR [eax],dl
  107cee:	8b 45 0c             	mov    eax,DWORD PTR [ebp+0xc]
  107cf1:	8d 50 03             	lea    edx,[eax+0x3]
  107cf4:	0f b7 45 ec          	movzx  eax,WORD PTR [ebp-0x14]
  107cf8:	83 e0 40             	and    eax,0x40
  107cfb:	85 c0                	test   eax,eax
  107cfd:	74 06                	je     107d05 <prettyprint_mode+0x133>
  107cff:	0f b6 45 ff          	movzx  eax,BYTE PTR [ebp-0x1]
  107d03:	eb 04                	jmp    107d09 <prettyprint_mode+0x137>
  107d05:	0f b6 45 fe          	movzx  eax,BYTE PTR [ebp-0x2]
  107d09:	88 02                	mov    BYTE PTR [edx],al
  107d0b:	8b 45 0c             	mov    eax,DWORD PTR [ebp+0xc]
  107d0e:	83 c0 04             	add    eax,0x4
  107d11:	0f b7 55 ec          	movzx  edx,WORD PTR [ebp-0x14]
  107d15:	83 e2 20             	and    edx,0x20
  107d18:	85 d2                	test   edx,edx
  107d1a:	74 07                	je     107d23 <prettyprint_mode+0x151>
  107d1c:	ba 72 00 00 00       	mov    edx,0x72
  107d21:	eb 05                	jmp    107d28 <prettyprint_mode+0x156>
  107d23:	ba 2d 00 00 00       	mov    edx,0x2d
  107d28:	88 10                	mov    BYTE PTR [eax],dl
  107d2a:	8b 45 0c             	mov    eax,DWORD PTR [ebp+0xc]
  107d2d:	83 c0 05             	add    eax,0x5
  107d30:	0f b7 55 ec          	movzx  edx,WORD PTR [ebp-0x14]
  107d34:	83 e2 10             	and    edx,0x10
  107d37:	85 d2                	test   edx,edx
  107d39:	74 07                	je     107d42 <prettyprint_mode+0x170>
  107d3b:	ba 77 00 00 00       	mov    edx,0x77
  107d40:	eb 05                	jmp    107d47 <prettyprint_mode+0x175>
  107d42:	ba 2d 00 00 00       	mov    edx,0x2d
  107d47:	88 10                	mov    BYTE PTR [eax],dl
  107d49:	8b 45 0c             	mov    eax,DWORD PTR [ebp+0xc]
  107d4c:	83 c0 06             	add    eax,0x6
  107d4f:	0f b7 55 ec          	movzx  edx,WORD PTR [ebp-0x14]
  107d53:	83 e2 08             	and    edx,0x8
  107d56:	85 d2                	test   edx,edx
  107d58:	74 07                	je     107d61 <prettyprint_mode+0x18f>
  107d5a:	ba 78 00 00 00       	mov    edx,0x78
  107d5f:	eb 05                	jmp    107d66 <prettyprint_mode+0x194>
  107d61:	ba 2d 00 00 00       	mov    edx,0x2d
  107d66:	88 10                	mov    BYTE PTR [eax],dl
  107d68:	8b 45 0c             	mov    eax,DWORD PTR [ebp+0xc]
  107d6b:	83 c0 07             	add    eax,0x7
  107d6e:	0f b7 55 ec          	movzx  edx,WORD PTR [ebp-0x14]
  107d72:	83 e2 04             	and    edx,0x4
  107d75:	85 d2                	test   edx,edx
  107d77:	74 07                	je     107d80 <prettyprint_mode+0x1ae>
  107d79:	ba 72 00 00 00       	mov    edx,0x72
  107d7e:	eb 05                	jmp    107d85 <prettyprint_mode+0x1b3>
  107d80:	ba 2d 00 00 00       	mov    edx,0x2d
  107d85:	88 10                	mov    BYTE PTR [eax],dl
  107d87:	8b 45 0c             	mov    eax,DWORD PTR [ebp+0xc]
  107d8a:	83 c0 08             	add    eax,0x8
  107d8d:	0f b7 55 ec          	movzx  edx,WORD PTR [ebp-0x14]
  107d91:	83 e2 02             	and    edx,0x2
  107d94:	85 d2                	test   edx,edx
  107d96:	74 07                	je     107d9f <prettyprint_mode+0x1cd>
  107d98:	ba 77 00 00 00       	mov    edx,0x77
  107d9d:	eb 05                	jmp    107da4 <prettyprint_mode+0x1d2>
  107d9f:	ba 2d 00 00 00       	mov    edx,0x2d
  107da4:	88 10                	mov    BYTE PTR [eax],dl
  107da6:	8b 45 0c             	mov    eax,DWORD PTR [ebp+0xc]
  107da9:	83 c0 09             	add    eax,0x9
  107dac:	0f b7 55 ec          	movzx  edx,WORD PTR [ebp-0x14]
  107db0:	83 e2 01             	and    edx,0x1
  107db3:	85 d2                	test   edx,edx
  107db5:	74 07                	je     107dbe <prettyprint_mode+0x1ec>
  107db7:	ba 78 00 00 00       	mov    edx,0x78
  107dbc:	eb 05                	jmp    107dc3 <prettyprint_mode+0x1f1>
  107dbe:	ba 2d 00 00 00       	mov    edx,0x2d
  107dc3:	88 10                	mov    BYTE PTR [eax],dl
  107dc5:	8b 45 0c             	mov    eax,DWORD PTR [ebp+0xc]
  107dc8:	83 c0 0a             	add    eax,0xa
  107dcb:	c6 00 00             	mov    BYTE PTR [eax],0x0
  107dce:	c9                   	leave  
  107dcf:	c3                   	ret    

00107dd0 <ext2fs_init>:
  107dd0:	55                   	push   ebp
  107dd1:	89 e5                	mov    ebp,esp
  107dd3:	53                   	push   ebx
  107dd4:	81 ec 34 02 00 00    	sub    esp,0x234
  107dda:	8b 45 08             	mov    eax,DWORD PTR [ebp+0x8]
  107ddd:	a3 e8 f8 17 00       	mov    ds:0x17f8e8,eax
  107de2:	83 ec 04             	sub    esp,0x4
  107de5:	68 60 06 00 00       	push   0x660
  107dea:	6a 00                	push   0x0
  107dec:	68 40 f2 17 00       	push   0x17f240
  107df1:	e8 5b d5 ff ff       	call   105351 <memset>
  107df6:	83 c4 10             	add    esp,0x10
  107df9:	e8 49 f0 ff ff       	call   106e47 <e2fs_read_superblock>
  107dfe:	83 ec 0c             	sub    esp,0xc
  107e01:	68 d4 9d 10 00       	push   0x109dd4
  107e06:	e8 cb 97 ff ff       	call   1015d6 <printf>
  107e0b:	83 c4 10             	add    esp,0x10
  107e0e:	83 ec 0c             	sub    esp,0xc
  107e11:	68 e6 9d 10 00       	push   0x109de6
  107e16:	e8 bb 97 ff ff       	call   1015d6 <printf>
  107e1b:	83 c4 10             	add    esp,0x10
  107e1e:	a1 40 f4 17 00       	mov    eax,ds:0x17f440
  107e23:	83 ec 08             	sub    esp,0x8
  107e26:	50                   	push   eax
  107e27:	68 f2 9d 10 00       	push   0x109df2
  107e2c:	e8 a5 97 ff ff       	call   1015d6 <printf>
  107e31:	83 c4 10             	add    esp,0x10
  107e34:	a1 50 f4 17 00       	mov    eax,ds:0x17f450
  107e39:	83 ec 08             	sub    esp,0x8
  107e3c:	50                   	push   eax
  107e3d:	68 ff 9d 10 00       	push   0x109dff
  107e42:	e8 8f 97 ff ff       	call   1015d6 <printf>
  107e47:	83 c4 10             	add    esp,0x10
  107e4a:	a1 58 f4 17 00       	mov    eax,ds:0x17f458
  107e4f:	ba 00 04 00 00       	mov    edx,0x400
  107e54:	89 c1                	mov    ecx,eax
  107e56:	d3 e2                	shl    edx,cl
  107e58:	89 d0                	mov    eax,edx
  107e5a:	83 ec 08             	sub    esp,0x8
  107e5d:	50                   	push   eax
  107e5e:	68 0a 9e 10 00       	push   0x109e0a
  107e63:	e8 6e 97 ff ff       	call   1015d6 <printf>
  107e68:	83 c4 10             	add    esp,0x10
  107e6b:	a1 60 f4 17 00       	mov    eax,ds:0x17f460
  107e70:	83 ec 08             	sub    esp,0x8
  107e73:	50                   	push   eax
  107e74:	68 1c 9e 10 00       	push   0x109e1c
  107e79:	e8 58 97 ff ff       	call   1015d6 <printf>
  107e7e:	83 c4 10             	add    esp,0x10
  107e81:	a1 44 f4 17 00       	mov    eax,ds:0x17f444
  107e86:	8b 0d 60 f4 17 00    	mov    ecx,DWORD PTR ds:0x17f460
  107e8c:	ba 00 00 00 00       	mov    edx,0x0
  107e91:	f7 f1                	div    ecx
  107e93:	83 ec 08             	sub    esp,0x8
  107e96:	50                   	push   eax
  107e97:	68 2f 9e 10 00       	push   0x109e2f
  107e9c:	e8 35 97 ff ff       	call   1015d6 <printf>
  107ea1:	83 c4 10             	add    esp,0x10
  107ea4:	83 ec 0c             	sub    esp,0xc
  107ea7:	68 42 9e 10 00       	push   0x109e42
  107eac:	e8 25 97 ff ff       	call   1015d6 <printf>
  107eb1:	83 c4 10             	add    esp,0x10
  107eb4:	83 ec 08             	sub    esp,0x8
  107eb7:	8d 45 d4             	lea    eax,[ebp-0x2c]
  107eba:	50                   	push   eax
  107ebb:	6a 00                	push   0x0
  107ebd:	e8 92 f2 ff ff       	call   107154 <read_bgd>
  107ec2:	83 c4 10             	add    esp,0x10
  107ec5:	8b 45 d4             	mov    eax,DWORD PTR [ebp-0x2c]
  107ec8:	83 ec 08             	sub    esp,0x8
  107ecb:	50                   	push   eax
  107ecc:	68 55 9e 10 00       	push   0x109e55
  107ed1:	e8 00 97 ff ff       	call   1015d6 <printf>
  107ed6:	83 c4 10             	add    esp,0x10
  107ed9:	8b 45 d8             	mov    eax,DWORD PTR [ebp-0x28]
  107edc:	83 ec 08             	sub    esp,0x8
  107edf:	50                   	push   eax
  107ee0:	68 65 9e 10 00       	push   0x109e65
  107ee5:	e8 ec 96 ff ff       	call   1015d6 <printf>
  107eea:	83 c4 10             	add    esp,0x10
  107eed:	8b 45 dc             	mov    eax,DWORD PTR [ebp-0x24]
  107ef0:	83 ec 08             	sub    esp,0x8
  107ef3:	50                   	push   eax
  107ef4:	68 75 9e 10 00       	push   0x109e75
  107ef9:	e8 d8 96 ff ff       	call   1015d6 <printf>
  107efe:	83 c4 10             	add    esp,0x10
  107f01:	83 ec 08             	sub    esp,0x8
  107f04:	8d 85 54 ff ff ff    	lea    eax,[ebp-0xac]
  107f0a:	50                   	push   eax
  107f0b:	6a 02                	push   0x2
  107f0d:	e8 1c f3 ff ff       	call   10722e <e2fs_read_inode>
  107f12:	83 c4 10             	add    esp,0x10
  107f15:	0f b7 85 54 ff ff ff 	movzx  eax,WORD PTR [ebp-0xac]
  107f1c:	0f b7 c0             	movzx  eax,ax
  107f1f:	83 ec 08             	sub    esp,0x8
  107f22:	68 94 f8 17 00       	push   0x17f894
  107f27:	50                   	push   eax
  107f28:	e8 a5 fc ff ff       	call   107bd2 <prettyprint_mode>
  107f2d:	83 c4 10             	add    esp,0x10
  107f30:	8b 95 58 ff ff ff    	mov    edx,DWORD PTR [ebp-0xa8]
  107f36:	0f b7 85 54 ff ff ff 	movzx  eax,WORD PTR [ebp-0xac]
  107f3d:	0f b7 c0             	movzx  eax,ax
  107f40:	52                   	push   edx
  107f41:	50                   	push   eax
  107f42:	68 94 f8 17 00       	push   0x17f894
  107f47:	68 88 9e 10 00       	push   0x109e88
  107f4c:	e8 85 96 ff ff       	call   1015d6 <printf>
  107f51:	83 c4 10             	add    esp,0x10
  107f54:	c7 45 f4 00 00 00 00 	mov    DWORD PTR [ebp-0xc],0x0
  107f5b:	83 ec 04             	sub    esp,0x4
  107f5e:	ff 75 f4             	push   DWORD PTR [ebp-0xc]
  107f61:	8d 85 4c fe ff ff    	lea    eax,[ebp-0x1b4]
  107f67:	50                   	push   eax
  107f68:	8d 85 54 ff ff ff    	lea    eax,[ebp-0xac]
  107f6e:	50                   	push   eax
  107f6f:	e8 1a fb ff ff       	call   107a8e <getdent>
  107f74:	83 c4 10             	add    esp,0x10
  107f77:	e9 9e 00 00 00       	jmp    10801a <ext2fs_init+0x24a>
  107f7c:	8b 85 4c fe ff ff    	mov    eax,DWORD PTR [ebp-0x1b4]
  107f82:	89 c2                	mov    edx,eax
  107f84:	83 ec 08             	sub    esp,0x8
  107f87:	8d 85 cc fd ff ff    	lea    eax,[ebp-0x234]
  107f8d:	50                   	push   eax
  107f8e:	52                   	push   edx
  107f8f:	e8 9a f2 ff ff       	call   10722e <e2fs_read_inode>
  107f94:	83 c4 10             	add    esp,0x10
  107f97:	0f b7 85 cc fd ff ff 	movzx  eax,WORD PTR [ebp-0x234]
  107f9e:	0f b7 c0             	movzx  eax,ax
  107fa1:	83 ec 08             	sub    esp,0x8
  107fa4:	68 94 f8 17 00       	push   0x17f894
  107fa9:	50                   	push   eax
  107faa:	e8 23 fc ff ff       	call   107bd2 <prettyprint_mode>
  107faf:	83 c4 10             	add    esp,0x10
  107fb2:	0f b6 85 52 fe ff ff 	movzx  eax,BYTE PTR [ebp-0x1ae]
  107fb9:	0f b6 c8             	movzx  ecx,al
  107fbc:	0f b7 85 50 fe ff ff 	movzx  eax,WORD PTR [ebp-0x1b0]
  107fc3:	0f b7 d0             	movzx  edx,ax
  107fc6:	8b 85 4c fe ff ff    	mov    eax,DWORD PTR [ebp-0x1b4]
  107fcc:	83 ec 04             	sub    esp,0x4
  107fcf:	ff 75 f4             	push   DWORD PTR [ebp-0xc]
  107fd2:	8d 9d 4c fe ff ff    	lea    ebx,[ebp-0x1b4]
  107fd8:	83 c3 08             	add    ebx,0x8
  107fdb:	53                   	push   ebx
  107fdc:	51                   	push   ecx
  107fdd:	52                   	push   edx
  107fde:	50                   	push   eax
  107fdf:	68 94 f8 17 00       	push   0x17f894
  107fe4:	68 ae 9e 10 00       	push   0x109eae
  107fe9:	e8 e8 95 ff ff       	call   1015d6 <printf>
  107fee:	83 c4 20             	add    esp,0x20
  107ff1:	0f b7 85 50 fe ff ff 	movzx  eax,WORD PTR [ebp-0x1b0]
  107ff8:	0f b7 c0             	movzx  eax,ax
  107ffb:	01 45 f4             	add    DWORD PTR [ebp-0xc],eax
  107ffe:	83 ec 04             	sub    esp,0x4
  108001:	ff 75 f4             	push   DWORD PTR [ebp-0xc]
  108004:	8d 85 4c fe ff ff    	lea    eax,[ebp-0x1b4]
  10800a:	50                   	push   eax
  10800b:	8d 85 54 ff ff ff    	lea    eax,[ebp-0xac]
  108011:	50                   	push   eax
  108012:	e8 77 fa ff ff       	call   107a8e <getdent>
  108017:	83 c4 10             	add    esp,0x10
  10801a:	8b 85 4c fe ff ff    	mov    eax,DWORD PTR [ebp-0x1b4]
  108020:	85 c0                	test   eax,eax
  108022:	0f 85 54 ff ff ff    	jne    107f7c <ext2fs_init+0x1ac>
  108028:	e8 22 f4 ff ff       	call   10744f <get_first_free_block>
  10802d:	83 ec 08             	sub    esp,0x8
  108030:	50                   	push   eax
  108031:	68 c3 9e 10 00       	push   0x109ec3
  108036:	e8 9b 95 ff ff       	call   1015d6 <printf>
  10803b:	83 c4 10             	add    esp,0x10
  10803e:	e8 90 f4 ff ff       	call   1074d3 <get_first_free_inode>
  108043:	83 ec 08             	sub    esp,0x8
  108046:	50                   	push   eax
  108047:	68 db 9e 10 00       	push   0x109edb
  10804c:	e8 85 95 ff ff       	call   1015d6 <printf>
  108051:	83 c4 10             	add    esp,0x10
  108054:	b8 00 00 00 00       	mov    eax,0x0
  108059:	8b 5d fc             	mov    ebx,DWORD PTR [ebp-0x4]
  10805c:	c9                   	leave  
  10805d:	c3                   	ret    

0010805e <ext2fs_check_name>:
  10805e:	55                   	push   ebp
  10805f:	89 e5                	mov    ebp,esp
  108061:	8b 45 08             	mov    eax,DWORD PTR [ebp+0x8]
  108064:	5d                   	pop    ebp
  108065:	c3                   	ret    

00108066 <e2fs_path_tokenize>:
  108066:	55                   	push   ebp
  108067:	89 e5                	mov    ebp,esp
  108069:	83 ec 10             	sub    esp,0x10
  10806c:	8b 45 08             	mov    eax,DWORD PTR [ebp+0x8]
  10806f:	0f b6 00             	movzx  eax,BYTE PTR [eax]
  108072:	84 c0                	test   al,al
  108074:	75 07                	jne    10807d <e2fs_path_tokenize+0x17>
  108076:	b8 00 00 00 00       	mov    eax,0x0
  10807b:	eb 44                	jmp    1080c1 <e2fs_path_tokenize+0x5b>
  10807d:	eb 04                	jmp    108083 <e2fs_path_tokenize+0x1d>
  10807f:	83 45 08 01          	add    DWORD PTR [ebp+0x8],0x1
  108083:	8b 45 08             	mov    eax,DWORD PTR [ebp+0x8]
  108086:	0f b6 00             	movzx  eax,BYTE PTR [eax]
  108089:	3c 2f                	cmp    al,0x2f
  10808b:	74 f2                	je     10807f <e2fs_path_tokenize+0x19>
  10808d:	8b 45 08             	mov    eax,DWORD PTR [ebp+0x8]
  108090:	89 45 fc             	mov    DWORD PTR [ebp-0x4],eax
  108093:	eb 04                	jmp    108099 <e2fs_path_tokenize+0x33>
  108095:	83 45 08 01          	add    DWORD PTR [ebp+0x8],0x1
  108099:	8b 45 08             	mov    eax,DWORD PTR [ebp+0x8]
  10809c:	0f b6 00             	movzx  eax,BYTE PTR [eax]
  10809f:	3c 2f                	cmp    al,0x2f
  1080a1:	74 0a                	je     1080ad <e2fs_path_tokenize+0x47>
  1080a3:	8b 45 08             	mov    eax,DWORD PTR [ebp+0x8]
  1080a6:	0f b6 00             	movzx  eax,BYTE PTR [eax]
  1080a9:	84 c0                	test   al,al
  1080ab:	75 e8                	jne    108095 <e2fs_path_tokenize+0x2f>
  1080ad:	8b 45 08             	mov    eax,DWORD PTR [ebp+0x8]
  1080b0:	c6 00 00             	mov    BYTE PTR [eax],0x0
  1080b3:	8b 45 08             	mov    eax,DWORD PTR [ebp+0x8]
  1080b6:	8d 50 01             	lea    edx,[eax+0x1]
  1080b9:	8b 45 0c             	mov    eax,DWORD PTR [ebp+0xc]
  1080bc:	89 10                	mov    DWORD PTR [eax],edx
  1080be:	8b 45 fc             	mov    eax,DWORD PTR [ebp-0x4]
  1080c1:	c9                   	leave  
  1080c2:	c3                   	ret    

001080c3 <ext2fs_open>:
  1080c3:	55                   	push   ebp
  1080c4:	89 e5                	mov    ebp,esp
  1080c6:	53                   	push   ebx
  1080c7:	81 ec b4 01 00 00    	sub    esp,0x1b4
  1080cd:	a1 e8 f8 17 00       	mov    eax,ds:0x17f8e8
  1080d2:	83 ec 0c             	sub    esp,0xc
  1080d5:	50                   	push   eax
  1080d6:	e8 78 e9 ff ff       	call   106a53 <_fs_getid>
  1080db:	83 c4 10             	add    esp,0x10
  1080de:	89 45 ec             	mov    DWORD PTR [ebp-0x14],eax
  1080e1:	a1 80 ed 17 00       	mov    eax,ds:0x17ed80
  1080e6:	8b 04 85 80 ed 13 00 	mov    eax,DWORD PTR [eax*4+0x13ed80]
  1080ed:	8b 40 20             	mov    eax,DWORD PTR [eax+0x20]
  1080f0:	8b 55 ec             	mov    edx,DWORD PTR [ebp-0x14]
  1080f3:	c1 e2 04             	shl    edx,0x4
  1080f6:	01 d0                	add    eax,edx
  1080f8:	8b 55 0c             	mov    edx,DWORD PTR [ebp+0xc]
  1080fb:	88 50 01             	mov    BYTE PTR [eax+0x1],dl
  1080fe:	a1 80 ed 17 00       	mov    eax,ds:0x17ed80
  108103:	8b 04 85 80 ed 13 00 	mov    eax,DWORD PTR [eax*4+0x13ed80]
  10810a:	8b 40 20             	mov    eax,DWORD PTR [eax+0x20]
  10810d:	8b 55 ec             	mov    edx,DWORD PTR [ebp-0x14]
  108110:	c1 e2 04             	shl    edx,0x4
  108113:	8d 1c 10             	lea    ebx,[eax+edx*1]
  108116:	83 ec 0c             	sub    esp,0xc
  108119:	ff 75 08             	push   DWORD PTR [ebp+0x8]
  10811c:	e8 92 d2 ff ff       	call   1053b3 <strlen>
  108121:	83 c4 10             	add    esp,0x10
  108124:	83 ec 0c             	sub    esp,0xc
  108127:	50                   	push   eax
  108128:	e8 4c a5 ff ff       	call   102679 <malloc>
  10812d:	83 c4 10             	add    esp,0x10
  108130:	89 43 08             	mov    DWORD PTR [ebx+0x8],eax
  108133:	83 ec 0c             	sub    esp,0xc
  108136:	ff 75 08             	push   DWORD PTR [ebp+0x8]
  108139:	e8 75 d2 ff ff       	call   1053b3 <strlen>
  10813e:	83 c4 10             	add    esp,0x10
  108141:	89 c1                	mov    ecx,eax
  108143:	a1 80 ed 17 00       	mov    eax,ds:0x17ed80
  108148:	8b 04 85 80 ed 13 00 	mov    eax,DWORD PTR [eax*4+0x13ed80]
  10814f:	8b 40 20             	mov    eax,DWORD PTR [eax+0x20]
  108152:	8b 55 ec             	mov    edx,DWORD PTR [ebp-0x14]
  108155:	c1 e2 04             	shl    edx,0x4
  108158:	01 d0                	add    eax,edx
  10815a:	8b 40 08             	mov    eax,DWORD PTR [eax+0x8]
  10815d:	83 ec 04             	sub    esp,0x4
  108160:	51                   	push   ecx
  108161:	ff 75 08             	push   DWORD PTR [ebp+0x8]
  108164:	50                   	push   eax
  108165:	e8 14 d2 ff ff       	call   10537e <memcpy>
  10816a:	83 c4 10             	add    esp,0x10
  10816d:	83 ec 0c             	sub    esp,0xc
  108170:	ff 75 08             	push   DWORD PTR [ebp+0x8]
  108173:	e8 3b d2 ff ff       	call   1053b3 <strlen>
  108178:	83 c4 10             	add    esp,0x10
  10817b:	83 c0 14             	add    eax,0x14
  10817e:	83 ec 0c             	sub    esp,0xc
  108181:	50                   	push   eax
  108182:	e8 f2 a4 ff ff       	call   102679 <malloc>
  108187:	83 c4 10             	add    esp,0x10
  10818a:	89 45 dc             	mov    DWORD PTR [ebp-0x24],eax
  10818d:	8b 45 dc             	mov    eax,DWORD PTR [ebp-0x24]
  108190:	89 45 e8             	mov    DWORD PTR [ebp-0x18],eax
  108193:	83 ec 0c             	sub    esp,0xc
  108196:	ff 75 08             	push   DWORD PTR [ebp+0x8]
  108199:	e8 15 d2 ff ff       	call   1053b3 <strlen>
  10819e:	83 c4 10             	add    esp,0x10
  1081a1:	83 c0 02             	add    eax,0x2
  1081a4:	89 c2                	mov    edx,eax
  1081a6:	8b 45 dc             	mov    eax,DWORD PTR [ebp-0x24]
  1081a9:	83 ec 04             	sub    esp,0x4
  1081ac:	52                   	push   edx
  1081ad:	ff 75 08             	push   DWORD PTR [ebp+0x8]
  1081b0:	50                   	push   eax
  1081b1:	e8 c8 d1 ff ff       	call   10537e <memcpy>
  1081b6:	83 c4 10             	add    esp,0x10
  1081b9:	8b 5d dc             	mov    ebx,DWORD PTR [ebp-0x24]
  1081bc:	83 ec 0c             	sub    esp,0xc
  1081bf:	ff 75 08             	push   DWORD PTR [ebp+0x8]
  1081c2:	e8 ec d1 ff ff       	call   1053b3 <strlen>
  1081c7:	83 c4 10             	add    esp,0x10
  1081ca:	83 c0 01             	add    eax,0x1
  1081cd:	01 d8                	add    eax,ebx
  1081cf:	c6 00 00             	mov    BYTE PTR [eax],0x0
  1081d2:	c7 45 f4 02 00 00 00 	mov    DWORD PTR [ebp-0xc],0x2
  1081d9:	c7 45 f0 00 00 00 00 	mov    DWORD PTR [ebp-0x10],0x0
  1081e0:	e9 bd 00 00 00       	jmp    1082a2 <ext2fs_open+0x1df>
  1081e5:	83 ec 0c             	sub    esp,0xc
  1081e8:	ff 75 e4             	push   DWORD PTR [ebp-0x1c]
  1081eb:	e8 c3 d1 ff ff       	call   1053b3 <strlen>
  1081f0:	83 c4 10             	add    esp,0x10
  1081f3:	85 c0                	test   eax,eax
  1081f5:	75 05                	jne    1081fc <ext2fs_open+0x139>
  1081f7:	e9 c6 00 00 00       	jmp    1082c2 <ext2fs_open+0x1ff>
  1081fc:	83 ec 08             	sub    esp,0x8
  1081ff:	8d 85 5c ff ff ff    	lea    eax,[ebp-0xa4]
  108205:	50                   	push   eax
  108206:	ff 75 f4             	push   DWORD PTR [ebp-0xc]
  108209:	e8 20 f0 ff ff       	call   10722e <e2fs_read_inode>
  10820e:	83 c4 10             	add    esp,0x10
  108211:	83 ec 04             	sub    esp,0x4
  108214:	ff 75 f0             	push   DWORD PTR [ebp-0x10]
  108217:	8d 85 54 fe ff ff    	lea    eax,[ebp-0x1ac]
  10821d:	50                   	push   eax
  10821e:	8d 85 5c ff ff ff    	lea    eax,[ebp-0xa4]
  108224:	50                   	push   eax
  108225:	e8 64 f8 ff ff       	call   107a8e <getdent>
  10822a:	83 c4 10             	add    esp,0x10
  10822d:	83 ec 08             	sub    esp,0x8
  108230:	ff 75 e4             	push   DWORD PTR [ebp-0x1c]
  108233:	8d 85 54 fe ff ff    	lea    eax,[ebp-0x1ac]
  108239:	83 c0 08             	add    eax,0x8
  10823c:	50                   	push   eax
  10823d:	e8 99 d1 ff ff       	call   1053db <streq>
  108242:	83 c4 10             	add    esp,0x10
  108245:	85 c0                	test   eax,eax
  108247:	74 02                	je     10824b <ext2fs_open+0x188>
  108249:	eb 17                	jmp    108262 <ext2fs_open+0x19f>
  10824b:	0f b7 85 58 fe ff ff 	movzx  eax,WORD PTR [ebp-0x1a8]
  108252:	0f b7 c0             	movzx  eax,ax
  108255:	01 45 f0             	add    DWORD PTR [ebp-0x10],eax
  108258:	8b 85 54 fe ff ff    	mov    eax,DWORD PTR [ebp-0x1ac]
  10825e:	85 c0                	test   eax,eax
  108260:	75 af                	jne    108211 <ext2fs_open+0x14e>
  108262:	83 ec 08             	sub    esp,0x8
  108265:	ff 75 e4             	push   DWORD PTR [ebp-0x1c]
  108268:	8d 85 54 fe ff ff    	lea    eax,[ebp-0x1ac]
  10826e:	83 c0 08             	add    eax,0x8
  108271:	50                   	push   eax
  108272:	e8 64 d1 ff ff       	call   1053db <streq>
  108277:	83 c4 10             	add    esp,0x10
  10827a:	85 c0                	test   eax,eax
  10827c:	75 1b                	jne    108299 <ext2fs_open+0x1d6>
  10827e:	83 ec 08             	sub    esp,0x8
  108281:	ff 75 e4             	push   DWORD PTR [ebp-0x1c]
  108284:	8d 85 5c ff ff ff    	lea    eax,[ebp-0xa4]
  10828a:	50                   	push   eax
  10828b:	e8 90 f8 ff ff       	call   107b20 <new_file>
  108290:	83 c4 10             	add    esp,0x10
  108293:	89 85 54 fe ff ff    	mov    DWORD PTR [ebp-0x1ac],eax
  108299:	8b 85 54 fe ff ff    	mov    eax,DWORD PTR [ebp-0x1ac]
  10829f:	89 45 f4             	mov    DWORD PTR [ebp-0xc],eax
  1082a2:	8b 45 dc             	mov    eax,DWORD PTR [ebp-0x24]
  1082a5:	83 ec 08             	sub    esp,0x8
  1082a8:	8d 55 dc             	lea    edx,[ebp-0x24]
  1082ab:	52                   	push   edx
  1082ac:	50                   	push   eax
  1082ad:	e8 b4 fd ff ff       	call   108066 <e2fs_path_tokenize>
  1082b2:	83 c4 10             	add    esp,0x10
  1082b5:	89 45 e4             	mov    DWORD PTR [ebp-0x1c],eax
  1082b8:	83 7d e4 00          	cmp    DWORD PTR [ebp-0x1c],0x0
  1082bc:	0f 85 23 ff ff ff    	jne    1081e5 <ext2fs_open+0x122>
  1082c2:	83 ec 04             	sub    esp,0x4
  1082c5:	ff 75 f4             	push   DWORD PTR [ebp-0xc]
  1082c8:	ff 75 08             	push   DWORD PTR [ebp+0x8]
  1082cb:	68 f3 9e 10 00       	push   0x109ef3
  1082d0:	e8 01 93 ff ff       	call   1015d6 <printf>
  1082d5:	83 c4 10             	add    esp,0x10
  1082d8:	83 ec 0c             	sub    esp,0xc
  1082db:	68 88 04 00 00       	push   0x488
  1082e0:	e8 94 a3 ff ff       	call   102679 <malloc>
  1082e5:	83 c4 10             	add    esp,0x10
  1082e8:	89 45 e0             	mov    DWORD PTR [ebp-0x20],eax
  1082eb:	8b 45 e0             	mov    eax,DWORD PTR [ebp-0x20]
  1082ee:	83 ec 08             	sub    esp,0x8
  1082f1:	50                   	push   eax
  1082f2:	ff 75 f4             	push   DWORD PTR [ebp-0xc]
  1082f5:	e8 34 ef ff ff       	call   10722e <e2fs_read_inode>
  1082fa:	83 c4 10             	add    esp,0x10
  1082fd:	8b 45 e0             	mov    eax,DWORD PTR [ebp-0x20]
  108300:	8b 55 f4             	mov    edx,DWORD PTR [ebp-0xc]
  108303:	89 90 80 00 00 00    	mov    DWORD PTR [eax+0x80],edx
  108309:	a1 80 ed 17 00       	mov    eax,ds:0x17ed80
  10830e:	8b 04 85 80 ed 13 00 	mov    eax,DWORD PTR [eax*4+0x13ed80]
  108315:	8b 40 20             	mov    eax,DWORD PTR [eax+0x20]
  108318:	8b 55 ec             	mov    edx,DWORD PTR [ebp-0x14]
  10831b:	c1 e2 04             	shl    edx,0x4
  10831e:	01 c2                	add    edx,eax
  108320:	8b 45 e0             	mov    eax,DWORD PTR [ebp-0x20]
  108323:	89 42 0c             	mov    DWORD PTR [edx+0xc],eax
  108326:	83 ec 04             	sub    esp,0x4
  108329:	ff 75 ec             	push   DWORD PTR [ebp-0x14]
  10832c:	ff 75 08             	push   DWORD PTR [ebp+0x8]
  10832f:	68 0d 9f 10 00       	push   0x109f0d
  108334:	e8 9d 92 ff ff       	call   1015d6 <printf>
  108339:	83 c4 10             	add    esp,0x10
  10833c:	83 ec 0c             	sub    esp,0xc
  10833f:	ff 75 e8             	push   DWORD PTR [ebp-0x18]
  108342:	e8 cd a8 ff ff       	call   102c14 <free>
  108347:	83 c4 10             	add    esp,0x10
  10834a:	8b 45 0c             	mov    eax,DWORD PTR [ebp+0xc]
  10834d:	25 00 02 00 00       	and    eax,0x200
  108352:	85 c0                	test   eax,eax
  108354:	74 19                	je     10836f <ext2fs_open+0x2ac>
  108356:	8b 55 e0             	mov    edx,DWORD PTR [ebp-0x20]
  108359:	8b 45 e0             	mov    eax,DWORD PTR [ebp-0x20]
  10835c:	8b 80 80 00 00 00    	mov    eax,DWORD PTR [eax+0x80]
  108362:	83 ec 08             	sub    esp,0x8
  108365:	52                   	push   edx
  108366:	50                   	push   eax
  108367:	e8 c1 f7 ff ff       	call   107b2d <truncate>
  10836c:	83 c4 10             	add    esp,0x10
  10836f:	8b 45 ec             	mov    eax,DWORD PTR [ebp-0x14]
  108372:	8b 5d fc             	mov    ebx,DWORD PTR [ebp-0x4]
  108375:	c9                   	leave  
  108376:	c3                   	ret    

00108377 <ext2fs_close>:
  108377:	55                   	push   ebp
  108378:	89 e5                	mov    ebp,esp
  10837a:	83 ec 08             	sub    esp,0x8
  10837d:	a1 80 ed 17 00       	mov    eax,ds:0x17ed80
  108382:	8b 04 85 80 ed 13 00 	mov    eax,DWORD PTR [eax*4+0x13ed80]
  108389:	8b 40 20             	mov    eax,DWORD PTR [eax+0x20]
  10838c:	8b 55 08             	mov    edx,DWORD PTR [ebp+0x8]
  10838f:	c1 e2 04             	shl    edx,0x4
  108392:	01 d0                	add    eax,edx
  108394:	8b 40 0c             	mov    eax,DWORD PTR [eax+0xc]
  108397:	83 ec 0c             	sub    esp,0xc
  10839a:	50                   	push   eax
  10839b:	e8 74 a8 ff ff       	call   102c14 <free>
  1083a0:	83 c4 10             	add    esp,0x10
  1083a3:	83 ec 0c             	sub    esp,0xc
  1083a6:	68 23 9f 10 00       	push   0x109f23
  1083ab:	e8 26 92 ff ff       	call   1015d6 <printf>
  1083b0:	83 c4 10             	add    esp,0x10
  1083b3:	b8 00 00 00 00       	mov    eax,0x0
  1083b8:	c9                   	leave  
  1083b9:	c3                   	ret    

001083ba <e2fs_read>:
  1083ba:	55                   	push   ebp
  1083bb:	89 e5                	mov    ebp,esp
  1083bd:	83 ec 18             	sub    esp,0x18
  1083c0:	a1 80 ed 17 00       	mov    eax,ds:0x17ed80
  1083c5:	8b 04 85 80 ed 13 00 	mov    eax,DWORD PTR [eax*4+0x13ed80]
  1083cc:	8b 40 20             	mov    eax,DWORD PTR [eax+0x20]
  1083cf:	8b 55 08             	mov    edx,DWORD PTR [ebp+0x8]
  1083d2:	c1 e2 04             	shl    edx,0x4
  1083d5:	01 d0                	add    eax,edx
  1083d7:	8b 40 0c             	mov    eax,DWORD PTR [eax+0xc]
  1083da:	89 45 f4             	mov    DWORD PTR [ebp-0xc],eax
  1083dd:	8b 45 f4             	mov    eax,DWORD PTR [ebp-0xc]
  1083e0:	8b 80 84 00 00 00    	mov    eax,DWORD PTR [eax+0x84]
  1083e6:	89 c2                	mov    edx,eax
  1083e8:	8b 45 f4             	mov    eax,DWORD PTR [ebp-0xc]
  1083eb:	ff 75 10             	push   DWORD PTR [ebp+0x10]
  1083ee:	52                   	push   edx
  1083ef:	ff 75 0c             	push   DWORD PTR [ebp+0xc]
  1083f2:	50                   	push   eax
  1083f3:	e8 dd f2 ff ff       	call   1076d5 <iread>
  1083f8:	83 c4 10             	add    esp,0x10
  1083fb:	89 45 f0             	mov    DWORD PTR [ebp-0x10],eax
  1083fe:	8b 45 f0             	mov    eax,DWORD PTR [ebp-0x10]
  108401:	3b 45 10             	cmp    eax,DWORD PTR [ebp+0x10]
  108404:	7d 0b                	jge    108411 <e2fs_read+0x57>
  108406:	8b 55 f0             	mov    edx,DWORD PTR [ebp-0x10]
  108409:	8b 45 0c             	mov    eax,DWORD PTR [ebp+0xc]
  10840c:	01 d0                	add    eax,edx
  10840e:	c6 00 ff             	mov    BYTE PTR [eax],0xff
  108411:	8b 45 f4             	mov    eax,DWORD PTR [ebp-0xc]
  108414:	8b 90 84 00 00 00    	mov    edx,DWORD PTR [eax+0x84]
  10841a:	8b 45 f0             	mov    eax,DWORD PTR [ebp-0x10]
  10841d:	01 c2                	add    edx,eax
  10841f:	8b 45 f4             	mov    eax,DWORD PTR [ebp-0xc]
  108422:	89 90 84 00 00 00    	mov    DWORD PTR [eax+0x84],edx
  108428:	ff 75 f0             	push   DWORD PTR [ebp-0x10]
  10842b:	ff 75 10             	push   DWORD PTR [ebp+0x10]
  10842e:	ff 75 08             	push   DWORD PTR [ebp+0x8]
  108431:	68 34 9f 10 00       	push   0x109f34
  108436:	e8 9b 91 ff ff       	call   1015d6 <printf>
  10843b:	83 c4 10             	add    esp,0x10
  10843e:	8b 45 f0             	mov    eax,DWORD PTR [ebp-0x10]
  108441:	c9                   	leave  
  108442:	c3                   	ret    

00108443 <e2fs_write>:
  108443:	55                   	push   ebp
  108444:	89 e5                	mov    ebp,esp
  108446:	83 ec 18             	sub    esp,0x18
  108449:	a1 80 ed 17 00       	mov    eax,ds:0x17ed80
  10844e:	8b 04 85 80 ed 13 00 	mov    eax,DWORD PTR [eax*4+0x13ed80]
  108455:	8b 40 20             	mov    eax,DWORD PTR [eax+0x20]
  108458:	8b 55 08             	mov    edx,DWORD PTR [ebp+0x8]
  10845b:	c1 e2 04             	shl    edx,0x4
  10845e:	01 d0                	add    eax,edx
  108460:	8b 40 0c             	mov    eax,DWORD PTR [eax+0xc]
  108463:	89 45 f4             	mov    DWORD PTR [ebp-0xc],eax
  108466:	8b 45 f4             	mov    eax,DWORD PTR [ebp-0xc]
  108469:	8b 80 84 00 00 00    	mov    eax,DWORD PTR [eax+0x84]
  10846f:	89 c1                	mov    ecx,eax
  108471:	8b 55 f4             	mov    edx,DWORD PTR [ebp-0xc]
  108474:	8b 45 f4             	mov    eax,DWORD PTR [ebp-0xc]
  108477:	8b 80 80 00 00 00    	mov    eax,DWORD PTR [eax+0x80]
  10847d:	83 ec 0c             	sub    esp,0xc
  108480:	ff 75 10             	push   DWORD PTR [ebp+0x10]
  108483:	51                   	push   ecx
  108484:	ff 75 0c             	push   DWORD PTR [ebp+0xc]
  108487:	52                   	push   edx
  108488:	50                   	push   eax
  108489:	e8 01 f4 ff ff       	call   10788f <iwrite>
  10848e:	83 c4 20             	add    esp,0x20
  108491:	89 45 f0             	mov    DWORD PTR [ebp-0x10],eax
  108494:	8b 45 f4             	mov    eax,DWORD PTR [ebp-0xc]
  108497:	8b 90 84 00 00 00    	mov    edx,DWORD PTR [eax+0x84]
  10849d:	8b 45 f0             	mov    eax,DWORD PTR [ebp-0x10]
  1084a0:	01 c2                	add    edx,eax
  1084a2:	8b 45 f4             	mov    eax,DWORD PTR [ebp-0xc]
  1084a5:	89 90 84 00 00 00    	mov    DWORD PTR [eax+0x84],edx
  1084ab:	83 ec 0c             	sub    esp,0xc
  1084ae:	ff 75 f0             	push   DWORD PTR [ebp-0x10]
  1084b1:	ff 75 0c             	push   DWORD PTR [ebp+0xc]
  1084b4:	ff 75 10             	push   DWORD PTR [ebp+0x10]
  1084b7:	ff 75 08             	push   DWORD PTR [ebp+0x8]
  1084ba:	68 50 9f 10 00       	push   0x109f50
  1084bf:	e8 12 91 ff ff       	call   1015d6 <printf>
  1084c4:	83 c4 20             	add    esp,0x20
  1084c7:	8b 45 f0             	mov    eax,DWORD PTR [ebp-0x10]
  1084ca:	c9                   	leave  
  1084cb:	c3                   	ret    
